(lp0
(lp1
(I2
F0.1369
tp2
a(lp3
(I0
F0.0837
tp4
a(lp5
(I0
F0.0393
tp6
a(lp7
(I1
F0.0156
tp8
a(lp9
(I2
F0.0453
tp10
a(lp11
(I2
F0.0131
tp12
a(lp13
(I1
F-0.0122
tp14
a(lp15
(I2
F-0.0052
tp16
a(lp17
(I1
F-0.0451
tp18
a(F1329.0
F32.0
tp19
a(lp20
(I1
F-0.0278
tp21
a(F782.0
F6.0
tp22
a(F874.0
F4.0
tp23
aaa(F817.0
F26.0
tp24
aa(lp25
(I2
F-0.008
tp26
a(F748.0
F30.0
tp27
a(F1234.0
F28.0
tp28
aaa(lp29
(I3
F0.0353
tp30
a(F1155.0
F34.0
tp31
a(F750.0
F47.0
tp32
aaa(F765.0
F86.0
tp33
aa(lp34
(I3
F0.0685
tp35
a(lp36
(I0
F0.0279
tp37
a(lp38
(I0
F0.0044
tp39
a(F803.0
F34.0
tp40
a(lp41
(I3
F0.0178
tp42
a(F778.0
F70.0
tp43
a(F749.0
F74.0
tp44
aaa(F1237.0
F57.0
tp45
aa(F764.0
F98.0
tp46
aaa(lp47
(I2
F0.082
tp48
a(lp49
(I3
F0.0773
tp50
a(lp51
(I2
F0.0571
tp52
a(lp53
(I1
F0.0715
tp54
a(lp55
(I1
F0.0478
tp56
a(F1110.0
F106.0
tp57
a(F809.0
F53.0
tp58
aa(F710.0
F85.0
tp59
aa(lp60
(I1
F0.069
tp61
a(F895.0
F107.0
tp62
a(F674.0
F93.0
tp63
aaa(F1043.0
F254.0
tp64
aa(F865.0
F241.0
tp65
aaa(lp66
(I2
F0.1064
tp67
a(lp68
(I0
F0.1583
tp69
a(lp70
(I3
F0.0697
tp71
a(lp72
(I1
F0.1035
tp73
a(F805.0
F153.0
tp74
a(F925.0
F219.0
tp75
aa(lp76
(I0
F0.0983
tp77
a(F617.0
F230.0
tp78
a(F725.0
F207.0
tp79
aaa(F566.0
F244.0
tp80
aa(lp81
(I0
F0.1365
tp82
a(lp83
(I1
F0.108
tp84
a(F588.0
F256.0
tp85
a(lp86
(I2
F0.1205
tp87
a(F604.0
F207.0
tp88
a(F623.0
F204.0
tp89
aaa(F507.0
F299.0
tp90
aaaa(lp91
(I1
F0.1983
tp92
a(lp93
(I2
F0.1756
tp94
a(lp95
(I1
F0.1286
tp96
a(F616.0
F393.0
tp97
a(lp98
(I1
F0.1513
tp99
a(F551.0
F220.0
tp100
a(F843.0
F410.0
tp101
aaa(lp102
(I1
F0.1499
tp103
a(F526.0
F315.0
tp104
a(F444.0
F514.0
tp105
aaa(lp106
(I3
F0.2093
tp107
a(lp108
(I2
F0.2606
tp109
a(F435.0
F613.0
tp110
a(F404.0
F366.0
tp111
aa(F252.0
F1123.0
tp112
aaaa(lp113
(I0
F0.1203
tp114
a(lp115
(I0
F0.0674
tp116
a(lp117
(I2
F0.0752
tp118
a(lp119
(I1
F0.0395
tp120
a(lp121
(I0
F0.0114
tp122
a(lp123
(I3
F0.05
tp124
a(lp125
(I1
F-0.0122
tp126
a(lp127
(I3
F-0.0198
tp128
a(F1011.0
F22.0
tp129
a(lp130
(I0
F-0.0207
tp131
a(F1210.0
F23.0
tp132
a(F1081.0
F9.0
tp133
aaa(lp134
(I1
F-0.0006
tp135
a(F834.0
F36.0
tp136
a(F1471.0
F36.0
tp137
aaa(lp138
(I2
F-0.001
tp139
a(F839.0
F32.0
tp140
a(F734.0
F54.0
tp141
aaa(lp142
(I1
F0.031
tp143
a(lp144
(I2
F0.0389
tp145
a(lp146
(I2
F0.0166
tp147
a(F1013.0
F84.0
tp148
a(F1460.0
F64.0
tp149
aa(F912.0
F88.0
tp150
aa(F889.0
F35.0
tp151
aaa(lp152
(I3
F0.0761
tp153
a(lp154
(I1
F0.0708
tp155
a(lp156
(I0
F0.0484
tp157
a(F1333.0
F101.0
tp158
a(F973.0
F48.0
tp159
aa(lp160
(I3
F0.0159
tp161
a(F745.0
F62.0
tp162
a(F690.0
F105.0
tp163
aaa(F690.0
F126.0
tp164
aaa(F1240.0
F334.0
tp165
aa(lp166
(I2
F0.1249
tp167
a(lp168
(I2
F0.0727
tp169
a(lp170
(I2
F0.0472
tp171
a(F717.0
F88.0
tp172
a(F1105.0
F194.0
tp173
aa(lp174
(I0
F0.0844
tp175
a(F935.0
F219.0
tp176
a(lp177
(I1
F0.105
tp178
a(lp179
(I3
F0.0831
tp180
a(F666.0
F164.0
tp181
a(F630.0
F263.0
tp182
aa(lp183
(I1
F0.1188
tp184
a(F660.0
F155.0
tp185
a(F603.0
F185.0
tp186
aaaaa(F520.0
F318.0
tp187
aaa(lp188
(I1
F0.2186
tp189
a(lp190
(I3
F0.0948
tp191
a(lp192
(I2
F0.154
tp193
a(lp194
(I2
F0.083
tp195
a(F644.0
F159.0
tp196
a(lp197
(I2
F0.1257
tp198
a(F561.0
F250.0
tp199
a(F585.0
F173.0
tp200
aaa(F576.0
F364.0
tp201
aa(lp202
(I3
F0.1777
tp203
a(lp204
(I0
F0.1679
tp205
a(lp206
(I2
F0.1478
tp207
a(F903.0
F473.0
tp208
a(F482.0
F295.0
tp209
aa(F479.0
F375.0
tp210
aa(F712.0
F678.0
tp211
aaa(lp212
(I3
F0.2092
tp213
a(lp214
(I3
F0.0749
tp215
a(F410.0
F463.0
tp216
a(F331.0
F475.0
tp217
aa(F210.0
F1056.0
tp218
aaaa(lp219
(I0
F0.0982
tp220
a(lp221
(I2
F0.0597
tp222
a(lp223
(I2
F0.0249
tp224
a(lp225
(I0
F0.0331
tp226
a(lp227
(I1
F0.0158
tp228
a(lp229
(I1
F-0.0584
tp230
a(F1031.0
F38.0
tp231
a(lp232
(I1
F-0.0127
tp233
a(lp234
(I1
F-0.028
tp235
a(lp236
(I0
F-0.0293
tp237
a(F886.0
F20.0
tp238
a(F750.0
F21.0
tp239
aa(F1364.0
F9.0
tp240
aa(lp241
(I3
F0.0034
tp242
a(F1104.0
F23.0
tp243
a(lp244
(I1
F0.0027
tp245
a(F788.0
F40.0
tp246
a(F775.0
F19.0
tp247
aaaaa(lp248
(I0
F0.0107
tp249
a(F1108.0
F52.0
tp250
a(F1059.0
F78.0
tp251
aaa(F1016.0
F103.0
tp252
aa(lp253
(I1
F0.0762
tp254
a(lp255
(I2
F0.0446
tp256
a(lp257
(I0
F0.0404
tp258
a(lp259
(I3
F0.0417
tp260
a(F1437.0
F66.0
tp261
a(F795.0
F61.0
tp262
aa(F845.0
F76.0
tp263
aa(lp264
(I2
F0.0502
tp265
a(F714.0
F80.0
tp266
a(F1045.0
F71.0
tp267
aaa(F853.0
F133.0
tp268
aaa(lp269
(I2
F0.0743
tp270
a(lp271
(I0
F0.0591
tp272
a(F714.0
F79.0
tp273
a(F1120.0
F196.0
tp274
aa(lp275
(I2
F0.1236
tp276
a(lp277
(I1
F0.0828
tp278
a(lp279
(I3
F0.069
tp280
a(F766.0
F120.0
tp281
a(F937.0
F262.0
tp282
aa(F1130.0
F333.0
tp283
aa(F574.0
F223.0
tp284
aaaa(lp285
(I2
F0.1786
tp286
a(lp287
(I0
F0.1883
tp288
a(lp289
(I1
F0.1333
tp290
a(lp291
(I3
F0.0522
tp292
a(F974.0
F207.0
tp293
a(lp294
(I1
F0.1092
tp295
a(F981.0
F483.0
tp296
a(lp297
(I2
F0.1216
tp298
a(F605.0
F182.0
tp299
a(F551.0
F258.0
tp300
aaaa(lp301
(I3
F0.075
tp302
a(F1194.0
F337.0
tp303
a(lp304
(I3
F0.1492
tp305
a(lp306
(I1
F0.154
tp307
a(F532.0
F277.0
tp308
a(F551.0
F314.0
tp309
aa(F482.0
F333.0
tp310
aaaa(F439.0
F396.0
tp311
aa(lp312
(I1
F0.2181
tp313
a(lp314
(I3
F0.151
tp315
a(F488.0
F384.0
tp316
a(F519.0
F615.0
tp317
aa(lp318
(I3
F0.2234
tp319
a(F598.0
F726.0
tp320
a(F166.0
F954.0
tp321
aaaaa(lp322
(I2
F0.1368
tp323
a(lp324
(I2
F0.0583
tp325
a(lp326
(I1
F0.1142
tp327
a(lp328
(I3
F0.0406
tp329
a(lp330
(I2
F0.0237
tp331
a(lp332
(I1
F0.0093
tp333
a(lp334
(I1
F-0.0155
tp335
a(lp336
(I3
F-0.0026
tp337
a(lp338
(I3
F-0.0258
tp339
a(F810.0
F6.0
tp340
a(F840.0
F1.0
tp341
aa(F1195.0
F10.0
tp342
aa(lp343
(I2
F-0.0004
tp344
a(F1022.0
F26.0
tp345
a(F933.0
F10.0
tp346
aaa(lp347
(I0
F0.0272
tp348
a(lp349
(I3
F0.0048
tp350
a(F832.0
F34.0
tp351
a(F788.0
F19.0
tp352
aa(F713.0
F59.0
tp353
aaa(lp354
(I0
F0.0501
tp355
a(lp356
(I2
F0.0378
tp357
a(F1281.0
F52.0
tp358
a(F981.0
F52.0
tp359
aa(F800.0
F62.0
tp360
aaa(lp361
(I1
F0.0179
tp362
a(lp363
(I3
F0.1175
tp364
a(lp365
(I0
F-0.0031
tp366
a(F787.0
F46.0
tp367
a(F793.0
F58.0
tp368
aa(F773.0
F25.0
tp369
aa(lp370
(I3
F0.0687
tp371
a(F1413.0
F127.0
tp372
a(F1075.0
F151.0
tp373
aaaa(F1203.0
F285.0
tp374
aa(lp375
(I0
F0.0917
tp376
a(lp377
(I1
F0.0863
tp378
a(lp379
(I2
F0.0727
tp380
a(lp381
(I2
F0.0653
tp382
a(F745.0
F104.0
tp383
a(F728.0
F79.0
tp384
aa(lp385
(I3
F0.0723
tp386
a(F916.0
F159.0
tp387
a(F962.0
F239.0
tp388
aaa(F1015.0
F279.0
tp389
aa(lp390
(I0
F0.1338
tp391
a(lp392
(I3
F0.081
tp393
a(lp394
(I2
F0.104
tp395
a(F815.0
F211.0
tp396
a(F635.0
F197.0
tp397
aa(lp398
(I2
F0.1099
tp399
a(F762.0
F255.0
tp400
a(F933.0
F356.0
tp401
aaa(F966.0
F521.0
tp402
aaaa(lp403
(I1
F0.2362
tp404
a(lp405
(I1
F0.0765
tp406
a(F614.0
F199.0
tp407
a(lp408
(I3
F0.1768
tp409
a(lp410
(I0
F0.1763
tp411
a(lp412
(I3
F0.0846
tp413
a(F608.0
F253.0
tp414
a(lp415
(I1
F0.149
tp416
a(F447.0
F336.0
tp417
a(F511.0
F358.0
tp418
aaa(F614.0
F573.0
tp419
aa(F728.0
F829.0
tp420
aaa(lp421
(I0
F0.3594
tp422
a(F531.0
F933.0
tp423
a(F155.0
F632.0
tp424
aaaa(lp425
(I0
F0.1353
tp426
a(lp427
(I2
F0.0742
tp428
a(lp429
(I2
F0.0452
tp430
a(lp431
(I0
F0.0369
tp432
a(lp433
(I1
F0.0549
tp434
a(lp435
(I3
F0.0178
tp436
a(lp437
(I1
F-0.0324
tp438
a(F1427.0
F48.0
tp439
a(lp440
(I1
F-0.0123
tp441
a(F1181.0
F5.0
tp442
a(lp443
(I1
F0.0226
tp444
a(lp445
(I1
F0.0072
tp446
a(F1231.0
F22.0
tp447
a(F788.0
F28.0
tp448
aa(F827.0
F9.0
tp449
aaaa(lp450
(I0
F0.0024
tp451
a(lp452
(I2
F-0.0161
tp453
a(F915.0
F24.0
tp454
a(F1350.0
F59.0
tp455
aa(lp456
(I3
F0.0507
tp457
a(lp458
(I0
F0.0204
tp459
a(F775.0
F46.0
tp460
a(F755.0
F36.0
tp461
aa(F860.0
F90.0
tp462
aaaa(F945.0
F90.0
tp463
aa(lp464
(I0
F0.065
tp465
a(lp466
(I1
F0.0444
tp467
a(F876.0
F61.0
tp468
a(F825.0
F80.0
tp469
aa(F819.0
F111.0
tp470
aaa(lp471
(I0
F0.0765
tp472
a(lp473
(I1
F0.0732
tp474
a(lp475
(I3
F0.0744
tp476
a(lp477
(I3
F0.0394
tp478
a(F957.0
F69.0
tp479
a(F1174.0
F112.0
tp480
aa(F660.0
F93.0
tp481
aa(F698.0
F121.0
tp482
aa(F732.0
F170.0
tp483
aaa(lp484
(I3
F0.1398
tp485
a(lp486
(I0
F0.0869
tp487
a(lp488
(I1
F0.0569
tp489
a(F934.0
F186.0
tp490
a(lp491
(I3
F0.0695
tp492
a(F637.0
F142.0
tp493
a(F578.0
F178.0
tp494
aaa(lp495
(I3
F0.0522
tp496
a(F982.0
F267.0
tp497
a(lp498
(I1
F0.1294
tp499
a(lp500
(I3
F0.0963
tp501
a(F911.0
F287.0
tp502
a(F890.0
F369.0
tp503
aa(F557.0
F256.0
tp504
aaaa(F731.0
F388.0
tp505
aaa(lp506
(I1
F0.2226
tp507
a(lp508
(I3
F0.0824
tp509
a(lp510
(I0
F0.1767
tp511
a(F1072.0
F318.0
tp512
a(F584.0
F337.0
tp513
aa(lp514
(I2
F0.1785
tp515
a(lp516
(I0
F0.1518
tp517
a(F568.0
F371.0
tp518
a(F998.0
F575.0
tp519
aa(F713.0
F801.0
tp520
aaa(lp521
(I1
F0.358
tp522
a(lp523
(I3
F0.1696
tp524
a(F489.0
F544.0
tp525
a(F222.0
F702.0
tp526
aa(F147.0
F657.0
tp527
aaaa(lp528
(I2
F0.1203
tp529
a(lp530
(I1
F0.0707
tp531
a(lp532
(I0
F0.0366
tp533
a(lp534
(I2
F0.0556
tp535
a(lp536
(I3
F0.0372
tp537
a(lp538
(I0
F0.0173
tp539
a(lp540
(I1
F-0.0123
tp541
a(lp542
(I1
F-0.0451
tp543
a(F1170.0
F32.0
tp544
a(lp545
(I3
F-0.0085
tp546
a(F853.0
F3.0
tp547
a(F1021.0
F12.0
tp548
aaa(lp549
(I1
F0.0027
tp550
a(F1119.0
F39.0
tp551
a(lp552
(I3
F0.0043
tp553
a(F891.0
F10.0
tp554
a(F869.0
F21.0
tp555
aaaa(lp556
(I0
F0.0253
tp557
a(F723.0
F42.0
tp558
a(F919.0
F28.0
tp559
aaa(lp560
(I1
F-0.0064
tp561
a(F1417.0
F57.0
tp562
a(lp563
(I0
F0.0196
tp564
a(F949.0
F45.0
tp565
a(F771.0
F71.0
tp566
aaaa(F755.0
F111.0
tp567
aa(lp568
(I2
F0.08
tp569
a(lp570
(I3
F0.0717
tp571
a(lp572
(I0
F0.0572
tp573
a(lp574
(I0
F0.0461
tp575
a(F961.0
F83.0
tp576
a(F1028.0
F48.0
tp577
aa(F1257.0
F131.0
tp578
aa(F903.0
F147.0
tp579
aa(F759.0
F219.0
tp580
aaa(lp581
(I0
F0.0875
tp582
a(lp583
(I0
F0.0505
tp584
a(F1078.0
F127.0
tp585
a(lp586
(I0
F0.0717
tp587
a(F854.0
F226.0
tp588
a(F1211.0
F201.0
tp589
aaa(lp590
(I3
F0.0786
tp591
a(lp592
(I0
F0.1309
tp593
a(lp594
(I3
F0.0451
tp595
a(F829.0
F153.0
tp596
a(F731.0
F166.0
tp597
aa(F774.0
F319.0
tp598
aa(lp599
(I3
F0.1136
tp600
a(F921.0
F398.0
tp601
a(F598.0
F204.0
tp602
aaaaa(lp603
(I1
F0.1982
tp604
a(lp605
(I2
F0.1786
tp606
a(lp607
(I3
F0.1249
tp608
a(lp609
(I1
F0.1527
tp610
a(lp611
(I0
F0.1184
tp612
a(F619.0
F193.0
tp613
a(F991.0
F352.0
tp614
aa(F510.0
F291.0
tp615
aa(lp616
(I2
F0.1434
tp617
a(F626.0
F310.0
tp618
a(F773.0
F527.0
tp619
aaa(lp620
(I3
F0.1491
tp621
a(F496.0
F322.0
tp622
a(F409.0
F500.0
tp623
aaa(lp624
(I2
F0.2461
tp625
a(F607.0
F768.0
tp626
a(lp627
(I3
F0.2092
tp628
a(F404.0
F455.0
tp629
a(F131.0
F922.0
tp630
aaaaa(lp631
(I1
F0.1267
tp632
a(lp633
(I2
F0.073
tp634
a(lp635
(I1
F0.0145
tp636
a(lp637
(I0
F0.0235
tp638
a(lp639
(I1
F-0.0155
tp640
a(lp641
(I2
F0.0118
tp642
a(lp643
(I3
F0.0477
tp644
a(lp645
(I1
F-0.0306
tp646
a(lp647
(I3
F-0.0162
tp648
a(F774.0
F22.0
tp649
a(F983.0
F13.0
tp650
aa(F923.0
F3.0
tp651
aa(F776.0
F23.0
tp652
aa(F768.0
F36.0
tp653
aa(lp654
(I1
F-0.0049
tp655
a(F1094.0
F59.0
tp656
a(lp657
(I1
F0.0047
tp658
a(F1002.0
F33.0
tp659
a(F1057.0
F20.0
tp660
aaaa(F907.0
F70.0
tp661
aa(lp662
(I0
F0.0828
tp663
a(lp664
(I0
F0.0349
tp665
a(lp666
(I3
F0.0359
tp667
a(lp668
(I1
F0.0256
tp669
a(F769.0
F60.0
tp670
a(F1404.0
F58.0
tp671
aa(F1132.0
F127.0
tp672
aa(lp673
(I3
F0.0727
tp674
a(lp675
(I0
F0.0644
tp676
a(lp677
(I2
F0.0473
tp678
a(lp679
(I3
F0.03
tp680
a(F815.0
F72.0
tp681
a(F738.0
F80.0
tp682
aa(F1090.0
F81.0
tp683
aa(F820.0
F107.0
tp684
aa(F931.0
F173.0
tp685
aaa(F799.0
F169.0
tp686
aaa(lp687
(I3
F0.1242
tp688
a(lp689
(I0
F0.0979
tp690
a(lp691
(I2
F0.0825
tp692
a(F881.0
F147.0
tp693
a(lp694
(I3
F0.0697
tp695
a(F1068.0
F261.0
tp696
a(F853.0
F246.0
tp697
aaa(lp698
(I2
F0.1241
tp699
a(lp700
(I3
F0.0771
tp701
a(F647.0
F156.0
tp702
a(F651.0
F219.0
tp703
aa(F595.0
F238.0
tp704
aaa(lp705
(I0
F0.1126
tp706
a(F701.0
F277.0
tp707
a(F517.0
F308.0
tp708
aaaa(lp709
(I2
F0.1946
tp710
a(lp711
(I2
F0.108
tp712
a(lp713
(I0
F0.125
tp714
a(lp715
(I2
F0.0531
tp716
a(F713.0
F100.0
tp717
a(F633.0
F173.0
tp718
aa(F705.0
F315.0
tp719
aa(lp720
(I0
F0.1791
tp721
a(lp722
(I3
F0.0786
tp723
a(F709.0
F256.0
tp724
a(lp725
(I1
F0.1542
tp726
a(F894.0
F474.0
tp727
a(F743.0
F540.0
tp728
aaa(F529.0
F458.0
tp729
aaa(lp730
(I3
F0.2289
tp731
a(lp732
(I3
F0.0805
tp733
a(F462.0
F436.0
tp734
a(F471.0
F713.0
tp735
aa(F217.0
F1166.0
tp736
aaaa(lp737
(I1
F0.1262
tp738
a(lp739
(I2
F0.0727
tp740
a(lp741
(I3
F0.0496
tp742
a(lp743
(I2
F0.0238
tp744
a(lp745
(I1
F0.0497
tp746
a(lp747
(I0
F0.0126
tp748
a(lp749
(I3
F0.0264
tp750
a(lp751
(I2
F-0.0111
tp752
a(lp753
(I1
F-0.019
tp754
a(F1575.0
F16.0
tp755
a(F821.0
F25.0
tp756
aa(lp757
(I0
F-0.0037
tp758
a(F990.0
F6.0
tp759
a(F975.0
F13.0
tp760
aaa(F780.0
F27.0
tp761
aa(lp762
(I2
F0.0101
tp763
a(F736.0
F36.0
tp764
a(F807.0
F33.0
tp765
aaa(F718.0
F70.0
tp766
aa(lp767
(I0
F0.0611
tp768
a(lp769
(I1
F0.0194
tp770
a(F1195.0
F41.0
tp771
a(lp772
(I0
F0.045
tp773
a(lp774
(I3
F0.0259
tp775
a(F797.0
F49.0
tp776
a(F730.0
F69.0
tp777
aa(F760.0
F35.0
tp778
aaa(F965.0
F113.0
tp779
aaa(lp780
(I0
F-0.0045
tp781
a(F1245.0
F68.0
tp782
a(lp783
(I0
F0.0683
tp784
a(lp785
(I1
F0.0566
tp786
a(lp787
(I2
F0.0332
tp788
a(F1040.0
F94.0
tp789
a(F1230.0
F193.0
tp790
aa(F768.0
F69.0
tp791
aa(F699.0
F121.0
tp792
aaaa(lp793
(I0
F0.0936
tp794
a(lp795
(I1
F0.0616
tp796
a(lp797
(I2
F0.0956
tp798
a(F681.0
F114.0
tp799
a(F610.0
F158.0
tp800
aa(lp801
(I3
F0.0758
tp802
a(F822.0
F154.0
tp803
a(F797.0
F269.0
tp804
aaa(lp805
(I2
F0.1328
tp806
a(lp807
(I3
F0.0816
tp808
a(F966.0
F239.0
tp809
a(lp810
(I1
F0.1057
tp811
a(F585.0
F253.0
tp812
a(F648.0
F206.0
tp813
aaa(F724.0
F472.0
tp814
aaaa(lp815
(I2
F0.1751
tp816
a(lp817
(I0
F0.0765
tp818
a(F800.0
F113.0
tp819
a(lp820
(I0
F0.1813
tp821
a(lp822
(I3
F0.0704
tp823
a(lp824
(I2
F0.0924
tp825
a(F653.0
F159.0
tp826
a(F733.0
F237.0
tp827
aa(lp828
(I3
F0.1495
tp829
a(lp830
(I0
F0.1486
tp831
a(F932.0
F428.0
tp832
a(F512.0
F271.0
tp833
aa(F501.0
F344.0
tp834
aaa(F413.0
F383.0
tp835
aaa(lp836
(I2
F0.2479
tp837
a(lp838
(I2
F0.2075
tp839
a(F642.0
F638.0
tp840
a(F394.0
F542.0
tp841
aa(lp842
(I3
F0.2092
tp843
a(F439.0
F541.0
tp844
a(F159.0
F1019.0
tp845
aaaaa(lp846
(I0
F0.1204
tp847
a(lp848
(I0
F0.0681
tp849
a(lp850
(I1
F0.0539
tp851
a(lp852
(I2
F0.0599
tp853
a(lp854
(I3
F0.0408
tp855
a(lp856
(I0
F-0.0047
tp857
a(lp858
(I2
F-0.0397
tp859
a(F784.0
F19.0
tp860
a(lp861
(I1
F-0.0406
tp862
a(F778.0
F11.0
tp863
a(lp864
(I3
F0.0048
tp865
a(F1373.0
F6.0
tp866
a(F788.0
F10.0
tp867
aaaa(lp868
(I2
F0.0365
tp869
a(lp870
(I2
F-0.0012
tp871
a(F868.0
F48.0
tp872
a(lp873
(I3
F0.0123
tp874
a(F1493.0
F29.0
tp875
a(lp876
(I3
F0.0267
tp877
a(F761.0
F33.0
tp878
a(F760.0
F21.0
tp879
aaaa(F902.0
F61.0
tp880
aaa(lp881
(I0
F-0.0031
tp882
a(F1397.0
F54.0
tp883
a(lp884
(I2
F0.0332
tp885
a(F1250.0
F94.0
tp886
a(F1194.0
F122.0
tp887
aaaa(lp888
(I2
F0.0829
tp889
a(F751.0
F109.0
tp890
a(F627.0
F154.0
tp891
aaa(lp892
(I1
F0.0716
tp893
a(lp894
(I1
F0.0621
tp895
a(F808.0
F97.0
tp896
a(F714.0
F71.0
tp897
aa(lp898
(I2
F0.0435
tp899
a(F1075.0
F123.0
tp900
a(F712.0
F188.0
tp901
aaaa(lp902
(I3
F0.0759
tp903
a(lp904
(I2
F0.1042
tp905
a(lp906
(I0
F0.0898
tp907
a(lp908
(I3
F0.037
tp909
a(F696.0
F78.0
tp910
a(F815.0
F136.0
tp911
aa(F1021.0
F244.0
tp912
aa(F598.0
F209.0
tp913
aa(lp914
(I3
F0.1052
tp915
a(F1201.0
F356.0
tp916
a(lp917
(I1
F0.0913
tp918
a(F624.0
F202.0
tp919
a(F764.0
F355.0
tp920
aaaaa(lp921
(I1
F0.2181
tp922
a(lp923
(I2
F0.1788
tp924
a(lp925
(I3
F0.0885
tp926
a(lp927
(I3
F0.0164
tp928
a(F646.0
F152.0
tp929
a(lp930
(I0
F0.1515
tp931
a(F794.0
F260.0
tp932
a(F548.0
F260.0
tp933
aaa(lp934
(I3
F0.1334
tp935
a(lp936
(I0
F0.1426
tp937
a(F550.0
F253.0
tp938
a(F505.0
F288.0
tp939
aa(lp940
(I1
F0.1471
tp941
a(F456.0
F344.0
tp942
a(F592.0
F316.0
tp943
aaaa(lp944
(I2
F0.2112
tp945
a(F609.0
F495.0
tp946
a(F394.0
F458.0
tp947
aaa(lp948
(I3
F0.2435
tp949
a(lp950
(I3
F0.0975
tp951
a(F513.0
F524.0
tp952
a(F328.0
F554.0
tp953
aa(F137.0
F900.0
tp954
aaaa(lp955
(I2
F0.1361
tp956
a(lp957
(I0
F0.0688
tp958
a(lp959
(I0
F0.0364
tp960
a(lp961
(I2
F0.0583
tp962
a(lp963
(I1
F0.0603
tp964
a(lp965
(I3
F0.0178
tp966
a(lp967
(I0
F0.0109
tp968
a(lp969
(I1
F-0.0123
tp970
a(lp971
(I0
F-0.0238
tp972
a(F1432.0
F33.0
tp973
a(F1042.0
F4.0
tp974
aa(lp975
(I2
F-0.0037
tp976
a(F796.0
F36.0
tp977
a(F851.0
F8.0
tp978
aaa(F1437.0
F54.0
tp979
aa(lp980
(I0
F0.0183
tp981
a(lp982
(I3
F0.029
tp983
a(F740.0
F40.0
tp984
a(lp985
(I1
F-0.0278
tp986
a(F989.0
F45.0
tp987
a(lp988
(I1
F0.0011
tp989
a(F797.0
F24.0
tp990
a(F947.0
F22.0
tp991
aaaa(lp992
(I1
F0.0242
tp993
a(F771.0
F50.0
tp994
a(F717.0
F60.0
tp995
aaaa(F873.0
F79.0
tp996
aa(F787.0
F123.0
tp997
aa(lp998
(I3
F0.0731
tp999
a(lp1000
(I2
F0.0592
tp1001
a(lp1002
(I1
F0.0681
tp1003
a(lp1004
(I1
F0.036
tp1005
a(F728.0
F68.0
tp1006
a(F1273.0
F61.0
tp1007
aa(F694.0
F81.0
tp1008
aa(F1007.0
F132.0
tp1009
aa(F1063.0
F218.0
tp1010
aaa(lp1011
(I0
F0.1748
tp1012
a(lp1013
(I3
F0.081
tp1014
a(lp1015
(I1
F0.0996
tp1016
a(lp1017
(I1
F0.0766
tp1018
a(F1082.0
F142.0
tp1019
a(F931.0
F190.0
tp1020
aa(lp1021
(I3
F0.0407
tp1022
a(F1074.0
F270.0
tp1023
a(F1064.0
F323.0
tp1024
aaa(lp1025
(I0
F0.1286
tp1026
a(lp1027
(I0
F0.0944
tp1028
a(F986.0
F268.0
tp1029
a(lp1030
(I3
F0.1182
tp1031
a(F914.0
F284.0
tp1032
a(F633.0
F227.0
tp1033
aaa(F548.0
F259.0
tp1034
aaa(F486.0
F291.0
tp1035
aaa(lp1036
(I2
F0.2072
tp1037
a(lp1038
(I0
F0.1763
tp1039
a(lp1040
(I2
F0.1559
tp1041
a(lp1042
(I3
F0.1081
tp1043
a(F598.0
F214.0
tp1044
a(F628.0
F408.0
tp1045
aa(lp1046
(I0
F0.1565
tp1047
a(F508.0
F361.0
tp1048
a(F551.0
F318.0
tp1049
aaa(F798.0
F674.0
tp1050
aa(lp1051
(I2
F0.3689
tp1052
a(lp1053
(I0
F0.2721
tp1054
a(lp1055
(I2
F0.2355
tp1056
a(F351.0
F455.0
tp1057
a(F281.0
F502.0
tp1058
aa(F427.0
F520.0
tp1059
aa(F167.0
F645.0
tp1060
aaaa(lp1061
(I0
F0.1034
tp1062
a(lp1063
(I2
F0.0727
tp1064
a(lp1065
(I1
F0.0142
tp1066
a(lp1067
(I3
F0.0399
tp1068
a(lp1069
(I2
F0.0131
tp1070
a(lp1071
(I3
F-0.0044
tp1072
a(lp1073
(I2
F-0.0319
tp1074
a(F769.0
F15.0
tp1075
a(F1485.0
F10.0
tp1076
aa(lp1077
(I0
F-0.004
tp1078
a(F1311.0
F20.0
tp1079
a(F835.0
F23.0
tp1080
aaa(F1461.0
F45.0
tp1081
aa(lp1082
(I2
F-0.0053
tp1083
a(F859.0
F25.0
tp1084
a(lp1085
(I0
F0.0046
tp1086
a(F741.0
F52.0
tp1087
a(F705.0
F60.0
tp1088
aaaa(lp1089
(I2
F0.0536
tp1090
a(lp1091
(I0
F0.0618
tp1092
a(lp1093
(I0
F0.001
tp1094
a(F859.0
F42.0
tp1095
a(lp1096
(I3
F0.0496
tp1097
a(lp1098
(I1
F0.0569
tp1099
a(lp1100
(I2
F0.0363
tp1101
a(lp1102
(I1
F0.0291
tp1103
a(F929.0
F54.0
tp1104
a(F1022.0
F31.0
tp1105
aa(F754.0
F51.0
tp1106
aa(F975.0
F111.0
tp1107
aa(F1363.0
F148.0
tp1108
aaa(F915.0
F129.0
tp1109
aa(lp1110
(I1
F0.0754
tp1111
a(lp1112
(I3
F0.0614
tp1113
a(F808.0
F67.0
tp1114
a(F659.0
F110.0
tp1115
aa(F673.0
F129.0
tp1116
aaaa(lp1117
(I3
F0.0957
tp1118
a(lp1119
(I1
F0.1011
tp1120
a(lp1121
(I0
F0.0766
tp1122
a(F1207.0
F207.0
tp1123
a(F951.0
F219.0
tp1124
aa(F606.0
F165.0
tp1125
aa(lp1126
(I2
F0.0979
tp1127
a(F639.0
F200.0
tp1128
a(F619.0
F277.0
tp1129
aaaa(lp1130
(I2
F0.1795
tp1131
a(lp1132
(I0
F0.1918
tp1133
a(lp1134
(I0
F0.1479
tp1135
a(lp1136
(I2
F0.1368
tp1137
a(lp1138
(I3
F0.0525
tp1139
a(F899.0
F184.0
tp1140
a(lp1141
(I3
F0.1247
tp1142
a(lp1143
(I1
F0.1279
tp1144
a(F950.0
F281.0
tp1145
a(F656.0
F243.0
tp1146
aa(F563.0
F259.0
tp1147
aaa(F721.0
F406.0
tp1148
aa(lp1149
(I3
F0.0855
tp1150
a(F855.0
F261.0
tp1151
a(lp1152
(I1
F0.1614
tp1153
a(F514.0
F285.0
tp1154
a(F481.0
F320.0
tp1155
aaaa(F445.0
F358.0
tp1156
aa(lp1157
(I3
F0.2116
tp1158
a(lp1159
(I1
F0.202
tp1160
a(F651.0
F529.0
tp1161
a(F688.0
F839.0
tp1162
aa(lp1163
(I2
F0.3095
tp1164
a(F334.0
F597.0
tp1165
a(F91.0
F715.0
tp1166
aaaaa(lp1167
(I0
F0.127
tp1168
a(lp1169
(I2
F0.0727
tp1170
a(lp1171
(I2
F0.0436
tp1172
a(lp1173
(I0
F0.0182
tp1174
a(lp1175
(I2
F-0.0157
tp1176
a(lp1177
(I1
F-0.0106
tp1178
a(lp1179
(I2
F-0.0441
tp1180
a(F859.0
F22.0
tp1181
a(F1348.0
F13.0
tp1182
aa(F808.0
F26.0
tp1183
aa(lp1184
(I3
F0.0506
tp1185
a(lp1186
(I3
F-0.0125
tp1187
a(F854.0
F44.0
tp1188
a(lp1189
(I1
F0.0142
tp1190
a(lp1191
(I2
F0.0068
tp1192
a(F1358.0
F38.0
tp1193
a(F1186.0
F17.0
tp1194
aa(F863.0
F38.0
tp1195
aaa(F964.0
F65.0
tp1196
aaa(lp1197
(I1
F0.0549
tp1198
a(lp1199
(I3
F0.0503
tp1200
a(lp1201
(I1
F0.0177
tp1202
a(F824.0
F21.0
tp1203
a(lp1204
(I0
F0.0336
tp1205
a(F894.0
F49.0
tp1206
a(F781.0
F57.0
tp1207
aaa(F746.0
F91.0
tp1208
aa(lp1209
(I2
F0.0256
tp1210
a(F720.0
F90.0
tp1211
a(F815.0
F82.0
tp1212
aaaa(lp1213
(I0
F0.0691
tp1214
a(lp1215
(I1
F0.0646
tp1216
a(lp1217
(I3
F0.0638
tp1218
a(lp1219
(I3
F0.0331
tp1220
a(F726.0
F70.0
tp1221
a(F875.0
F68.0
tp1222
aa(F878.0
F123.0
tp1223
aa(F797.0
F132.0
tp1224
aa(F1006.0
F207.0
tp1225
aaa(lp1226
(I2
F0.1254
tp1227
a(lp1228
(I3
F0.0697
tp1229
a(lp1230
(I0
F0.0841
tp1231
a(F1002.0
F174.0
tp1232
a(F1050.0
F257.0
tp1233
aa(lp1234
(I1
F0.091
tp1235
a(lp1236
(I2
F0.09
tp1237
a(F650.0
F182.0
tp1238
a(F669.0
F152.0
tp1239
aa(lp1240
(I2
F0.1029
tp1241
a(F632.0
F269.0
tp1242
a(F864.0
F259.0
tp1243
aaaa(F996.0
F529.0
tp1244
aaa(lp1245
(I1
F0.2209
tp1246
a(lp1247
(I0
F0.1774
tp1248
a(lp1249
(I1
F0.1478
tp1250
a(lp1251
(I3
F0.0903
tp1252
a(F839.0
F247.0
tp1253
a(F903.0
F561.0
tp1254
aa(lp1255
(I2
F0.156
tp1256
a(F892.0
F397.0
tp1257
a(F583.0
F425.0
tp1258
aaa(lp1259
(I1
F0.1632
tp1260
a(F502.0
F315.0
tp1261
a(lp1262
(I3
F0.1609
tp1263
a(F468.0
F371.0
tp1264
a(F399.0
F424.0
tp1265
aaaa(lp1266
(I3
F0.2427
tp1267
a(lp1268
(I3
F0.0899
tp1269
a(F454.0
F569.0
tp1270
a(F294.0
F549.0
tp1271
aa(F139.0
F889.0
tp1272
aaaa(lp1273
(I1
F0.129
tp1274
a(lp1275
(I1
F0.0657
tp1276
a(lp1277
(I2
F0.0728
tp1278
a(lp1279
(I0
F0.0294
tp1280
a(lp1281
(I0
F-0.0047
tp1282
a(lp1283
(I3
F0.0493
tp1284
a(lp1285
(I2
F-0.0407
tp1286
a(F768.0
F26.0
tp1287
a(lp1288
(I1
F-0.0077
tp1289
a(lp1290
(I3
F-0.0117
tp1291
a(F922.0
F16.0
tp1292
a(F1478.0
F8.0
tp1293
aa(F789.0
F18.0
tp1294
aaa(F1245.0
F55.0
tp1295
aa(lp1296
(I3
F0.036
tp1297
a(lp1298
(I2
F0.0105
tp1299
a(lp1300
(I2
F-0.0012
tp1301
a(F807.0
F31.0
tp1302
a(F777.0
F6.0
tp1303
aa(lp1304
(I2
F0.0218
tp1305
a(F799.0
F39.0
tp1306
a(F987.0
F37.0
tp1307
aaa(lp1308
(I1
F0.0137
tp1309
a(F854.0
F55.0
tp1310
a(F750.0
F63.0
tp1311
aaaa(lp1312
(I2
F0.0588
tp1313
a(lp1314
(I3
F0.0501
tp1315
a(lp1316
(I0
F0.0393
tp1317
a(F854.0
F34.0
tp1318
a(F1440.0
F105.0
tp1319
aa(F1239.0
F159.0
tp1320
aa(F817.0
F112.0
tp1321
aaa(lp1322
(I3
F0.0871
tp1323
a(F1153.0
F252.0
tp1324
a(F773.0
F211.0
tp1325
aaa(lp1326
(I2
F0.1355
tp1327
a(lp1328
(I0
F0.0912
tp1329
a(lp1330
(I3
F0.0804
tp1331
a(lp1332
(I2
F0.0699
tp1333
a(lp1334
(I3
F0.0321
tp1335
a(F883.0
F72.0
tp1336
a(F710.0
F98.0
tp1337
aa(F772.0
F144.0
tp1338
aa(F913.0
F246.0
tp1339
aa(lp1340
(I3
F0.081
tp1341
a(lp1342
(I0
F0.1084
tp1343
a(F632.0
F169.0
tp1344
a(F714.0
F158.0
tp1345
aa(lp1346
(I1
F0.1075
tp1347
a(F633.0
F299.0
tp1348
a(F752.0
F228.0
tp1349
aaaa(F589.0
F454.0
tp1350
aaa(lp1351
(I2
F0.2072
tp1352
a(lp1353
(I0
F0.1073
tp1354
a(F1092.0
F254.0
tp1355
a(lp1356
(I0
F0.1778
tp1357
a(lp1358
(I1
F0.1728
tp1359
a(lp1360
(I3
F0.075
tp1361
a(F791.0
F253.0
tp1362
a(lp1363
(I1
F0.143
tp1364
a(F525.0
F314.0
tp1365
a(F863.0
F442.0
tp1366
aaa(F630.0
F349.0
tp1367
aa(lp1368
(I1
F0.2013
tp1369
a(F575.0
F376.0
tp1370
a(F400.0
F394.0
tp1371
aaaa(lp1372
(I3
F0.2092
tp1373
a(F709.0
F860.0
tp1374
a(F272.0
F1216.0
tp1375
aaaa(lp1376
(I2
F0.1252
tp1377
a(lp1378
(I2
F0.0571
tp1379
a(lp1380
(I1
F0.0864
tp1381
a(lp1382
(I3
F0.0647
tp1383
a(lp1384
(I0
F0.0186
tp1385
a(lp1386
(I2
F-0.0145
tp1387
a(lp1388
(I0
F-0.0335
tp1389
a(F1134.0
F13.0
tp1390
a(F1349.0
F26.0
tp1391
aa(lp1392
(I2
F0.0151
tp1393
a(lp1394
(I3
F0.0199
tp1395
a(lp1396
(I3
F0.0017
tp1397
a(F1308.0
F22.0
tp1398
a(F774.0
F22.0
tp1399
aa(F755.0
F42.0
tp1400
aa(F1516.0
F26.0
tp1401
aaa(lp1402
(I3
F-0.0058
tp1403
a(F719.0
F67.0
tp1404
a(lp1405
(I2
F0.0267
tp1406
a(F1326.0
F49.0
tp1407
a(lp1408
(I0
F0.0499
tp1409
a(lp1410
(I3
F0.0372
tp1411
a(F1002.0
F56.0
tp1412
a(F778.0
F77.0
tp1413
aa(F724.0
F38.0
tp1414
aaaaa(lp1415
(I1
F0.0188
tp1416
a(lp1417
(I1
F-0.0204
tp1418
a(F791.0
F25.0
tp1419
a(F717.0
F65.0
tp1420
aa(F1058.0
F163.0
tp1421
aaa(lp1422
(I0
F0.0897
tp1423
a(F1200.0
F148.0
tp1424
a(F664.0
F206.0
tp1425
aaa(lp1426
(I1
F0.1233
tp1427
a(lp1428
(I3
F0.081
tp1429
a(lp1430
(I1
F0.1
tp1431
a(lp1432
(I1
F0.0405
tp1433
a(F795.0
F163.0
tp1434
a(lp1435
(I3
F0.0461
tp1436
a(F1003.0
F180.0
tp1437
a(F1363.0
F156.0
tp1438
aaa(F654.0
F162.0
tp1439
aa(lp1440
(I1
F0.0629
tp1441
a(F759.0
F171.0
tp1442
a(lp1443
(I2
F0.1066
tp1444
a(F1238.0
F363.0
tp1445
a(F574.0
F195.0
tp1446
aaaa(lp1447
(I0
F0.1254
tp1448
a(F917.0
F308.0
tp1449
a(F692.0
F362.0
tp1450
aaaa(lp1451
(I1
F0.2181
tp1452
a(lp1453
(I2
F0.1786
tp1454
a(lp1455
(I1
F0.1706
tp1456
a(lp1457
(I1
F0.0882
tp1458
a(F563.0
F217.0
tp1459
a(lp1460
(I2
F0.1457
tp1461
a(F1101.0
F472.0
tp1462
a(F945.0
F532.0
tp1463
aaa(F483.0
F333.0
tp1464
aa(lp1465
(I1
F0.1523
tp1466
a(F451.0
F332.0
tp1467
a(F686.0
F770.0
tp1468
aaa(lp1469
(I3
F0.223
tp1470
a(F694.0
F862.0
tp1471
a(F175.0
F929.0
tp1472
aaaa(lp1473
(I2
F0.1359
tp1474
a(lp1475
(I2
F0.0687
tp1476
a(lp1477
(I1
F0.088
tp1478
a(lp1479
(I1
F0.0172
tp1480
a(lp1481
(I3
F0.0493
tp1482
a(lp1483
(I2
F0.0293
tp1484
a(lp1485
(I0
F0.0106
tp1486
a(lp1487
(I1
F-0.0419
tp1488
a(F1308.0
F31.0
tp1489
a(lp1490
(I2
F-0.014
tp1491
a(F1273.0
F8.0
tp1492
a(lp1493
(I3
F0.0118
tp1494
a(F1275.0
F17.0
tp1495
a(F804.0
F24.0
tp1496
aaaa(F1081.0
F34.0
tp1497
aa(F879.0
F43.0
tp1498
aa(lp1499
(I3
F0.0815
tp1500
a(F876.0
F76.0
tp1501
a(F1244.0
F58.0
tp1502
aaa(lp1503
(I3
F0.07
tp1504
a(lp1505
(I0
F0.0601
tp1506
a(lp1507
(I1
F0.0246
tp1508
a(F763.0
F66.0
tp1509
a(lp1510
(I0
F0.0349
tp1511
a(lp1512
(I1
F0.0408
tp1513
a(F955.0
F42.0
tp1514
a(F794.0
F46.0
tp1515
aa(lp1516
(I2
F0.0454
tp1517
a(F1031.0
F89.0
tp1518
a(F895.0
F49.0
tp1519
aaaa(F1033.0
F124.0
tp1520
aa(F1334.0
F207.0
tp1521
aaa(lp1522
(I0
F0.1043
tp1523
a(lp1524
(I3
F0.0269
tp1525
a(F924.0
F91.0
tp1526
a(F637.0
F148.0
tp1527
aa(F615.0
F223.0
tp1528
aaa(lp1529
(I1
F0.1328
tp1530
a(lp1531
(I0
F0.0915
tp1532
a(lp1533
(I3
F0.0693
tp1534
a(F1375.0
F228.0
tp1535
a(lp1536
(I0
F0.0696
tp1537
a(F690.0
F161.0
tp1538
a(F772.0
F227.0
tp1539
aaa(lp1540
(I0
F0.124
tp1541
a(lp1542
(I1
F0.0972
tp1543
a(F724.0
F263.0
tp1544
a(lp1545
(I2
F0.1094
tp1546
a(F748.0
F190.0
tp1547
a(F665.0
F193.0
tp1548
aaa(F622.0
F239.0
tp1549
aaa(lp1550
(I3
F0.0864
tp1551
a(F885.0
F339.0
tp1552
a(F485.0
F294.0
tp1553
aaaa(lp1554
(I2
F0.2073
tp1555
a(lp1556
(I3
F0.0904
tp1557
a(F1045.0
F503.0
tp1558
a(lp1559
(I3
F0.1535
tp1560
a(lp1561
(I0
F0.1546
tp1562
a(F514.0
F291.0
tp1563
a(F448.0
F357.0
tp1564
aa(lp1565
(I2
F0.1755
tp1566
a(F507.0
F398.0
tp1567
a(F393.0
F384.0
tp1568
aaaa(lp1569
(I2
F0.37
tp1570
a(lp1571
(I2
F0.2499
tp1572
a(F492.0
F658.0
tp1573
a(F527.0
F913.0
tp1574
aa(F138.0
F695.0
tp1575
aaaa(lp1576
(I0
F0.1456
tp1577
a(lp1578
(I0
F0.0655
tp1579
a(lp1580
(I0
F0.0118
tp1581
a(lp1582
(I1
F0.0218
tp1583
a(lp1584
(I2
F0.0347
tp1585
a(lp1586
(I3
F0.0264
tp1587
a(lp1588
(I1
F-0.0123
tp1589
a(lp1590
(I0
F-0.0314
tp1591
a(F1193.0
F26.0
tp1592
a(F1560.0
F8.0
tp1593
aa(lp1594
(I0
F-0.0037
tp1595
a(F751.0
F24.0
tp1596
a(F747.0
F19.0
tp1597
aaa(lp1598
(I3
F0.0702
tp1599
a(F1063.0
F49.0
tp1600
a(F945.0
F28.0
tp1601
aaa(F733.0
F52.0
tp1602
aa(F1171.0
F87.0
tp1603
aa(lp1604
(I2
F0.0767
tp1605
a(lp1606
(I3
F0.0813
tp1607
a(lp1608
(I3
F0.0372
tp1609
a(lp1610
(I0
F0.0401
tp1611
a(lp1612
(I1
F0.0158
tp1613
a(F975.0
F30.0
tp1614
a(lp1615
(I2
F0.0272
tp1616
a(F1016.0
F74.0
tp1617
a(F790.0
F38.0
tp1618
aaa(F1399.0
F95.0
tp1619
aa(lp1620
(I2
F0.0516
tp1621
a(lp1622
(I1
F0.0403
tp1623
a(F1017.0
F66.0
tp1624
a(F705.0
F66.0
tp1625
aa(F867.0
F102.0
tp1626
aaa(F1024.0
F156.0
tp1627
aa(F798.0
F251.0
tp1628
aaa(lp1629
(I2
F0.1368
tp1630
a(lp1631
(I3
F0.0806
tp1632
a(lp1633
(I1
F0.1103
tp1634
a(lp1635
(I0
F0.0761
tp1636
a(F894.0
F115.0
tp1637
a(lp1638
(I3
F0.03
tp1639
a(F669.0
F107.0
tp1640
a(F1073.0
F221.0
tp1641
aaa(lp1642
(I3
F0.036
tp1643
a(F712.0
F148.0
tp1644
a(F826.0
F250.0
tp1645
aaa(lp1646
(I1
F0.0892
tp1647
a(F1035.0
F256.0
tp1648
a(lp1649
(I3
F0.1059
tp1650
a(F797.0
F260.0
tp1651
a(lp1652
(I1
F0.1214
tp1653
a(F662.0
F231.0
tp1654
a(F559.0
F279.0
tp1655
aaaaa(F902.0
F535.0
tp1656
aaa(lp1657
(I2
F0.1905
tp1658
a(lp1659
(I0
F0.1916
tp1660
a(lp1661
(I3
F0.0784
tp1662
a(F850.0
F263.0
tp1663
a(lp1664
(I2
F0.1657
tp1665
a(F824.0
F487.0
tp1666
a(F474.0
F330.0
tp1667
aaa(F458.0
F436.0
tp1668
aa(lp1669
(I3
F0.2093
tp1670
a(lp1671
(I3
F0.0744
tp1672
a(F477.0
F463.0
tp1673
a(F530.0
F694.0
tp1674
aa(lp1675
(I2
F0.2955
tp1676
a(F297.0
F554.0
tp1677
a(F103.0
F764.0
tp1678
aaaaa(lp1679
(I2
F0.1228
tp1680
a(lp1681
(I1
F0.0721
tp1682
a(lp1683
(I0
F0.0364
tp1684
a(lp1685
(I2
F0.0538
tp1686
a(lp1687
(I3
F0.0198
tp1688
a(lp1689
(I0
F-0.0047
tp1690
a(lp1691
(I0
F-0.0304
tp1692
a(F1326.0
F34.0
tp1693
a(lp1694
(I0
F-0.0157
tp1695
a(F911.0
F3.0
tp1696
a(F896.0
F8.0
tp1697
aaa(lp1698
(I2
F0.02
tp1699
a(lp1700
(I2
F0.0019
tp1701
a(F879.0
F34.0
tp1702
a(F997.0
F24.0
tp1703
aa(F793.0
F40.0
tp1704
aaa(lp1705
(I1
F0.0161
tp1706
a(lp1707
(I3
F0.0408
tp1708
a(F1207.0
F32.0
tp1709
a(lp1710
(I0
F-0.006
tp1711
a(F1141.0
F33.0
tp1712
a(F826.0
F52.0
tp1713
aaa(lp1714
(I0
F0.0243
tp1715
a(F832.0
F75.0
tp1716
a(F731.0
F33.0
tp1717
aaaa(F798.0
F103.0
tp1718
aa(lp1719
(I2
F0.0725
tp1720
a(lp1721
(I3
F0.0744
tp1722
a(lp1723
(I0
F0.0644
tp1724
a(lp1725
(I3
F0.0503
tp1726
a(lp1727
(I1
F0.0417
tp1728
a(F822.0
F54.0
tp1729
a(F826.0
F43.0
tp1730
aa(F738.0
F73.0
tp1731
aa(F698.0
F80.0
tp1732
aa(F760.0
F119.0
tp1733
aa(F1087.0
F268.0
tp1734
aaa(lp1735
(I0
F0.128
tp1736
a(lp1737
(I2
F0.0583
tp1738
a(lp1739
(I1
F0.131
tp1740
a(F1327.0
F132.0
tp1741
a(F666.0
F109.0
tp1742
aa(lp1743
(I3
F0.0997
tp1744
a(lp1745
(I2
F0.0893
tp1746
a(lp1747
(I1
F0.0972
tp1748
a(F868.0
F128.0
tp1749
a(F743.0
F179.0
tp1750
aa(lp1751
(I3
F0.0647
tp1752
a(F614.0
F181.0
tp1753
a(F752.0
F171.0
tp1754
aaa(F1106.0
F405.0
tp1755
aaa(lp1756
(I3
F0.0438
tp1757
a(F555.0
F219.0
tp1758
a(F536.0
F282.0
tp1759
aaaa(lp1760
(I1
F0.2208
tp1761
a(lp1762
(I2
F0.1946
tp1763
a(lp1764
(I3
F0.089
tp1765
a(lp1766
(I3
F0.0335
tp1767
a(F658.0
F225.0
tp1768
a(F740.0
F312.0
tp1769
aa(lp1770
(I2
F0.1359
tp1771
a(F630.0
F300.0
tp1772
a(lp1773
(I3
F0.1535
tp1774
a(F917.0
F578.0
tp1775
a(F748.0
F617.0
tp1776
aaaa(lp1777
(I0
F0.2033
tp1778
a(F344.0
F451.0
tp1779
a(F422.0
F377.0
tp1780
aaa(lp1781
(I2
F0.3697
tp1782
a(lp1783
(I0
F0.253
tp1784
a(F337.0
F478.0
tp1785
a(F403.0
F741.0
tp1786
aa(F116.0
F717.0
tp1787
aaaa(lp1788
(I2
F0.1368
tp1789
a(lp1790
(I2
F0.0716
tp1791
a(lp1792
(I1
F0.0872
tp1793
a(lp1794
(I0
F0.0231
tp1795
a(lp1796
(I3
F0.0166
tp1797
a(lp1798
(I3
F-0.0049
tp1799
a(lp1800
(I2
F-0.0011
tp1801
a(lp1802
(I3
F-0.02
tp1803
a(F1262.0
F12.0
tp1804
a(F836.0
F16.0
tp1805
aa(F764.0
F21.0
tp1806
aa(lp1807
(I1
F-0.0112
tp1808
a(F953.0
F11.0
tp1809
a(F1169.0
F48.0
tp1810
aaa(lp1811
(I1
F0.0185
tp1812
a(lp1813
(I1
F-0.0066
tp1814
a(lp1815
(I2
F-0.0059
tp1816
a(F1073.0
F21.0
tp1817
a(F1185.0
F62.0
tp1818
aa(F1242.0
F68.0
tp1819
aa(F771.0
F68.0
tp1820
aaa(lp1821
(I0
F0.0641
tp1822
a(lp1823
(I1
F0.0602
tp1824
a(lp1825
(I2
F0.0436
tp1826
a(lp1827
(I0
F0.0295
tp1828
a(F783.0
F58.0
tp1829
a(lp1830
(I3
F0.0252
tp1831
a(F776.0
F25.0
tp1832
a(F1104.0
F81.0
tp1833
aaa(lp1834
(I0
F0.0469
tp1835
a(F707.0
F88.0
tp1836
a(F862.0
F60.0
tp1837
aaa(F886.0
F103.0
tp1838
aa(lp1839
(I2
F0.0549
tp1840
a(F698.0
F92.0
tp1841
a(F707.0
F98.0
tp1842
aaaa(lp1843
(I0
F0.0981
tp1844
a(lp1845
(I0
F0.0506
tp1846
a(F764.0
F96.0
tp1847
a(F842.0
F136.0
tp1848
aa(F772.0
F256.0
tp1849
aaa(lp1850
(I2
F0.1094
tp1851
a(lp1852
(I0
F0.093
tp1853
a(lp1854
(I3
F0.0764
tp1855
a(F1315.0
F228.0
tp1856
a(F1150.0
F308.0
tp1857
aa(lp1858
(I1
F0.1203
tp1859
a(F1137.0
F318.0
tp1860
a(F676.0
F303.0
tp1861
aaa(lp1862
(I1
F0.1332
tp1863
a(lp1864
(I1
F0.1153
tp1865
a(F953.0
F345.0
tp1866
a(F668.0
F179.0
tp1867
aa(F685.0
F389.0
tp1868
aaaa(lp1869
(I3
F0.2093
tp1870
a(lp1871
(I1
F0.2021
tp1872
a(lp1873
(I3
F0.1465
tp1874
a(lp1875
(I2
F0.1799
tp1876
a(lp1877
(I3
F0.089
tp1878
a(F776.0
F287.0
tp1879
a(F728.0
F398.0
tp1880
aa(F468.0
F321.0
tp1881
aa(F803.0
F651.0
tp1882
aa(lp1883
(I0
F0.2669
tp1884
a(F427.0
F572.0
tp1885
a(F356.0
F415.0
tp1886
aaa(lp1887
(I1
F0.2451
tp1888
a(F466.0
F571.0
tp1889
a(F100.0
F891.0
tp1890
aaaa(lp1891
(I1
F0.1139
tp1892
a(lp1893
(I2
F0.073
tp1894
a(lp1895
(I0
F0.0394
tp1896
a(lp1897
(I2
F0.0387
tp1898
a(lp1899
(I1
F0.0143
tp1900
a(lp1901
(I0
F0.0065
tp1902
a(lp1903
(I1
F-0.0101
tp1904
a(lp1905
(I3
F0.0407
tp1906
a(lp1907
(I2
F-0.0335
tp1908
a(F823.0
F17.0
tp1909
a(lp1910
(I3
F-0.0084
tp1911
a(F938.0
F4.0
tp1912
a(F1234.0
F11.0
tp1913
aaa(F1057.0
F38.0
tp1914
aa(F1502.0
F45.0
tp1915
aa(lp1916
(I2
F0.0131
tp1917
a(F768.0
F39.0
tp1918
a(F852.0
F20.0
tp1919
aaa(lp1920
(I3
F0.0372
tp1921
a(lp1922
(I0
F0.0244
tp1923
a(F1312.0
F71.0
tp1924
a(F844.0
F21.0
tp1925
aa(F933.0
F70.0
tp1926
aaa(F1399.0
F122.0
tp1927
aa(lp1928
(I0
F0.0765
tp1929
a(lp1930
(I3
F0.0777
tp1931
a(lp1932
(I0
F0.0469
tp1933
a(F784.0
F85.0
tp1934
a(lp1935
(I3
F0.0524
tp1936
a(lp1937
(I1
F0.0572
tp1938
a(F829.0
F62.0
tp1939
a(F784.0
F80.0
tp1940
aa(F816.0
F44.0
tp1941
aaa(F693.0
F129.0
tp1942
aa(F918.0
F162.0
tp1943
aaa(lp1944
(I2
F0.1246
tp1945
a(lp1946
(I3
F0.0771
tp1947
a(lp1948
(I0
F0.0924
tp1949
a(F1248.0
F200.0
tp1950
a(F646.0
F144.0
tp1951
aa(lp1952
(I1
F0.0665
tp1953
a(F652.0
F152.0
tp1954
a(lp1955
(I2
F0.0985
tp1956
a(F602.0
F232.0
tp1957
a(F648.0
F202.0
tp1958
aaaa(lp1959
(I1
F0.0658
tp1960
a(F622.0
F197.0
tp1961
a(F570.0
F367.0
tp1962
aaaa(lp1963
(I2
F0.1883
tp1964
a(lp1965
(I2
F0.1357
tp1966
a(lp1967
(I2
F0.0475
tp1968
a(F1009.0
F189.0
tp1969
a(lp1970
(I1
F0.1737
tp1971
a(lp1972
(I3
F0.0707
tp1973
a(F1056.0
F285.0
tp1974
a(lp1975
(I1
F0.1287
tp1976
a(F653.0
F213.0
tp1977
a(F654.0
F335.0
tp1978
aaa(F621.0
F336.0
tp1979
aaa(lp1980
(I0
F0.1769
tp1981
a(lp1982
(I0
F0.1583
tp1983
a(lp1984
(I3
F0.1247
tp1985
a(F530.0
F264.0
tp1986
a(F476.0
F376.0
tp1987
aa(F574.0
F305.0
tp1988
aa(F411.0
F365.0
tp1989
aaa(lp1990
(I3
F0.2119
tp1991
a(lp1992
(I3
F0.0892
tp1993
a(F529.0
F490.0
tp1994
a(F490.0
F640.0
tp1995
aa(lp1996
(I1
F0.2696
tp1997
a(F257.0
F537.0
tp1998
a(F86.0
F791.0
tp1999
aaaaa(lp2000
(I0
F0.1309
tp2001
a(lp2002
(I1
F0.0569
tp2003
a(lp2004
(I3
F0.0574
tp2005
a(lp2006
(I2
F0.06
tp2007
a(lp2008
(I0
F0.0183
tp2009
a(lp2010
(I1
F0.0156
tp2011
a(lp2012
(I1
F-0.0123
tp2013
a(lp2014
(I2
F-0.0052
tp2015
a(lp2016
(I2
F-0.0276
tp2017
a(F1128.0
F25.0
tp2018
a(F1097.0
F4.0
tp2019
aa(F1171.0
F27.0
tp2020
aa(lp2021
(I1
F0.0027
tp2022
a(F1230.0
F47.0
tp2023
a(F1021.0
F18.0
tp2024
aaa(F918.0
F46.0
tp2025
aa(lp2026
(I1
F0.0149
tp2027
a(F877.0
F37.0
tp2028
a(lp2029
(I3
F0.0217
tp2030
a(F1157.0
F71.0
tp2031
a(F1435.0
F119.0
tp2032
aaaa(F923.0
F163.0
tp2033
aa(lp2034
(I1
F0.0376
tp2035
a(lp2036
(I2
F0.0573
tp2037
a(lp2038
(I2
F-0.0052
tp2039
a(F799.0
F32.0
tp2040
a(F1408.0
F108.0
tp2041
aa(F692.0
F148.0
tp2042
aa(F893.0
F210.0
tp2043
aaa(lp2044
(I0
F0.093
tp2045
a(lp2046
(I2
F0.0814
tp2047
a(lp2048
(I1
F0.1185
tp2049
a(lp2050
(I3
F0.0739
tp2051
a(lp2052
(I3
F0.0364
tp2053
a(F1242.0
F128.0
tp2054
a(F1227.0
F85.0
tp2055
aa(F742.0
F151.0
tp2056
aa(F929.0
F162.0
tp2057
aa(lp2058
(I2
F0.095
tp2059
a(F617.0
F170.0
tp2060
a(F661.0
F257.0
tp2061
aaa(lp2062
(I2
F0.1291
tp2063
a(lp2064
(I2
F0.0804
tp2065
a(F654.0
F146.0
tp2066
a(lp2067
(I0
F0.1104
tp2068
a(F1066.0
F387.0
tp2069
a(F1188.0
F365.0
tp2070
aaa(F505.0
F322.0
tp2071
aaaa(lp2072
(I2
F0.1901
tp2073
a(lp2074
(I1
F0.1977
tp2075
a(lp2076
(I3
F0.0796
tp2077
a(lp2078
(I3
F0.035
tp2079
a(F738.0
F194.0
tp2080
a(F664.0
F260.0
tp2081
aa(lp2082
(I2
F0.1591
tp2083
a(lp2084
(I3
F0.133
tp2085
a(F685.0
F342.0
tp2086
a(F527.0
F298.0
tp2087
aa(F682.0
F469.0
tp2088
aaa(F451.0
F438.0
tp2089
aa(lp2090
(I3
F0.2318
tp2091
a(lp2092
(I3
F0.0806
tp2093
a(F521.0
F487.0
tp2094
a(F609.0
F851.0
tp2095
aa(F309.0
F1127.0
tp2096
aaaa(lp2097
(I2
F0.1369
tp2098
a(lp2099
(I1
F0.0708
tp2100
a(lp2101
(I2
F0.0563
tp2102
a(lp2103
(I2
F0.0267
tp2104
a(lp2105
(I0
F0.0131
tp2106
a(lp2107
(I3
F0.0132
tp2108
a(lp2109
(I2
F0.0018
tp2110
a(lp2111
(I0
F-0.0145
tp2112
a(lp2113
(I1
F-0.0419
tp2114
a(F789.0
F16.0
tp2115
a(F1167.0
F6.0
tp2116
aa(F1144.0
F30.0
tp2117
aa(F892.0
F5.0
tp2118
aa(lp2119
(I0
F-0.0033
tp2120
a(lp2121
(I3
F0.0586
tp2122
a(F975.0
F22.0
tp2123
a(F925.0
F34.0
tp2124
aa(F922.0
F47.0
tp2125
aaa(lp2126
(I2
F0.0185
tp2127
a(lp2128
(I1
F0.0208
tp2129
a(F860.0
F72.0
tp2130
a(F849.0
F48.0
tp2131
aa(F878.0
F34.0
tp2132
aaa(lp2133
(I3
F0.0507
tp2134
a(lp2135
(I3
F0.009
tp2136
a(F749.0
F55.0
tp2137
a(lp2138
(I2
F0.0389
tp2139
a(F877.0
F65.0
tp2140
a(F965.0
F33.0
tp2141
aaa(F1420.0
F149.0
tp2142
aaa(lp2143
(I0
F0.0358
tp2144
a(F811.0
F86.0
tp2145
a(lp2146
(I2
F0.0736
tp2147
a(F1152.0
F161.0
tp2148
a(F1106.0
F280.0
tp2149
aaaa(lp2150
(I2
F0.0832
tp2151
a(lp2152
(I3
F0.0672
tp2153
a(lp2154
(I0
F0.0937
tp2155
a(lp2156
(I1
F0.114
tp2157
a(F1398.0
F136.0
tp2158
a(F867.0
F133.0
tp2159
aa(F982.0
F283.0
tp2160
aa(F1015.0
F259.0
tp2161
aa(lp2162
(I1
F0.1299
tp2163
a(lp2164
(I0
F0.0922
tp2165
a(F731.0
F175.0
tp2166
a(lp2167
(I3
F0.081
tp2168
a(F819.0
F210.0
tp2169
a(lp2170
(I2
F0.1154
tp2171
a(F690.0
F266.0
tp2172
a(F581.0
F201.0
tp2173
aaaa(lp2174
(I0
F0.131
tp2175
a(F618.0
F259.0
tp2176
a(F695.0
F389.0
tp2177
aaaaa(lp2178
(I2
F0.205
tp2179
a(lp2180
(I1
F0.1923
tp2181
a(lp2182
(I2
F0.159
tp2183
a(lp2184
(I1
F0.1399
tp2185
a(F600.0
F363.0
tp2186
a(F672.0
F291.0
tp2187
aa(lp2188
(I1
F0.1478
tp2189
a(F476.0
F324.0
tp2190
a(F645.0
F526.0
tp2191
aaa(F398.0
F413.0
tp2192
aa(lp2193
(I3
F0.2307
tp2194
a(lp2195
(I0
F0.268
tp2196
a(F529.0
F699.0
tp2197
a(F428.0
F376.0
tp2198
aa(F299.0
F1090.0
tp2199
aaaa(lp2200
(I1
F0.1245
tp2201
a(lp2202
(I2
F0.0724
tp2203
a(lp2204
(I1
F0.0142
tp2205
a(lp2206
(I2
F0.0409
tp2207
a(lp2208
(I3
F0.0408
tp2209
a(lp2210
(I0
F0.0131
tp2211
a(lp2212
(I1
F-0.038
tp2213
a(F1455.0
F41.0
tp2214
a(lp2215
(I3
F0.0062
tp2216
a(lp2217
(I2
F-0.0139
tp2218
a(F921.0
F6.0
tp2219
a(F1088.0
F10.0
tp2220
aa(F1313.0
F24.0
tp2221
aaa(F851.0
F32.0
tp2222
aa(lp2223
(I0
F-0.0039
tp2224
a(F1151.0
F44.0
tp2225
a(F708.0
F47.0
tp2226
aaa(F822.0
F64.0
tp2227
aa(lp2228
(I0
F0.0701
tp2229
a(lp2230
(I3
F0.0658
tp2231
a(lp2232
(I1
F0.0708
tp2233
a(lp2234
(I0
F0.0393
tp2235
a(lp2236
(I0
F0.0302
tp2237
a(lp2238
(I0
F0.0183
tp2239
a(F1222.0
F50.0
tp2240
a(F916.0
F64.0
tp2241
aa(F855.0
F26.0
tp2242
aa(lp2243
(I1
F0.0476
tp2244
a(F895.0
F83.0
tp2245
a(F925.0
F45.0
tp2246
aaa(F852.0
F75.0
tp2247
aa(lp2248
(I3
F0.0944
tp2249
a(F772.0
F91.0
tp2250
a(F734.0
F108.0
tp2251
aaa(lp2252
(I2
F0.0542
tp2253
a(F729.0
F92.0
tp2254
a(F678.0
F126.0
tp2255
aaaa(lp2256
(I2
F0.1248
tp2257
a(lp2258
(I3
F0.0816
tp2259
a(lp2260
(I0
F0.099
tp2261
a(lp2262
(I1
F0.0764
tp2263
a(F847.0
F183.0
tp2264
a(F732.0
F111.0
tp2265
aa(F624.0
F164.0
tp2266
aa(lp2267
(I1
F0.0691
tp2268
a(F649.0
F150.0
tp2269
a(lp2270
(I0
F0.1011
tp2271
a(F751.0
F304.0
tp2272
a(F762.0
F230.0
tp2273
aaaa(lp2274
(I1
F0.0656
tp2275
a(F563.0
F204.0
tp2276
a(F812.0
F522.0
tp2277
aaaa(lp2278
(I2
F0.1898
tp2279
a(lp2280
(I2
F0.0441
tp2281
a(F860.0
F159.0
tp2282
a(lp2283
(I0
F0.1728
tp2284
a(lp2285
(I2
F0.1368
tp2286
a(lp2287
(I2
F0.0861
tp2288
a(F631.0
F196.0
tp2289
a(lp2290
(I3
F0.102
tp2291
a(F910.0
F311.0
tp2292
a(F530.0
F281.0
tp2293
aaa(lp2294
(I2
F0.1583
tp2295
a(F850.0
F433.0
tp2296
a(F499.0
F297.0
tp2297
aaa(F757.0
F613.0
tp2298
aaa(lp2299
(I3
F0.2321
tp2300
a(lp2301
(I0
F0.2677
tp2302
a(F644.0
F865.0
tp2303
a(F404.0
F382.0
tp2304
aa(F232.0
F1083.0
tp2305
aaaa(lp2306
(I2
F0.1189
tp2307
a(lp2308
(I1
F0.0708
tp2309
a(lp2310
(I3
F0.0501
tp2311
a(lp2312
(I0
F0.0364
tp2313
a(lp2314
(I0
F0.0126
tp2315
a(lp2316
(I2
F0.0056
tp2317
a(lp2318
(I3
F-0.0199
tp2319
a(F1293.0
F10.0
tp2320
a(lp2321
(I2
F-0.0119
tp2322
a(F1542.0
F46.0
tp2323
a(F1331.0
F16.0
tp2324
aaa(lp2325
(I2
F0.0165
tp2326
a(F816.0
F32.0
tp2327
a(F987.0
F19.0
tp2328
aaa(lp2329
(I0
F0.0248
tp2330
a(F1396.0
F86.0
tp2331
a(F1306.0
F41.0
tp2332
aaa(lp2333
(I0
F0.0645
tp2334
a(lp2335
(I0
F0.0476
tp2336
a(F817.0
F75.0
tp2337
a(F937.0
F50.0
tp2338
aa(F688.0
F99.0
tp2339
aaa(lp2340
(I0
F0.0375
tp2341
a(lp2342
(I1
F-0.0131
tp2343
a(F1190.0
F54.0
tp2344
a(lp2345
(I2
F0.0325
tp2346
a(F997.0
F73.0
tp2347
a(F729.0
F86.0
tp2348
aaa(lp2349
(I3
F0.0871
tp2350
a(F1333.0
F165.0
tp2351
a(F940.0
F223.0
tp2352
aaaa(lp2353
(I3
F0.0827
tp2354
a(lp2355
(I0
F0.0936
tp2356
a(lp2357
(I2
F0.0522
tp2358
a(lp2359
(I3
F0.0096
tp2360
a(F725.0
F57.0
tp2361
a(F704.0
F82.0
tp2362
aa(lp2363
(I0
F0.0765
tp2364
a(F742.0
F126.0
tp2365
a(F745.0
F162.0
tp2366
aaa(lp2367
(I0
F0.148
tp2368
a(lp2369
(I1
F0.1132
tp2370
a(F714.0
F158.0
tp2371
a(F865.0
F244.0
tp2372
aa(F565.0
F241.0
tp2373
aaa(lp2374
(I3
F0.1202
tp2375
a(lp2376
(I2
F0.0971
tp2377
a(F620.0
F221.0
tp2378
a(F616.0
F274.0
tp2379
aa(F662.0
F214.0
tp2380
aaaa(lp2381
(I2
F0.208
tp2382
a(lp2383
(I0
F0.1779
tp2384
a(lp2385
(I2
F0.1685
tp2386
a(lp2387
(I3
F0.1017
tp2388
a(lp2389
(I2
F0.1374
tp2390
a(F718.0
F215.0
tp2391
a(F730.0
F270.0
tp2392
aa(lp2393
(I0
F0.1461
tp2394
a(lp2395
(I2
F0.135
tp2396
a(F602.0
F298.0
tp2397
a(F455.0
F343.0
tp2398
aa(F681.0
F326.0
tp2399
aaa(F547.0
F372.0
tp2400
aa(F775.0
F710.0
tp2401
aa(lp2402
(I0
F0.37
tp2403
a(lp2404
(I2
F0.2507
tp2405
a(F486.0
F637.0
tp2406
a(F527.0
F846.0
tp2407
aa(F163.0
F645.0
tp2408
aaaa(lp2409
(I1
F0.1262
tp2410
a(lp2411
(I2
F0.0728
tp2412
a(lp2413
(I1
F0.0136
tp2414
a(lp2415
(I3
F0.0408
tp2416
a(lp2417
(I0
F0.0186
tp2418
a(lp2419
(I2
F-0.0053
tp2420
a(lp2421
(I2
F-0.0397
tp2422
a(F796.0
F17.0
tp2423
a(lp2424
(I0
F-0.0157
tp2425
a(F1219.0
F9.0
tp2426
a(F794.0
F13.0
tp2427
aaa(lp2428
(I0
F-0.0023
tp2429
a(F1056.0
F34.0
tp2430
a(F1202.0
F17.0
tp2431
aaa(F757.0
F33.0
tp2432
aa(lp2433
(I0
F-0.006
tp2434
a(F1268.0
F45.0
tp2435
a(F1054.0
F98.0
tp2436
aaa(lp2437
(I2
F0.0591
tp2438
a(lp2439
(I3
F0.064
tp2440
a(lp2441
(I0
F0.0347
tp2442
a(lp2443
(I0
F0.0249
tp2444
a(lp2445
(I0
F0.0073
tp2446
a(F764.0
F33.0
tp2447
a(F1071.0
F83.0
tp2448
aa(F922.0
F40.0
tp2449
aa(lp2450
(I1
F0.0708
tp2451
a(lp2452
(I2
F0.0454
tp2453
a(F1271.0
F119.0
tp2454
a(F783.0
F51.0
tp2455
aa(F889.0
F94.0
tp2456
aaa(F1342.0
F172.0
tp2457
aa(lp2458
(I2
F0.0659
tp2459
a(F747.0
F142.0
tp2460
a(F797.0
F105.0
tp2461
aaaa(lp2462
(I3
F0.1182
tp2463
a(lp2464
(I2
F0.0824
tp2465
a(F981.0
F187.0
tp2466
a(lp2467
(I3
F0.024
tp2468
a(F868.0
F203.0
tp2469
a(lp2470
(I0
F0.1146
tp2471
a(lp2472
(I1
F0.0766
tp2473
a(F658.0
F224.0
tp2474
a(lp2475
(I3
F0.0811
tp2476
a(F674.0
F170.0
tp2477
a(F669.0
F194.0
tp2478
aaa(F606.0
F236.0
tp2479
aaaa(lp2480
(I1
F0.0735
tp2481
a(F643.0
F206.0
tp2482
a(F763.0
F501.0
tp2483
aaaa(lp2484
(I0
F0.1932
tp2485
a(lp2486
(I2
F0.0863
tp2487
a(lp2488
(I3
F0.0241
tp2489
a(F770.0
F101.0
tp2490
a(F629.0
F173.0
tp2491
aa(lp2492
(I0
F0.1763
tp2493
a(lp2494
(I0
F0.1354
tp2495
a(F1050.0
F489.0
tp2496
a(lp2497
(I2
F0.1632
tp2498
a(lp2499
(I0
F0.1483
tp2500
a(F533.0
F318.0
tp2501
a(F788.0
F361.0
tp2502
aa(F455.0
F354.0
tp2503
aaa(F418.0
F381.0
tp2504
aaa(lp2505
(I1
F0.3674
tp2506
a(lp2507
(I3
F0.2129
tp2508
a(lp2509
(I3
F0.0757
tp2510
a(F545.0
F454.0
tp2511
a(F512.0
F633.0
tp2512
aa(F266.0
F808.0
tp2513
aa(F107.0
F695.0
tp2514
aaaa(lp2515
(I2
F0.1337
tp2516
a(lp2517
(I0
F0.0766
tp2518
a(lp2519
(I0
F0.0149
tp2520
a(lp2521
(I2
F0.0387
tp2522
a(lp2523
(I3
F0.0405
tp2524
a(lp2525
(I1
F0.0281
tp2526
a(lp2527
(I0
F-0.0226
tp2528
a(lp2529
(I0
F-0.0417
tp2530
a(F967.0
F14.0
tp2531
a(F972.0
F28.0
tp2532
aa(lp2533
(I1
F-0.014
tp2534
a(F1254.0
F6.0
tp2535
a(lp2536
(I1
F0.0046
tp2537
a(F1146.0
F29.0
tp2538
a(F893.0
F12.0
tp2539
aaaa(F746.0
F41.0
tp2540
aa(lp2541
(I0
F-0.0247
tp2542
a(F784.0
F28.0
tp2543
a(F1019.0
F70.0
tp2544
aaa(F809.0
F77.0
tp2545
aa(lp2546
(I3
F0.0642
tp2547
a(lp2548
(I2
F0.0694
tp2549
a(lp2550
(I2
F0.0267
tp2551
a(lp2552
(I1
F0.0418
tp2553
a(F1374.0
F63.0
tp2554
a(F718.0
F71.0
tp2555
aa(lp2556
(I1
F0.0708
tp2557
a(lp2558
(I2
F0.0481
tp2559
a(lp2560
(I0
F0.0404
tp2561
a(F1268.0
F88.0
tp2562
a(F783.0
F94.0
tp2563
aa(F1118.0
F71.0
tp2564
aa(F797.0
F111.0
tp2565
aaa(F745.0
F121.0
tp2566
aa(lp2567
(I2
F0.0729
tp2568
a(lp2569
(I1
F0.0382
tp2570
a(F745.0
F66.0
tp2571
a(F1136.0
F173.0
tp2572
aa(F670.0
F205.0
tp2573
aaaa(lp2574
(I0
F0.1733
tp2575
a(lp2576
(I3
F0.0928
tp2577
a(lp2578
(I2
F0.1079
tp2579
a(lp2580
(I2
F0.0551
tp2581
a(F796.0
F123.0
tp2582
a(lp2583
(I1
F0.1197
tp2584
a(lp2585
(I0
F0.0914
tp2586
a(F771.0
F122.0
tp2587
a(F808.0
F183.0
tp2588
aa(F709.0
F232.0
tp2589
aaa(F893.0
F298.0
tp2590
aa(lp2591
(I0
F0.1218
tp2592
a(lp2593
(I0
F0.1047
tp2594
a(F854.0
F321.0
tp2595
a(F661.0
F204.0
tp2596
aa(F613.0
F301.0
tp2597
aaa(F513.0
F277.0
tp2598
aaa(lp2599
(I3
F0.2109
tp2600
a(lp2601
(I1
F0.1936
tp2602
a(lp2603
(I2
F0.1736
tp2604
a(lp2605
(I3
F0.085
tp2606
a(F736.0
F261.0
tp2607
a(lp2608
(I2
F0.1471
tp2609
a(F519.0
F366.0
tp2610
a(F806.0
F397.0
tp2611
aaa(F796.0
F611.0
tp2612
aa(lp2613
(I1
F0.2359
tp2614
a(F450.0
F421.0
tp2615
a(F536.0
F646.0
tp2616
aaa(lp2617
(I1
F0.2529
tp2618
a(F442.0
F587.0
tp2619
a(F86.0
F809.0
tp2620
aaaa(lp2621
(I1
F0.1333
tp2622
a(lp2623
(I2
F0.0742
tp2624
a(lp2625
(I0
F0.0349
tp2626
a(lp2627
(I3
F0.027
tp2628
a(lp2629
(I1
F0.0156
tp2630
a(lp2631
(I1
F-0.0101
tp2632
a(lp2633
(I0
F-0.0254
tp2634
a(F1464.0
F31.0
tp2635
a(lp2636
(I3
F-0.0045
tp2637
a(F829.0
F7.0
tp2638
a(F828.0
F9.0
tp2639
aaa(lp2640
(I2
F0.0019
tp2641
a(F838.0
F32.0
tp2642
a(F1053.0
F16.0
tp2643
aaa(lp2644
(I0
F0.0188
tp2645
a(F933.0
F62.0
tp2646
a(F820.0
F32.0
tp2647
aaa(lp2648
(I2
F0.0067
tp2649
a(lp2650
(I0
F-0.0139
tp2651
a(F1017.0
F30.0
tp2652
a(F745.0
F38.0
tp2653
aa(lp2654
(I2
F0.0267
tp2655
a(F1105.0
F76.0
tp2656
a(lp2657
(I0
F0.0208
tp2658
a(F798.0
F85.0
tp2659
a(F709.0
F63.0
tp2660
aaaaa(lp2661
(I1
F0.0907
tp2662
a(lp2663
(I2
F0.0548
tp2664
a(lp2665
(I3
F0.0623
tp2666
a(lp2667
(I2
F0.0303
tp2668
a(F875.0
F41.0
tp2669
a(lp2670
(I2
F0.0423
tp2671
a(F738.0
F74.0
tp2672
a(F895.0
F70.0
tp2673
aaa(F716.0
F97.0
tp2674
aa(lp2675
(I3
F0.0668
tp2676
a(F1104.0
F107.0
tp2677
a(F700.0
F124.0
tp2678
aaa(F925.0
F163.0
tp2679
aaa(lp2680
(I2
F0.1269
tp2681
a(lp2682
(I3
F0.0698
tp2683
a(lp2684
(I1
F0.0812
tp2685
a(F875.0
F147.0
tp2686
a(F980.0
F201.0
tp2687
aa(lp2688
(I1
F0.0702
tp2689
a(F747.0
F200.0
tp2690
a(lp2691
(I3
F0.1073
tp2692
a(F1047.0
F342.0
tp2693
a(F807.0
F359.0
tp2694
aaaa(lp2695
(I2
F0.1612
tp2696
a(F1043.0
F475.0
tp2697
a(F633.0
F399.0
tp2698
aaaa(lp2699
(I0
F0.1974
tp2700
a(lp2701
(I3
F0.0838
tp2702
a(lp2703
(I0
F0.0825
tp2704
a(F759.0
F127.0
tp2705
a(lp2706
(I2
F0.1108
tp2707
a(F803.0
F220.0
tp2708
a(F734.0
F358.0
tp2709
aaa(lp2710
(I0
F0.1663
tp2711
a(lp2712
(I2
F0.1491
tp2713
a(F790.0
F438.0
tp2714
a(F488.0
F351.0
tp2715
aa(F595.0
F585.0
tp2716
aaa(lp2717
(I3
F0.212
tp2718
a(lp2719
(I1
F0.2215
tp2720
a(F429.0
F360.0
tp2721
a(F635.0
F829.0
tp2722
aa(F281.0
F1174.0
tp2723
aaaa(lp2724
(I2
F0.1359
tp2725
a(lp2726
(I2
F0.0731
tp2727
a(lp2728
(I2
F0.0435
tp2729
a(lp2730
(I0
F0.0911
tp2731
a(lp2732
(I1
F0.0143
tp2733
a(lp2734
(I0
F-0.004
tp2735
a(lp2736
(I3
F0.0383
tp2737
a(lp2738
(I3
F0.0075
tp2739
a(lp2740
(I0
F-0.0234
tp2741
a(F1461.0
F34.0
tp2742
a(F1030.0
F9.0
tp2743
aa(F863.0
F6.0
tp2744
aa(F1227.0
F48.0
tp2745
aa(lp2746
(I3
F0.0414
tp2747
a(lp2748
(I3
F0.0089
tp2749
a(F1090.0
F23.0
tp2750
a(F1034.0
F34.0
tp2751
aa(F727.0
F43.0
tp2752
aaa(lp2753
(I1
F0.071
tp2754
a(lp2755
(I1
F0.0254
tp2756
a(F1217.0
F96.0
tp2757
a(lp2758
(I2
F0.0272
tp2759
a(lp2760
(I1
F0.04
tp2761
a(F783.0
F28.0
tp2762
a(F799.0
F34.0
tp2763
aa(F1329.0
F94.0
tp2764
aaa(F1320.0
F121.0
tp2765
aaa(F675.0
F159.0
tp2766
aa(lp2767
(I0
F0.085
tp2768
a(lp2769
(I1
F0.0783
tp2770
a(lp2771
(I0
F0.0394
tp2772
a(F1017.0
F83.0
tp2773
a(lp2774
(I1
F0.0531
tp2775
a(F1106.0
F137.0
tp2776
a(F1105.0
F113.0
tp2777
aaa(F738.0
F129.0
tp2778
aa(F638.0
F192.0
tp2779
aaa(lp2780
(I1
F0.1357
tp2781
a(lp2782
(I0
F0.0838
tp2783
a(lp2784
(I1
F0.0571
tp2785
a(F881.0
F147.0
tp2786
a(F1002.0
F253.0
tp2787
aa(lp2788
(I3
F0.0924
tp2789
a(lp2790
(I3
F0.069
tp2791
a(F1092.0
F307.0
tp2792
a(F662.0
F151.0
tp2793
aa(lp2794
(I3
F0.1216
tp2795
a(F750.0
F335.0
tp2796
a(F740.0
F243.0
tp2797
aaaa(lp2798
(I0
F0.1315
tp2799
a(F605.0
F245.0
tp2800
a(F666.0
F362.0
tp2801
aaaa(lp2802
(I1
F0.2181
tp2803
a(lp2804
(I2
F0.2076
tp2805
a(lp2806
(I1
F0.1
tp2807
a(F567.0
F257.0
tp2808
a(lp2809
(I2
F0.1821
tp2810
a(lp2811
(I3
F0.1103
tp2812
a(F802.0
F375.0
tp2813
a(lp2814
(I2
F0.1546
tp2815
a(F458.0
F354.0
tp2816
a(F607.0
F421.0
tp2817
aaa(F507.0
F412.0
tp2818
aaa(F449.0
F561.0
tp2819
aa(lp2820
(I3
F0.2075
tp2821
a(F617.0
F788.0
tp2822
a(F241.0
F1061.0
tp2823
aaaa(lp2824
(I0
F0.1354
tp2825
a(lp2826
(I2
F0.0743
tp2827
a(lp2828
(I2
F0.0437
tp2829
a(lp2830
(I1
F0.0137
tp2831
a(lp2832
(I0
F-0.0047
tp2833
a(lp2834
(I3
F0.058
tp2835
a(lp2836
(I1
F-0.0451
tp2837
a(F1148.0
F31.0
tp2838
a(lp2839
(I3
F-0.0138
tp2840
a(F855.0
F20.0
tp2841
a(F1566.0
F13.0
tp2842
aaa(F910.0
F35.0
tp2843
aa(lp2844
(I1
F-0.0137
tp2845
a(F748.0
F51.0
tp2846
a(lp2847
(I3
F0.0287
tp2848
a(F1413.0
F52.0
tp2849
a(F827.0
F21.0
tp2850
aaaa(lp2851
(I0
F0.0645
tp2852
a(lp2853
(I1
F0.0569
tp2854
a(lp2855
(I0
F0.0183
tp2856
a(F1254.0
F52.0
tp2857
a(lp2858
(I1
F0.026
tp2859
a(F729.0
F72.0
tp2860
a(lp2861
(I3
F0.0343
tp2862
a(F938.0
F38.0
tp2863
a(F750.0
F63.0
tp2864
aaaa(lp2865
(I1
F0.0904
tp2866
a(F740.0
F79.0
tp2867
a(F767.0
F74.0
tp2868
aaa(F723.0
F109.0
tp2869
aaa(lp2870
(I2
F0.0583
tp2871
a(lp2872
(I3
F0.0392
tp2873
a(F962.0
F77.0
tp2874
a(F1322.0
F188.0
tp2875
aa(lp2876
(I0
F0.0688
tp2877
a(F1322.0
F192.0
tp2878
a(F850.0
F186.0
tp2879
aaaa(lp2880
(I2
F0.1269
tp2881
a(lp2882
(I1
F0.0609
tp2883
a(F1125.0
F224.0
tp2884
a(lp2885
(I1
F0.134
tp2886
a(lp2887
(I0
F0.0929
tp2888
a(lp2889
(I3
F0.0796
tp2890
a(F733.0
F151.0
tp2891
a(F577.0
F206.0
tp2892
aa(lp2893
(I0
F0.1153
tp2894
a(lp2895
(I2
F0.1023
tp2896
a(F627.0
F213.0
tp2897
a(F633.0
F196.0
tp2898
aa(F659.0
F184.0
tp2899
aaa(F564.0
F232.0
tp2900
aaa(lp2901
(I2
F0.1414
tp2902
a(F707.0
F292.0
tp2903
a(F628.0
F349.0
tp2904
aaaa(lp2905
(I3
F0.2092
tp2906
a(lp2907
(I1
F0.2178
tp2908
a(lp2909
(I3
F0.0825
tp2910
a(lp2911
(I2
F0.1531
tp2912
a(F1093.0
F330.0
tp2913
a(F477.0
F292.0
tp2914
aa(lp2915
(I3
F0.171
tp2916
a(lp2917
(I1
F0.1501
tp2918
a(F635.0
F349.0
tp2919
a(F809.0
F563.0
tp2920
aa(F406.0
F369.0
tp2921
aaa(lp2922
(I0
F0.2807
tp2923
a(F390.0
F517.0
tp2924
a(F381.0
F435.0
tp2925
aaa(lp2926
(I0
F0.253
tp2927
a(F350.0
F496.0
tp2928
a(F155.0
F936.0
tp2929
aaaa(lp2930
(I0
F0.1146
tp2931
a(lp2932
(I0
F0.0564
tp2933
a(lp2934
(I2
F0.0575
tp2935
a(lp2936
(I0
F0.0193
tp2937
a(lp2938
(I3
F0.0405
tp2939
a(lp2940
(I1
F0.0159
tp2941
a(lp2942
(I0
F0.0026
tp2943
a(lp2944
(I2
F-0.0387
tp2945
a(F754.0
F21.0
tp2946
a(lp2947
(I3
F0.0015
tp2948
a(lp2949
(I3
F-0.0139
tp2950
a(F1140.0
F19.0
tp2951
a(F839.0
F3.0
tp2952
aa(F1343.0
F27.0
tp2953
aaa(F1187.0
F32.0
tp2954
aa(F1411.0
F88.0
tp2955
aa(lp2956
(I0
F-0.0031
tp2957
a(F1296.0
F60.0
tp2958
a(F825.0
F64.0
tp2959
aaa(lp2960
(I1
F0.0549
tp2961
a(lp2962
(I1
F0.0106
tp2963
a(F814.0
F23.0
tp2964
a(lp2965
(I1
F0.0239
tp2966
a(F735.0
F75.0
tp2967
a(lp2968
(I3
F0.0252
tp2969
a(F790.0
F22.0
tp2970
a(lp2971
(I1
F0.0381
tp2972
a(F798.0
F49.0
tp2973
a(F769.0
F54.0
tp2974
aaaaa(F1197.0
F150.0
tp2975
aaa(lp2976
(I0
F0.0267
tp2977
a(F753.0
F93.0
tp2978
a(F996.0
F216.0
tp2979
aaa(lp2980
(I3
F0.0827
tp2981
a(lp2982
(I2
F0.1027
tp2983
a(lp2984
(I0
F0.0895
tp2985
a(lp2986
(I1
F0.0831
tp2987
a(lp2988
(I0
F0.072
tp2989
a(F1214.0
F92.0
tp2990
a(F730.0
F91.0
tp2991
aa(F966.0
F144.0
tp2992
aa(F970.0
F228.0
tp2993
aa(F651.0
F217.0
tp2994
aa(lp2995
(I2
F0.1094
tp2996
a(lp2997
(I1
F0.0938
tp2998
a(F1048.0
F255.0
tp2999
a(F666.0
F244.0
tp3000
aa(F544.0
F275.0
tp3001
aaaa(lp3002
(I2
F0.1786
tp3003
a(lp3004
(I3
F0.0948
tp3005
a(lp3006
(I0
F0.1775
tp3007
a(lp3008
(I1
F0.1258
tp3009
a(F712.0
F171.0
tp3010
a(lp3011
(I3
F0.056
tp3012
a(F762.0
F242.0
tp3013
a(F601.0
F212.0
tp3014
aaa(F477.0
F306.0
tp3015
aa(lp3016
(I2
F0.1336
tp3017
a(F884.0
F406.0
tp3018
a(lp3019
(I0
F0.1535
tp3020
a(F643.0
F434.0
tp3021
a(F764.0
F425.0
tp3022
aaaa(lp3023
(I1
F0.2222
tp3024
a(lp3025
(I3
F0.1481
tp3026
a(F450.0
F358.0
tp3027
a(F602.0
F670.0
tp3028
aa(lp3029
(I3
F0.2104
tp3030
a(F578.0
F655.0
tp3031
a(F158.0
F972.0
tp3032
aaaaa(lp3033
(I2
F0.136
tp3034
a(lp3035
(I2
F0.0718
tp3036
a(lp3037
(I2
F0.0441
tp3038
a(lp3039
(I3
F0.0252
tp3040
a(lp3041
(I1
F0.071
tp3042
a(lp3043
(I3
F0.0186
tp3044
a(lp3045
(I0
F0.0327
tp3046
a(lp3047
(I1
F-0.0101
tp3048
a(lp3049
(I1
F-0.0465
tp3050
a(F947.0
F20.0
tp3051
a(lp3052
(I0
F-0.0233
tp3053
a(F794.0
F7.0
tp3054
a(F1190.0
F3.0
tp3055
aaa(lp3056
(I0
F-0.0037
tp3057
a(F822.0
F10.0
tp3058
a(lp3059
(I1
F0.0156
tp3060
a(F1007.0
F22.0
tp3061
a(F841.0
F26.0
tp3062
aaaa(F711.0
F42.0
tp3063
aa(F760.0
F39.0
tp3064
aa(F1190.0
F176.0
tp3065
aa(lp3066
(I0
F0.0459
tp3067
a(lp3068
(I1
F0.0146
tp3069
a(lp3070
(I2
F-0.0042
tp3071
a(F1151.0
F32.0
tp3072
a(lp3073
(I1
F-0.0075
tp3074
a(F733.0
F61.0
tp3075
a(F781.0
F26.0
tp3076
aaa(lp3077
(I1
F0.0425
tp3078
a(F1314.0
F105.0
tp3079
a(F685.0
F78.0
tp3080
aaa(F851.0
F122.0
tp3081
aaa(lp3082
(I1
F0.1034
tp3083
a(lp3084
(I2
F0.0543
tp3085
a(lp3086
(I3
F0.0474
tp3087
a(F755.0
F57.0
tp3088
a(F720.0
F79.0
tp3089
aa(lp3090
(I2
F0.0659
tp3091
a(lp3092
(I2
F0.06
tp3093
a(F757.0
F103.0
tp3094
a(F712.0
F114.0
tp3095
aa(F705.0
F82.0
tp3096
aaa(F624.0
F185.0
tp3097
aaa(lp3098
(I1
F0.1339
tp3099
a(lp3100
(I1
F0.0845
tp3101
a(lp3102
(I2
F0.0838
tp3103
a(F981.0
F154.0
tp3104
a(lp3105
(I2
F0.1009
tp3106
a(F739.0
F196.0
tp3107
a(F721.0
F163.0
tp3108
aaa(lp3109
(I0
F0.0935
tp3110
a(F746.0
F182.0
tp3111
a(lp3112
(I3
F0.118
tp3113
a(lp3114
(I2
F0.1126
tp3115
a(F974.0
F325.0
tp3116
a(F612.0
F170.0
tp3117
aa(F558.0
F255.0
tp3118
aaaa(lp3119
(I1
F0.1527
tp3120
a(F561.0
F227.0
tp3121
a(F768.0
F423.0
tp3122
aaaa(lp3123
(I2
F0.2077
tp3124
a(lp3125
(I3
F0.0889
tp3126
a(lp3127
(I2
F0.1595
tp3128
a(F600.0
F201.0
tp3129
a(F513.0
F286.0
tp3130
aa(lp3131
(I2
F0.1789
tp3132
a(lp3133
(I1
F0.138
tp3134
a(F419.0
F352.0
tp3135
a(lp3136
(I0
F0.1595
tp3137
a(F486.0
F310.0
tp3138
a(F460.0
F307.0
tp3139
aaa(F498.0
F498.0
tp3140
aaa(lp3141
(I3
F0.1488
tp3142
a(F637.0
F626.0
tp3143
a(lp3144
(I1
F0.2495
tp3145
a(F359.0
F621.0
tp3146
a(F135.0
F958.0
tp3147
aaaaa(lp3148
(I2
F0.1368
tp3149
a(lp3150
(I0
F0.0841
tp3151
a(lp3152
(I2
F0.0547
tp3153
a(lp3154
(I0
F0.0123
tp3155
a(lp3156
(I1
F-0.0648
tp3157
a(F836.0
F50.0
tp3158
a(lp3159
(I1
F-0.0106
tp3160
a(lp3161
(I2
F-0.0052
tp3162
a(lp3163
(I1
F-0.0376
tp3164
a(F957.0
F21.0
tp3165
a(F1329.0
F5.0
tp3166
aa(F1254.0
F34.0
tp3167
aa(lp3168
(I2
F-0.01
tp3169
a(F1008.0
F52.0
tp3170
a(lp3171
(I1
F0.0156
tp3172
a(F1549.0
F45.0
tp3173
a(F834.0
F40.0
tp3174
aaaaa(lp3175
(I1
F0.0705
tp3176
a(lp3177
(I3
F0.0744
tp3178
a(lp3179
(I3
F0.0372
tp3180
a(lp3181
(I2
F0.0383
tp3182
a(lp3183
(I3
F0.0175
tp3184
a(lp3185
(I3
F-0.0012
tp3186
a(F806.0
F32.0
tp3187
a(F808.0
F25.0
tp3188
aa(F971.0
F56.0
tp3189
aa(F786.0
F52.0
tp3190
aa(lp3191
(I0
F0.0369
tp3192
a(F722.0
F60.0
tp3193
a(F826.0
F52.0
tp3194
aaa(F859.0
F100.0
tp3195
aa(F1174.0
F133.0
tp3196
aaa(lp3197
(I1
F0.0871
tp3198
a(lp3199
(I3
F0.0728
tp3200
a(lp3201
(I1
F0.0377
tp3202
a(F724.0
F114.0
tp3203
a(lp3204
(I2
F0.0685
tp3205
a(F714.0
F72.0
tp3206
a(F736.0
F96.0
tp3207
aaa(lp3208
(I1
F0.0569
tp3209
a(F779.0
F138.0
tp3210
a(F701.0
F158.0
tp3211
aaa(F643.0
F178.0
tp3212
aaa(lp3213
(I3
F0.0809
tp3214
a(lp3215
(I1
F0.1332
tp3216
a(lp3217
(I1
F0.1006
tp3218
a(F1177.0
F216.0
tp3219
a(F962.0
F232.0
tp3220
aa(lp3221
(I0
F0.1476
tp3222
a(F691.0
F217.0
tp3223
a(F516.0
F277.0
tp3224
aaa(lp3225
(I2
F0.1052
tp3226
a(F1015.0
F364.0
tp3227
a(lp3228
(I0
F0.1258
tp3229
a(F920.0
F341.0
tp3230
a(F535.0
F291.0
tp3231
aaaaa(lp3232
(I3
F0.2076
tp3233
a(lp3234
(I0
F0.1763
tp3235
a(lp3236
(I2
F0.1656
tp3237
a(lp3238
(I2
F0.152
tp3239
a(F865.0
F461.0
tp3240
a(F663.0
F268.0
tp3241
aa(F660.0
F473.0
tp3242
aa(lp3243
(I1
F0.2035
tp3244
a(F621.0
F472.0
tp3245
a(lp3246
(I1
F0.2662
tp3247
a(F353.0
F492.0
tp3248
a(F411.0
F411.0
tp3249
aaaa(lp3250
(I1
F0.2466
tp3251
a(F456.0
F608.0
tp3252
a(F108.0
F855.0
tp3253
aaaa(lp3254
(I0
F0.1322
tp3255
a(lp3256
(I2
F0.0583
tp3257
a(lp3258
(I1
F0.0559
tp3259
a(lp3260
(I2
F0.0262
tp3261
a(lp3262
(I1
F0.0137
tp3263
a(lp3264
(I3
F0.0408
tp3265
a(lp3266
(I0
F0.0033
tp3267
a(lp3268
(I1
F-0.0119
tp3269
a(lp3270
(I2
F-0.0364
tp3271
a(F752.0
F18.0
tp3272
a(lp3273
(I3
F-0.0084
tp3274
a(F946.0
F6.0
tp3275
a(F1130.0
F12.0
tp3276
aaa(F990.0
F25.0
tp3277
aa(F1234.0
F37.0
tp3278
aa(lp3279
(I2
F-0.0078
tp3280
a(F798.0
F23.0
tp3281
a(F757.0
F50.0
tp3282
aaa(lp3283
(I1
F0.0338
tp3284
a(F1382.0
F87.0
tp3285
a(F782.0
F25.0
tp3286
aaa(lp3287
(I3
F0.0623
tp3288
a(lp3289
(I0
F0.0381
tp3290
a(lp3291
(I2
F0.0351
tp3292
a(F804.0
F45.0
tp3293
a(F903.0
F40.0
tp3294
aa(F1084.0
F88.0
tp3295
aa(F957.0
F98.0
tp3296
aaa(lp3297
(I1
F0.0991
tp3298
a(lp3299
(I3
F0.0348
tp3300
a(F939.0
F66.0
tp3301
a(F839.0
F114.0
tp3302
aa(F1173.0
F197.0
tp3303
aaa(lp3304
(I2
F0.1229
tp3305
a(lp3306
(I1
F0.0863
tp3307
a(lp3308
(I3
F0.0736
tp3309
a(lp3310
(I2
F0.0788
tp3311
a(F1362.0
F168.0
tp3312
a(F785.0
F160.0
tp3313
aa(lp3314
(I1
F0.0634
tp3315
a(F891.0
F174.0
tp3316
a(F681.0
F215.0
tp3317
aaa(lp3318
(I3
F0.0922
tp3319
a(lp3320
(I3
F0.0397
tp3321
a(F660.0
F136.0
tp3322
a(lp3323
(I1
F0.1148
tp3324
a(F798.0
F162.0
tp3325
a(F624.0
F220.0
tp3326
aaa(F1140.0
F446.0
tp3327
aaa(lp3328
(I2
F0.1436
tp3329
a(F813.0
F335.0
tp3330
a(F548.0
F337.0
tp3331
aaaa(lp3332
(I1
F0.2217
tp3333
a(lp3334
(I2
F0.1686
tp3335
a(lp3336
(I2
F0.0866
tp3337
a(F645.0
F147.0
tp3338
a(lp3339
(I3
F0.0881
tp3340
a(F874.0
F321.0
tp3341
a(lp3342
(I3
F0.1353
tp3343
a(F668.0
F366.0
tp3344
a(F601.0
F428.0
tp3345
aaaa(lp3346
(I2
F0.2122
tp3347
a(lp3348
(I1
F0.1758
tp3349
a(F413.0
F384.0
tp3350
a(F501.0
F370.0
tp3351
aa(F399.0
F470.0
tp3352
aaa(lp3353
(I0
F0.3617
tp3354
a(lp3355
(I0
F0.2581
tp3356
a(F387.0
F551.0
tp3357
a(F359.0
F682.0
tp3358
aa(F123.0
F715.0
tp3359
aaaa(lp3360
(I2
F0.1244
tp3361
a(lp3362
(I2
F0.0559
tp3363
a(lp3364
(I0
F0.0787
tp3365
a(lp3366
(I2
F0.0255
tp3367
a(lp3368
(I1
F0.0569
tp3369
a(lp3370
(I0
F-0.0003
tp3371
a(lp3372
(I3
F0.0493
tp3373
a(lp3374
(I2
F-0.0415
tp3375
a(F797.0
F26.0
tp3376
a(lp3377
(I3
F0.0034
tp3378
a(lp3379
(I0
F-0.0255
tp3380
a(F774.0
F7.0
tp3381
a(F1249.0
F6.0
tp3382
aa(F1201.0
F25.0
tp3383
aaa(F1113.0
F47.0
tp3384
aa(lp3385
(I0
F0.0213
tp3386
a(lp3387
(I3
F0.0122
tp3388
a(F1077.0
F25.0
tp3389
a(F1222.0
F65.0
tp3390
aa(F1290.0
F70.0
tp3391
aaa(F967.0
F98.0
tp3392
aa(lp3393
(I1
F0.0708
tp3394
a(lp3395
(I1
F0.0094
tp3396
a(F1052.0
F43.0
tp3397
a(lp3398
(I1
F0.0476
tp3399
a(lp3400
(I0
F0.0393
tp3401
a(F1392.0
F100.0
tp3402
a(F777.0
F85.0
tp3403
aa(F1007.0
F55.0
tp3404
aaa(F726.0
F104.0
tp3405
aaa(F1066.0
F241.0
tp3406
aa(lp3407
(I1
F0.1237
tp3408
a(lp3409
(I3
F0.0699
tp3410
a(lp3411
(I2
F0.0876
tp3412
a(lp3413
(I0
F0.0767
tp3414
a(lp3415
(I1
F0.0589
tp3416
a(F861.0
F114.0
tp3417
a(F742.0
F53.0
tp3418
aa(F709.0
F115.0
tp3419
aa(F981.0
F227.0
tp3420
aa(lp3421
(I0
F0.0881
tp3422
a(lp3423
(I2
F0.0816
tp3424
a(F1035.0
F192.0
tp3425
a(F665.0
F200.0
tp3426
aa(lp3427
(I1
F0.1052
tp3428
a(F806.0
F309.0
tp3429
a(F649.0
F166.0
tp3430
aaaa(lp3431
(I3
F0.0766
tp3432
a(F1015.0
F371.0
tp3433
a(F589.0
F298.0
tp3434
aaaa(lp3435
(I3
F0.2093
tp3436
a(lp3437
(I2
F0.1788
tp3438
a(lp3439
(I1
F0.1706
tp3440
a(lp3441
(I2
F0.137
tp3442
a(F880.0
F331.0
tp3443
a(lp3444
(I2
F0.1514
tp3445
a(F766.0
F468.0
tp3446
a(F895.0
F427.0
tp3447
aaa(F555.0
F425.0
tp3448
aa(lp3449
(I2
F0.2034
tp3450
a(F559.0
F448.0
tp3451
a(lp3452
(I3
F0.0754
tp3453
a(F502.0
F421.0
tp3454
a(F411.0
F506.0
tp3455
aaaa(lp3456
(I2
F0.2459
tp3457
a(F428.0
F434.0
tp3458
a(F176.0
F1024.0
tp3459
aaaa(lp3460
(I0
F0.134
tp3461
a(lp3462
(I0
F0.0546
tp3463
a(lp3464
(I3
F0.0361
tp3465
a(lp3466
(I2
F0.0522
tp3467
a(lp3468
(I0
F0.0141
tp3469
a(lp3470
(I1
F-0.0112
tp3471
a(lp3472
(I1
F-0.0381
tp3473
a(F1511.0
F30.0
tp3474
a(lp3475
(I0
F-0.0181
tp3476
a(F810.0
F6.0
tp3477
a(F872.0
F3.0
tp3478
aaa(lp3479
(I1
F0.0003
tp3480
a(F780.0
F37.0
tp3481
a(lp3482
(I0
F0.0008
tp3483
a(F1099.0
F25.0
tp3484
a(F929.0
F33.0
tp3485
aaaa(lp3486
(I1
F0.0151
tp3487
a(F762.0
F30.0
tp3488
a(lp3489
(I1
F0.0319
tp3490
a(F769.0
F70.0
tp3491
a(F1387.0
F77.0
tp3492
aaaa(F711.0
F98.0
tp3493
aa(lp3494
(I1
F0.0596
tp3495
a(lp3496
(I3
F0.0503
tp3497
a(F1356.0
F88.0
tp3498
a(lp3499
(I2
F0.0536
tp3500
a(lp3501
(I1
F0.0104
tp3502
a(lp3503
(I1
F-0.0222
tp3504
a(F863.0
F44.0
tp3505
a(F762.0
F46.0
tp3506
aa(F1212.0
F104.0
tp3507
aa(F832.0
F152.0
tp3508
aaa(F652.0
F145.0
tp3509
aaa(lp3510
(I2
F0.127
tp3511
a(lp3512
(I2
F0.0733
tp3513
a(lp3514
(I1
F0.1093
tp3515
a(lp3516
(I3
F0.071
tp3517
a(lp3518
(I3
F0.0236
tp3519
a(F690.0
F97.0
tp3520
a(F1238.0
F122.0
tp3521
aa(F725.0
F131.0
tp3522
aa(F639.0
F167.0
tp3523
aa(lp3524
(I3
F0.083
tp3525
a(lp3526
(I0
F0.0838
tp3527
a(F800.0
F134.0
tp3528
a(lp3529
(I2
F0.0936
tp3530
a(F589.0
F185.0
tp3531
a(F944.0
F203.0
tp3532
aaa(lp3533
(I1
F0.0845
tp3534
a(F638.0
F180.0
tp3535
a(lp3536
(I1
F0.1071
tp3537
a(F564.0
F249.0
tp3538
a(F900.0
F307.0
tp3539
aaaaa(F975.0
F573.0
tp3540
aaa(lp3541
(I1
F0.2215
tp3542
a(lp3543
(I3
F0.1532
tp3544
a(lp3545
(I2
F0.1785
tp3546
a(lp3547
(I3
F0.0809
tp3548
a(lp3549
(I0
F0.1647
tp3550
a(F801.0
F221.0
tp3551
a(F568.0
F228.0
tp3552
aa(lp3553
(I2
F0.1456
tp3554
a(F544.0
F305.0
tp3555
a(F568.0
F264.0
tp3556
aaa(F426.0
F353.0
tp3557
aa(lp3558
(I2
F0.1809
tp3559
a(F581.0
F397.0
tp3560
a(F538.0
F591.0
tp3561
aaa(lp3562
(I1
F0.3584
tp3563
a(lp3564
(I3
F0.1791
tp3565
a(F538.0
F519.0
tp3566
a(F193.0
F687.0
tp3567
aa(F146.0
F647.0
tp3568
aaaa(lp3569
(I2
F0.1187
tp3570
a(lp3571
(I0
F0.0805
tp3572
a(lp3573
(I0
F0.0364
tp3574
a(lp3575
(I2
F0.0597
tp3576
a(lp3577
(I0
F-0.0037
tp3578
a(lp3579
(I1
F0.0127
tp3580
a(lp3581
(I3
F0.0273
tp3582
a(lp3583
(I1
F-0.0343
tp3584
a(F1469.0
F31.0
tp3585
a(lp3586
(I1
F-0.0144
tp3587
a(F1033.0
F2.0
tp3588
a(F797.0
F12.0
tp3589
aaa(lp3590
(I2
F-0.0125
tp3591
a(F827.0
F16.0
tp3592
a(F772.0
F45.0
tp3593
aaa(F743.0
F31.0
tp3594
aa(lp3595
(I3
F0.0406
tp3596
a(lp3597
(I1
F0.0143
tp3598
a(lp3599
(I0
F0.0081
tp3600
a(F925.0
F31.0
tp3601
a(F1192.0
F17.0
tp3602
aa(lp3603
(I3
F0.0043
tp3604
a(F860.0
F38.0
tp3605
a(F1406.0
F90.0
tp3606
aaa(lp3607
(I2
F0.0252
tp3608
a(F930.0
F69.0
tp3609
a(F769.0
F75.0
tp3610
aaaa(F674.0
F118.0
tp3611
aa(lp3612
(I2
F0.082
tp3613
a(lp3614
(I1
F0.0903
tp3615
a(lp3616
(I3
F0.0647
tp3617
a(lp3618
(I1
F0.0614
tp3619
a(lp3620
(I1
F0.0343
tp3621
a(F802.0
F66.0
tp3622
a(F1423.0
F76.0
tp3623
aa(F1034.0
F98.0
tp3624
aa(lp3625
(I3
F0.0886
tp3626
a(F702.0
F110.0
tp3627
a(F688.0
F116.0
tp3628
aaa(F753.0
F138.0
tp3629
aa(F636.0
F185.0
tp3630
aaa(lp3631
(I1
F0.1235
tp3632
a(lp3633
(I2
F0.0734
tp3634
a(F950.0
F145.0
tp3635
a(lp3636
(I2
F0.1007
tp3637
a(lp3638
(I2
F0.0882
tp3639
a(F608.0
F177.0
tp3640
a(F769.0
F192.0
tp3641
aa(F968.0
F326.0
tp3642
aaa(lp3643
(I0
F0.1497
tp3644
a(F1125.0
F409.0
tp3645
a(F519.0
F282.0
tp3646
aaaa(lp3647
(I1
F0.2208
tp3648
a(lp3649
(I2
F0.1786
tp3650
a(lp3651
(I3
F0.0949
tp3652
a(lp3653
(I2
F0.1464
tp3654
a(F913.0
F269.0
tp3655
a(F530.0
F258.0
tp3656
aa(lp3657
(I1
F0.1543
tp3658
a(lp3659
(I3
F0.1345
tp3660
a(F764.0
F332.0
tp3661
a(F747.0
F434.0
tp3662
aa(F648.0
F433.0
tp3663
aaa(lp3664
(I2
F0.2083
tp3665
a(F717.0
F554.0
tp3666
a(F472.0
F551.0
tp3667
aaa(lp3668
(I0
F0.3594
tp3669
a(lp3670
(I2
F0.254
tp3671
a(F321.0
F468.0
tp3672
a(F353.0
F636.0
tp3673
aa(F135.0
F656.0
tp3674
aaaa(lp3675
(I2
F0.1303
tp3676
a(lp3677
(I2
F0.0583
tp3678
a(lp3679
(I0
F0.0981
tp3680
a(lp3681
(I0
F0.0393
tp3682
a(lp3683
(I1
F0.0156
tp3684
a(lp3685
(I3
F0.0408
tp3686
a(lp3687
(I2
F0.0191
tp3688
a(lp3689
(I2
F-0.0089
tp3690
a(lp3691
(I1
F-0.0174
tp3692
a(lp3693
(I1
F-0.0419
tp3694
a(F958.0
F22.0
tp3695
a(F871.0
F2.0
tp3696
aa(F759.0
F32.0
tp3697
aa(lp3698
(I2
F0.0019
tp3699
a(F862.0
F6.0
tp3700
a(F1297.0
F17.0
tp3701
aaa(F987.0
F27.0
tp3702
aa(lp3703
(I3
F0.0908
tp3704
a(F1101.0
F74.0
tp3705
a(F950.0
F37.0
tp3706
aaa(lp3707
(I0
F0.0008
tp3708
a(F879.0
F32.0
tp3709
a(lp3710
(I2
F0.0361
tp3711
a(lp3712
(I3
F0.0375
tp3713
a(lp3714
(I0
F0.0211
tp3715
a(F750.0
F44.0
tp3716
a(F1010.0
F36.0
tp3717
aa(F757.0
F72.0
tp3718
aa(F731.0
F82.0
tp3719
aaaa(lp3720
(I2
F0.0436
tp3721
a(lp3722
(I2
F0.0328
tp3723
a(F1041.0
F105.0
tp3724
a(F798.0
F49.0
tp3725
aa(lp3726
(I2
F0.0504
tp3727
a(F685.0
F104.0
tp3728
a(F877.0
F82.0
tp3729
aaaa(F776.0
F210.0
tp3730
aa(lp3731
(I1
F0.149
tp3732
a(lp3733
(I0
F0.0839
tp3734
a(lp3735
(I2
F0.0821
tp3736
a(lp3737
(I3
F0.075
tp3738
a(lp3739
(I2
F0.0669
tp3740
a(F703.0
F89.0
tp3741
a(F864.0
F90.0
tp3742
aa(F804.0
F150.0
tp3743
aa(F1160.0
F307.0
tp3744
aa(lp3745
(I3
F0.0804
tp3746
a(lp3747
(I0
F0.1071
tp3748
a(F924.0
F202.0
tp3749
a(F870.0
F262.0
tp3750
aa(lp3751
(I3
F0.1217
tp3752
a(lp3753
(I0
F0.1078
tp3754
a(F594.0
F247.0
tp3755
a(F635.0
F219.0
tp3756
aa(F687.0
F224.0
tp3757
aaaa(F866.0
F459.0
tp3758
aaa(lp3759
(I1
F0.2181
tp3760
a(lp3761
(I3
F0.1529
tp3762
a(lp3763
(I1
F0.1706
tp3764
a(lp3765
(I0
F0.1341
tp3766
a(F803.0
F420.0
tp3767
a(lp3768
(I3
F0.1014
tp3769
a(F715.0
F261.0
tp3770
a(F601.0
F288.0
tp3771
aaa(F506.0
F417.0
tp3772
aa(lp3773
(I2
F0.1749
tp3774
a(F621.0
F379.0
tp3775
a(F611.0
F698.0
tp3776
aaa(lp3777
(I3
F0.221
tp3778
a(F666.0
F849.0
tp3779
a(F157.0
F990.0
tp3780
aaaa(lp3781
(I2
F0.1095
tp3782
a(lp3783
(I1
F0.0617
tp3784
a(lp3785
(I0
F0.042
tp3786
a(lp3787
(I2
F0.0531
tp3788
a(lp3789
(I0
F0.0065
tp3790
a(lp3791
(I3
F0.0493
tp3792
a(lp3793
(I2
F-0.0337
tp3794
a(F1083.0
F13.0
tp3795
a(lp3796
(I0
F-0.0041
tp3797
a(lp3798
(I1
F-0.0123
tp3799
a(lp3800
(I0
F-0.0276
tp3801
a(F834.0
F21.0
tp3802
a(F1093.0
F6.0
tp3803
aa(F960.0
F30.0
tp3804
aa(F1080.0
F34.0
tp3805
aaa(F1406.0
F70.0
tp3806
aa(lp3807
(I3
F0.0414
tp3808
a(lp3809
(I1
F0.0146
tp3810
a(F1421.0
F40.0
tp3811
a(lp3812
(I1
F0.031
tp3813
a(F862.0
F75.0
tp3814
a(F909.0
F33.0
tp3815
aaa(F1349.0
F107.0
tp3816
aaa(F884.0
F120.0
tp3817
aa(lp3818
(I2
F0.0668
tp3819
a(lp3820
(I1
F0.0478
tp3821
a(F1369.0
F173.0
tp3822
a(F874.0
F63.0
tp3823
aa(F834.0
F167.0
tp3824
aaa(lp3825
(I0
F0.084
tp3826
a(lp3827
(I3
F0.0777
tp3828
a(lp3829
(I1
F0.1353
tp3830
a(lp3831
(I1
F0.0715
tp3832
a(F771.0
F73.0
tp3833
a(lp3834
(I0
F0.0664
tp3835
a(F848.0
F111.0
tp3836
a(F726.0
F72.0
tp3837
aaa(F696.0
F116.0
tp3838
aa(F853.0
F208.0
tp3839
aa(lp3840
(I3
F0.081
tp3841
a(lp3842
(I3
F0.0118
tp3843
a(F589.0
F182.0
tp3844
a(lp3845
(I1
F0.1145
tp3846
a(F860.0
F148.0
tp3847
a(F831.0
F257.0
tp3848
aaa(F1096.0
F428.0
tp3849
aaaa(lp3850
(I1
F0.2057
tp3851
a(lp3852
(I3
F0.1458
tp3853
a(lp3854
(I2
F0.168
tp3855
a(lp3856
(I3
F0.0977
tp3857
a(lp3858
(I0
F0.135
tp3859
a(F1136.0
F363.0
tp3860
a(F698.0
F320.0
tp3861
aa(lp3862
(I0
F0.1261
tp3863
a(F698.0
F252.0
tp3864
a(F798.0
F473.0
tp3865
aaa(F698.0
F505.0
tp3866
aa(lp3867
(I1
F0.1297
tp3868
a(F530.0
F355.0
tp3869
a(lp3870
(I3
F0.1777
tp3871
a(F456.0
F316.0
tp3872
a(F445.0
F496.0
tp3873
aaaa(lp3874
(I0
F0.3679
tp3875
a(lp3876
(I3
F0.2109
tp3877
a(F788.0
F780.0
tp3878
a(F194.0
F627.0
tp3879
aa(F121.0
F636.0
tp3880
aaaa(lp3881
(I0
F0.1338
tp3882
a(lp3883
(I2
F0.072
tp3884
a(lp3885
(I2
F0.0406
tp3886
a(lp3887
(I3
F0.0359
tp3888
a(lp3889
(I1
F0.062
tp3890
a(lp3891
(I1
F0.0142
tp3892
a(lp3893
(I0
F-0.0392
tp3894
a(F1036.0
F37.0
tp3895
a(lp3896
(I2
F-0.014
tp3897
a(F1421.0
F18.0
tp3898
a(lp3899
(I3
F0.0182
tp3900
a(lp3901
(I1
F-0.0008
tp3902
a(F1374.0
F17.0
tp3903
a(F775.0
F21.0
tp3904
aa(F736.0
F29.0
tp3905
aaaa(lp3906
(I0
F0.0183
tp3907
a(F901.0
F28.0
tp3908
a(F1390.0
F78.0
tp3909
aaa(F1242.0
F107.0
tp3910
aa(lp3911
(I1
F0.0191
tp3912
a(lp3913
(I3
F0.058
tp3914
a(F862.0
F30.0
tp3915
a(lp3916
(I1
F-0.0231
tp3917
a(F758.0
F26.0
tp3918
a(F723.0
F53.0
tp3919
aaa(lp3920
(I0
F0.0349
tp3921
a(F772.0
F82.0
tp3922
a(F721.0
F99.0
tp3923
aaaa(lp3924
(I0
F0.0546
tp3925
a(lp3926
(I2
F0.0544
tp3927
a(lp3928
(I1
F0.0424
tp3929
a(F1020.0
F63.0
tp3930
a(F721.0
F85.0
tp3931
aa(F889.0
F109.0
tp3932
aa(lp3933
(I3
F0.0395
tp3934
a(F799.0
F102.0
tp3935
a(lp3936
(I2
F0.0616
tp3937
a(F710.0
F144.0
tp3938
a(F779.0
F131.0
tp3939
aaaaa(lp3940
(I0
F0.0922
tp3941
a(lp3942
(I2
F0.1106
tp3943
a(lp3944
(I2
F0.0828
tp3945
a(F1117.0
F200.0
tp3946
a(lp3947
(I0
F0.0742
tp3948
a(F609.0
F163.0
tp3949
a(F763.0
F163.0
tp3950
aaa(F706.0
F241.0
tp3951
aa(lp3952
(I2
F0.1307
tp3953
a(lp3954
(I3
F0.0923
tp3955
a(lp3956
(I1
F0.1098
tp3957
a(F709.0
F155.0
tp3958
a(F808.0
F268.0
tp3959
aa(lp3960
(I1
F0.1104
tp3961
a(F549.0
F243.0
tp3962
a(F693.0
F213.0
tp3963
aaa(F522.0
F363.0
tp3964
aaaa(lp3965
(I1
F0.2178
tp3966
a(lp3967
(I3
F0.0683
tp3968
a(lp3969
(I3
F0.0176
tp3970
a(F636.0
F188.0
tp3971
a(F763.0
F326.0
tp3972
aa(lp3973
(I3
F0.1764
tp3974
a(lp3975
(I0
F0.173
tp3976
a(lp3977
(I3
F0.1353
tp3978
a(F833.0
F435.0
tp3979
a(F476.0
F322.0
tp3980
aa(F450.0
F384.0
tp3981
aa(F680.0
F725.0
tp3982
aaa(lp3983
(I3
F0.2195
tp3984
a(lp3985
(I0
F0.2594
tp3986
a(F358.0
F410.0
tp3987
a(F418.0
F565.0
tp3988
aa(F167.0
F951.0
tp3989
aaaa(lp3990
(I1
F0.1129
tp3991
a(lp3992
(I2
F0.0727
tp3993
a(lp3994
(I2
F0.0317
tp3995
a(lp3996
(I1
F0.0617
tp3997
a(lp3998
(I3
F0.0178
tp3999
a(lp4000
(I0
F0.0186
tp4001
a(lp4002
(I1
F-0.0466
tp4003
a(F903.0
F29.0
tp4004
a(lp4005
(I1
F-0.0155
tp4006
a(F1397.0
F8.0
tp4007
a(lp4008
(I2
F-0.01
tp4009
a(F759.0
F30.0
tp4010
a(F1481.0
F18.0
tp4011
aaaa(F1048.0
F59.0
tp4012
aa(lp4013
(I2
F0.0056
tp4014
a(lp4015
(I3
F0.0443
tp4016
a(F815.0
F18.0
tp4017
a(F1182.0
F61.0
tp4018
aa(lp4019
(I3
F0.0553
tp4020
a(lp4021
(I1
F0.0151
tp4022
a(F758.0
F35.0
tp4023
a(F746.0
F53.0
tp4024
aa(F762.0
F76.0
tp4025
aaaa(F709.0
F81.0
tp4026
aa(lp4027
(I0
F0.0361
tp4028
a(lp4029
(I3
F0.0392
tp4030
a(F1013.0
F47.0
tp4031
a(F913.0
F85.0
tp4032
aa(lp4033
(I3
F0.0648
tp4034
a(lp4035
(I1
F0.0727
tp4036
a(lp4037
(I2
F0.0473
tp4038
a(F809.0
F111.0
tp4039
a(F1235.0
F101.0
tp4040
aa(F712.0
F98.0
tp4041
aa(F1168.0
F183.0
tp4042
aaaa(lp4043
(I2
F0.1255
tp4044
a(lp4045
(I3
F0.081
tp4046
a(lp4047
(I2
F0.0875
tp4048
a(F977.0
F151.0
tp4049
a(F1097.0
F223.0
tp4050
aa(lp4051
(I1
F0.0698
tp4052
a(F687.0
F150.0
tp4053
a(F1098.0
F402.0
tp4054
aaa(lp4055
(I3
F0.0925
tp4056
a(F619.0
F220.0
tp4057
a(F531.0
F386.0
tp4058
aaaa(lp4059
(I2
F0.1786
tp4060
a(lp4061
(I2
F0.1382
tp4062
a(lp4063
(I0
F0.0599
tp4064
a(F759.0
F79.0
tp4065
a(lp4066
(I3
F0.1012
tp4067
a(lp4068
(I0
F0.1485
tp4069
a(lp4070
(I2
F0.085
tp4071
a(F806.0
F204.0
tp4072
a(F1145.0
F365.0
tp4073
aa(F620.0
F307.0
tp4074
aa(F948.0
F432.0
tp4075
aaa(lp4076
(I0
F0.1675
tp4077
a(lp4078
(I3
F0.1337
tp4079
a(F665.0
F298.0
tp4080
a(F499.0
F350.0
tp4081
aa(F462.0
F335.0
tp4082
aaa(lp4083
(I2
F0.3697
tp4084
a(lp4085
(I3
F0.2117
tp4086
a(lp4087
(I2
F0.2008
tp4088
a(F417.0
F380.0
tp4089
a(F711.0
F748.0
tp4090
aa(F313.0
F822.0
tp4091
aa(F124.0
F627.0
tp4092
aaaa(lp4093
(I0
F0.127
tp4094
a(lp4095
(I2
F0.0727
tp4096
a(lp4097
(I1
F0.0149
tp4098
a(lp4099
(I0
F0.0239
tp4100
a(lp4101
(I3
F0.0408
tp4102
a(lp4103
(I2
F0.0198
tp4104
a(lp4105
(I2
F-0.0397
tp4106
a(F749.0
F22.0
tp4107
a(lp4108
(I1
F-0.0155
tp4109
a(lp4110
(I0
F-0.0294
tp4111
a(F760.0
F10.0
tp4112
a(F1233.0
F5.0
tp4113
aa(lp4114
(I2
F-0.0053
tp4115
a(F778.0
F23.0
tp4116
a(F1148.0
F17.0
tp4117
aaaa(F816.0
F27.0
tp4118
aa(lp4119
(I0
F-0.0052
tp4120
a(F1228.0
F46.0
tp4121
a(F734.0
F45.0
tp4122
aaa(F861.0
F77.0
tp4123
aa(lp4124
(I0
F0.0394
tp4125
a(lp4126
(I2
F0.0071
tp4127
a(F1261.0
F47.0
tp4128
a(lp4129
(I0
F0.0223
tp4130
a(F1187.0
F129.0
tp4131
a(lp4132
(I3
F0.0393
tp4133
a(F1109.0
F55.0
tp4134
a(F731.0
F62.0
tp4135
aaaa(lp4136
(I1
F0.1143
tp4137
a(lp4138
(I2
F0.0597
tp4139
a(lp4140
(I1
F0.0476
tp4141
a(F1108.0
F128.0
tp4142
a(lp4143
(I1
F0.069
tp4144
a(F987.0
F66.0
tp4145
a(F918.0
F104.0
tp4146
aaa(F1221.0
F189.0
tp4147
aa(F642.0
F164.0
tp4148
aaaa(lp4149
(I0
F0.0936
tp4150
a(lp4151
(I0
F0.0394
tp4152
a(F675.0
F123.0
tp4153
a(lp4154
(I1
F0.0683
tp4155
a(F954.0
F308.0
tp4156
a(lp4157
(I3
F0.0828
tp4158
a(F894.0
F173.0
tp4159
a(F670.0
F211.0
tp4160
aaaa(lp4161
(I1
F0.0939
tp4162
a(F548.0
F245.0
tp4163
a(lp4164
(I3
F0.1152
tp4165
a(lp4166
(I3
F0.0716
tp4167
a(F829.0
F192.0
tp4168
a(F861.0
F271.0
tp4169
aa(F543.0
F292.0
tp4170
aaaaa(lp4171
(I1
F0.2186
tp4172
a(lp4173
(I1
F0.151
tp4174
a(lp4175
(I1
F0.1023
tp4176
a(F673.0
F217.0
tp4177
a(lp4178
(I0
F0.1455
tp4179
a(F865.0
F389.0
tp4180
a(F750.0
F444.0
tp4181
aaa(lp4182
(I0
F0.1816
tp4183
a(lp4184
(I2
F0.1586
tp4185
a(F841.0
F393.0
tp4186
a(F522.0
F406.0
tp4187
aa(F791.0
F767.0
tp4188
aaa(lp4189
(I0
F0.3674
tp4190
a(lp4191
(I3
F0.1559
tp4192
a(F570.0
F531.0
tp4193
a(F254.0
F790.0
tp4194
aa(F120.0
F661.0
tp4195
aaaa(lp4196
(I0
F0.1185
tp4197
a(lp4198
(I2
F0.0727
tp4199
a(lp4200
(I1
F0.0547
tp4201
a(lp4202
(I2
F0.0589
tp4203
a(lp4204
(I0
F0.0061
tp4205
a(lp4206
(I0
F-0.0047
tp4207
a(lp4208
(I1
F-0.0376
tp4209
a(lp4210
(I0
F-0.0427
tp4211
a(F1152.0
F29.0
tp4212
a(F905.0
F40.0
tp4213
aa(lp4214
(I2
F-0.0155
tp4215
a(F1224.0
F12.0
tp4216
a(lp4217
(I3
F0.0147
tp4218
a(F916.0
F6.0
tp4219
a(F809.0
F27.0
tp4220
aaaa(F1409.0
F54.0
tp4221
aa(lp4222
(I0
F0.0429
tp4223
a(lp4224
(I2
F0.0399
tp4225
a(lp4226
(I3
F0.0372
tp4227
a(lp4228
(I3
F0.0174
tp4229
a(lp4230
(I1
F0.0156
tp4231
a(F847.0
F13.0
tp4232
a(F792.0
F30.0
tp4233
aa(F1029.0
F47.0
tp4234
aa(F1312.0
F94.0
tp4235
aa(F756.0
F54.0
tp4236
aa(F1406.0
F110.0
tp4237
aaa(F683.0
F118.0
tp4238
aa(lp4239
(I3
F0.076
tp4240
a(lp4241
(I1
F0.1258
tp4242
a(lp4243
(I2
F0.0382
tp4244
a(F1103.0
F90.0
tp4245
a(lp4246
(I3
F0.0468
tp4247
a(F934.0
F114.0
tp4248
a(F780.0
F58.0
tp4249
aaa(F768.0
F154.0
tp4250
aa(F656.0
F128.0
tp4251
aaa(lp4252
(I0
F0.0881
tp4253
a(lp4254
(I2
F0.1159
tp4255
a(lp4256
(I3
F0.0693
tp4257
a(F1057.0
F166.0
tp4258
a(F1123.0
F264.0
tp4259
aa(F559.0
F220.0
tp4260
aa(lp4261
(I3
F0.1086
tp4262
a(lp4263
(I3
F0.0597
tp4264
a(F738.0
F209.0
tp4265
a(F963.0
F320.0
tp4266
aa(F789.0
F335.0
tp4267
aaaa(lp4268
(I1
F0.2186
tp4269
a(lp4270
(I3
F0.1383
tp4271
a(lp4272
(I2
F0.149
tp4273
a(lp4274
(I3
F0.0915
tp4275
a(lp4276
(I3
F0.0399
tp4277
a(F879.0
F289.0
tp4278
a(F1013.0
F261.0
tp4279
aa(F851.0
F392.0
tp4280
aa(lp4281
(I0
F0.1681
tp4282
a(F525.0
F278.0
tp4283
a(F479.0
F390.0
tp4284
aaa(lp4285
(I3
F0.1779
tp4286
a(F854.0
F564.0
tp4287
a(F713.0
F708.0
tp4288
aaa(lp4289
(I3
F0.1452
tp4290
a(F636.0
F641.0
tp4291
a(lp4292
(I1
F0.2938
tp4293
a(F236.0
F533.0
tp4294
a(F72.0
F744.0
tp4295
aaaaa(lp4296
(I0
F0.0882
tp4297
a(lp4298
(I0
F0.0393
tp4299
a(lp4300
(I2
F0.0629
tp4301
a(lp4302
(I3
F0.0252
tp4303
a(lp4304
(I2
F0.0176
tp4305
a(lp4306
(I0
F-0.0081
tp4307
a(lp4308
(I1
F-0.0123
tp4309
a(lp4310
(I3
F-0.0194
tp4311
a(F945.0
F6.0
tp4312
a(F1262.0
F16.0
tp4313
aa(F863.0
F21.0
tp4314
aa(lp4315
(I1
F0.0106
tp4316
a(F1365.0
F21.0
tp4317
a(F1104.0
F46.0
tp4318
aaa(lp4319
(I1
F0.0168
tp4320
a(F809.0
F25.0
tp4321
a(F862.0
F55.0
tp4322
aaa(lp4323
(I3
F0.0491
tp4324
a(lp4325
(I3
F0.0322
tp4326
a(F741.0
F46.0
tp4327
a(F1450.0
F54.0
tp4328
aa(lp4329
(I2
F0.0257
tp4330
a(lp4331
(I2
F-0.0036
tp4332
a(F922.0
F64.0
tp4333
a(F794.0
F35.0
tp4334
aa(F1017.0
F87.0
tp4335
aaaa(F868.0
F159.0
tp4336
aa(lp4337
(I2
F0.082
tp4338
a(lp4339
(I0
F0.0701
tp4340
a(lp4341
(I3
F0.0768
tp4342
a(lp4343
(I3
F0.0113
tp4344
a(F763.0
F110.0
tp4345
a(lp4346
(I1
F0.066
tp4347
a(lp4348
(I0
F0.0525
tp4349
a(F908.0
F66.0
tp4350
a(F773.0
F41.0
tp4351
aa(F789.0
F75.0
tp4352
aaa(F722.0
F112.0
tp4353
aa(lp4354
(I2
F0.0677
tp4355
a(F703.0
F96.0
tp4356
a(F652.0
F121.0
tp4357
aaa(lp4358
(I0
F0.0739
tp4359
a(F610.0
F234.0
tp4360
a(F672.0
F194.0
tp4361
aaaa(lp4362
(I1
F0.2181
tp4363
a(lp4364
(I3
F0.1529
tp4365
a(lp4366
(I2
F0.137
tp4367
a(lp4368
(I2
F0.1007
tp4369
a(lp4370
(I3
F0.0815
tp4371
a(lp4372
(I1
F0.1145
tp4373
a(F1026.0
F182.0
tp4374
a(F975.0
F272.0
tp4375
aa(F579.0
F216.0
tp4376
aa(lp4377
(I0
F0.1351
tp4378
a(lp4379
(I3
F0.1049
tp4380
a(F1159.0
F369.0
tp4381
a(F738.0
F315.0
tp4382
aa(F572.0
F264.0
tp4383
aaa(lp4384
(I1
F0.1686
tp4385
a(lp4386
(I3
F0.0847
tp4387
a(F662.0
F279.0
tp4388
a(F675.0
F394.0
tp4389
aa(F526.0
F435.0
tp4390
aaa(lp4391
(I1
F0.1299
tp4392
a(F508.0
F295.0
tp4393
a(lp4394
(I2
F0.1807
tp4395
a(F524.0
F336.0
tp4396
a(F437.0
F528.0
tp4397
aaaa(lp4398
(I0
F0.3609
tp4399
a(lp4400
(I2
F0.2457
tp4401
a(F505.0
F549.0
tp4402
a(F375.0
F684.0
tp4403
aa(F134.0
F669.0
tp4404
aaaa(lp4405
(I2
F0.1368
tp4406
a(lp4407
(I0
F0.0843
tp4408
a(lp4409
(I2
F0.0538
tp4410
a(lp4411
(I3
F0.0406
tp4412
a(lp4413
(I1
F0.0137
tp4414
a(lp4415
(I2
F0.0055
tp4416
a(lp4417
(I3
F0.0
tp4418
a(lp4419
(I1
F-0.0419
tp4420
a(F876.0
F23.0
tp4421
a(lp4422
(I2
F-0.0178
tp4423
a(F889.0
F6.0
tp4424
a(F787.0
F12.0
tp4425
aaa(F1338.0
F11.0
tp4426
aa(lp4427
(I3
F0.0109
tp4428
a(F1005.0
F34.0
tp4429
a(F918.0
F14.0
tp4430
aaa(lp4431
(I3
F-0.0012
tp4432
a(F1422.0
F82.0
tp4433
a(lp4434
(I0
F0.026
tp4435
a(F1045.0
F96.0
tp4436
a(lp4437
(I1
F0.0467
tp4438
a(F834.0
F44.0
tp4439
a(F884.0
F81.0
tp4440
aaaaa(lp4441
(I1
F0.0395
tp4442
a(lp4443
(I3
F0.117
tp4444
a(lp4445
(I3
F0.058
tp4446
a(F981.0
F49.0
tp4447
a(F1259.0
F117.0
tp4448
aa(F872.0
F37.0
tp4449
aa(F1253.0
F178.0
tp4450
aaa(lp4451
(I2
F0.0824
tp4452
a(lp4453
(I2
F0.0731
tp4454
a(lp4455
(I1
F0.0656
tp4456
a(lp4457
(I1
F0.0429
tp4458
a(F759.0
F97.0
tp4459
a(F727.0
F71.0
tp4460
aa(F853.0
F163.0
tp4461
aa(F804.0
F143.0
tp4462
aa(lp4463
(I3
F0.0774
tp4464
a(F650.0
F148.0
tp4465
a(F611.0
F193.0
tp4466
aaaa(lp4467
(I1
F0.1272
tp4468
a(lp4469
(I3
F0.081
tp4470
a(lp4471
(I2
F0.0726
tp4472
a(F724.0
F117.0
tp4473
a(lp4474
(I3
F0.0508
tp4475
a(F627.0
F161.0
tp4476
a(F670.0
F151.0
tp4477
aaa(lp4478
(I3
F0.108
tp4479
a(F640.0
F267.0
tp4480
a(F990.0
F354.0
tp4481
aaa(lp4482
(I2
F0.0825
tp4483
a(F752.0
F247.0
tp4484
a(lp4485
(I0
F0.1338
tp4486
a(F748.0
F318.0
tp4487
a(F660.0
F370.0
tp4488
aaaaa(lp4489
(I2
F0.2033
tp4490
a(lp4491
(I3
F0.0598
tp4492
a(F774.0
F289.0
tp4493
a(lp4494
(I1
F0.1835
tp4495
a(lp4496
(I2
F0.1697
tp4497
a(lp4498
(I1
F0.1379
tp4499
a(F477.0
F320.0
tp4500
a(F774.0
F385.0
tp4501
aa(F481.0
F353.0
tp4502
aa(F454.0
F415.0
tp4503
aaa(lp4504
(I1
F0.3554
tp4505
a(lp4506
(I0
F0.2855
tp4507
a(lp4508
(I2
F0.2465
tp4509
a(F490.0
F658.0
tp4510
a(F232.0
F562.0
tp4511
aa(F376.0
F463.0
tp4512
aa(F144.0
F651.0
tp4513
aaaa(lp4514
(I2
F0.1368
tp4515
a(lp4516
(I0
F0.084
tp4517
a(lp4518
(I0
F0.0394
tp4519
a(lp4520
(I0
F0.0177
tp4521
a(lp4522
(I2
F0.0438
tp4523
a(lp4524
(I3
F0.0381
tp4525
a(lp4526
(I3
F0.0226
tp4527
a(lp4528
(I0
F0.0044
tp4529
a(lp4530
(I3
F0.0024
tp4531
a(lp4532
(I0
F-0.0398
tp4533
a(F805.0
F19.0
tp4534
a(lp4535
(I2
F-0.0145
tp4536
a(F1085.0
F11.0
tp4537
a(F1192.0
F26.0
tp4538
aaa(F1036.0
F34.0
tp4539
aa(F1044.0
F41.0
tp4540
aa(F934.0
F13.0
tp4541
aa(lp4542
(I3
F0.0908
tp4543
a(F1149.0
F59.0
tp4544
a(F988.0
F32.0
tp4545
aaa(F720.0
F76.0
tp4546
aa(lp4547
(I3
F0.0414
tp4548
a(lp4549
(I1
F0.0225
tp4550
a(F991.0
F34.0
tp4551
a(F1429.0
F92.0
tp4552
aa(F1356.0
F154.0
tp4553
aaa(lp4554
(I2
F0.0587
tp4555
a(lp4556
(I3
F0.0588
tp4557
a(lp4558
(I1
F0.0549
tp4559
a(F1198.0
F84.0
tp4560
a(F1098.0
F108.0
tp4561
aa(F856.0
F127.0
tp4562
aa(lp4563
(I2
F0.0816
tp4564
a(lp4565
(I3
F0.0649
tp4566
a(F1108.0
F140.0
tp4567
a(F846.0
F171.0
tp4568
aa(F951.0
F228.0
tp4569
aaaa(lp4570
(I1
F0.1273
tp4571
a(lp4572
(I2
F0.0699
tp4573
a(F783.0
F128.0
tp4574
a(lp4575
(I3
F0.0827
tp4576
a(lp4577
(I0
F0.1034
tp4578
a(F693.0
F158.0
tp4579
a(F718.0
F201.0
tp4580
aa(lp4581
(I2
F0.1029
tp4582
a(F577.0
F234.0
tp4583
a(F1053.0
F334.0
tp4584
aaaa(lp4585
(I0
F0.1601
tp4586
a(lp4587
(I2
F0.098
tp4588
a(F693.0
F185.0
tp4589
a(F1020.0
F436.0
tp4590
aa(F500.0
F313.0
tp4591
aaaa(lp4592
(I3
F0.2229
tp4593
a(lp4594
(I0
F0.1774
tp4595
a(lp4596
(I3
F0.0949
tp4597
a(F975.0
F358.0
tp4598
a(lp4599
(I3
F0.144
tp4600
a(F628.0
F376.0
tp4601
a(F635.0
F554.0
tp4602
aaa(lp4603
(I2
F0.2203
tp4604
a(F785.0
F759.0
tp4605
a(F645.0
F727.0
tp4606
aaa(lp4607
(I1
F0.2529
tp4608
a(F371.0
F495.0
tp4609
a(F89.0
F802.0
tp4610
aaaa(lp4611
(I1
F0.1301
tp4612
a(lp4613
(I1
F0.0658
tp4614
a(lp4615
(I3
F0.0648
tp4616
a(lp4617
(I0
F0.0569
tp4618
a(lp4619
(I0
F0.0156
tp4620
a(lp4621
(I2
F0.029
tp4622
a(lp4623
(I3
F0.0131
tp4624
a(lp4625
(I3
F-0.0117
tp4626
a(lp4627
(I3
F-0.025
tp4628
a(F1186.0
F15.0
tp4629
a(F808.0
F29.0
tp4630
aa(lp4631
(I1
F-0.019
tp4632
a(F837.0
F7.0
tp4633
a(F1124.0
F20.0
tp4634
aaa(lp4635
(I0
F-0.0032
tp4636
a(F1053.0
F32.0
tp4637
a(F862.0
F37.0
tp4638
aaa(F777.0
F44.0
tp4639
aa(lp4640
(I0
F0.045
tp4641
a(lp4642
(I3
F0.0048
tp4643
a(F959.0
F50.0
tp4644
a(lp4645
(I2
F0.0386
tp4646
a(lp4647
(I0
F0.0261
tp4648
a(F755.0
F61.0
tp4649
a(F902.0
F46.0
tp4650
aa(F784.0
F80.0
tp4651
aaa(F998.0
F44.0
tp4652
aaa(F1270.0
F211.0
tp4653
aa(lp4654
(I0
F0.0281
tp4655
a(lp4656
(I0
F-0.0079
tp4657
a(F1048.0
F48.0
tp4658
a(F937.0
F108.0
tp4659
aa(lp4660
(I3
F0.087
tp4661
a(F714.0
F111.0
tp4662
a(F1227.0
F333.0
tp4663
aaaa(lp4664
(I3
F0.0808
tp4665
a(lp4666
(I2
F0.0694
tp4667
a(lp4668
(I0
F0.071
tp4669
a(F1255.0
F107.0
tp4670
a(F722.0
F114.0
tp4671
aa(lp4672
(I2
F0.1072
tp4673
a(lp4674
(I3
F0.0522
tp4675
a(F735.0
F142.0
tp4676
a(F685.0
F153.0
tp4677
aa(F692.0
F237.0
tp4678
aaa(lp4679
(I2
F0.1311
tp4680
a(lp4681
(I1
F0.0902
tp4682
a(F788.0
F205.0
tp4683
a(lp4684
(I1
F0.1066
tp4685
a(F538.0
F261.0
tp4686
a(F817.0
F259.0
tp4687
aaa(F449.0
F383.0
tp4688
aaaa(lp4689
(I0
F0.1838
tp4690
a(lp4691
(I0
F0.0942
tp4692
a(F888.0
F197.0
tp4693
a(lp4694
(I2
F0.1712
tp4695
a(lp4696
(I3
F0.1111
tp4697
a(lp4698
(I2
F0.1058
tp4699
a(F762.0
F210.0
tp4700
a(F1111.0
F387.0
tp4701
aa(lp4702
(I3
F0.1439
tp4703
a(F499.0
F333.0
tp4704
a(F501.0
F292.0
tp4705
aaa(F379.0
F405.0
tp4706
aaa(lp4707
(I3
F0.2434
tp4708
a(lp4709
(I0
F0.2201
tp4710
a(F747.0
F694.0
tp4711
a(lp4712
(I1
F0.2764
tp4713
a(F383.0
F571.0
tp4714
a(F397.0
F499.0
tp4715
aaa(F195.0
F951.0
tp4716
aaaa(lp4717
(I1
F0.1141
tp4718
a(lp4719
(I1
F0.0569
tp4720
a(lp4721
(I2
F0.059
tp4722
a(lp4723
(I2
F0.0283
tp4724
a(lp4725
(I0
F0.0119
tp4726
a(lp4727
(I2
F0.0122
tp4728
a(lp4729
(I1
F-0.0124
tp4730
a(lp4731
(I1
F-0.0377
tp4732
a(lp4733
(I3
F0.0132
tp4734
a(F1143.0
F20.0
tp4735
a(F775.0
F29.0
tp4736
aa(lp4737
(I1
F-0.0228
tp4738
a(F1037.0
F8.0
tp4739
a(F783.0
F15.0
tp4740
aaa(lp4741
(I3
F0.0123
tp4742
a(F1261.0
F24.0
tp4743
a(F905.0
F53.0
tp4744
aaa(F854.0
F11.0
tp4745
aa(lp4746
(I1
F0.0106
tp4747
a(F826.0
F35.0
tp4748
a(lp4749
(I1
F0.0253
tp4750
a(F786.0
F68.0
tp4751
a(F1000.0
F51.0
tp4752
aaaa(lp4753
(I0
F0.0399
tp4754
a(lp4755
(I3
F0.0297
tp4756
a(F956.0
F32.0
tp4757
a(F1213.0
F96.0
tp4758
aa(F1346.0
F129.0
tp4759
aaa(lp4760
(I0
F0.0318
tp4761
a(F710.0
F114.0
tp4762
a(lp4763
(I0
F0.0607
tp4764
a(F637.0
F171.0
tp4765
a(F990.0
F207.0
tp4766
aaaa(lp4767
(I2
F0.0756
tp4768
a(lp4769
(I2
F0.0583
tp4770
a(lp4771
(I1
F0.0708
tp4772
a(F836.0
F70.0
tp4773
a(F1220.0
F135.0
tp4774
aa(F1201.0
F196.0
tp4775
aa(lp4776
(I3
F0.0961
tp4777
a(lp4778
(I3
F0.0494
tp4779
a(F702.0
F232.0
tp4780
a(F1184.0
F300.0
tp4781
aa(lp4782
(I3
F0.1273
tp4783
a(F610.0
F294.0
tp4784
a(F518.0
F323.0
tp4785
aaaaa(lp4786
(I0
F0.2203
tp4787
a(lp4788
(I2
F0.1485
tp4789
a(lp4790
(I2
F0.048
tp4791
a(F1009.0
F133.0
tp4792
a(lp4793
(I0
F0.1322
tp4794
a(lp4795
(I2
F0.1114
tp4796
a(F1127.0
F323.0
tp4797
a(F947.0
F351.0
tp4798
aa(lp4799
(I2
F0.1357
tp4800
a(F933.0
F394.0
tp4801
a(F543.0
F262.0
tp4802
aaaa(lp4803
(I2
F0.1893
tp4804
a(lp4805
(I3
F0.1161
tp4806
a(F509.0
F291.0
tp4807
a(F814.0
F594.0
tp4808
aa(F539.0
F668.0
tp4809
aaa(lp4810
(I3
F0.223
tp4811
a(lp4812
(I3
F0.0756
tp4813
a(F439.0
F438.0
tp4814
a(F321.0
F491.0
tp4815
aa(F197.0
F1031.0
tp4816
aaaa(lp4817
(I1
F0.1141
tp4818
a(lp4819
(I0
F0.0733
tp4820
a(lp4821
(I0
F0.0349
tp4822
a(lp4823
(I0
F-0.0019
tp4824
a(lp4825
(I2
F0.0282
tp4826
a(lp4827
(I2
F-0.0138
tp4828
a(lp4829
(I1
F-0.0178
tp4830
a(lp4831
(I0
F-0.0502
tp4832
a(F789.0
F15.0
tp4833
a(F1353.0
F11.0
tp4834
aa(F761.0
F20.0
tp4835
aa(lp4836
(I2
F0.0004
tp4837
a(F1169.0
F56.0
tp4838
a(F1013.0
F20.0
tp4839
aaa(F763.0
F55.0
tp4840
aa(lp4841
(I1
F0.0465
tp4842
a(lp4843
(I2
F0.0443
tp4844
a(lp4845
(I1
F0.0157
tp4846
a(lp4847
(I0
F0.0156
tp4848
a(lp4849
(I3
F0.0181
tp4850
a(F853.0
F10.0
tp4851
a(F778.0
F45.0
tp4852
aa(F924.0
F51.0
tp4853
aa(lp4854
(I1
F0.0253
tp4855
a(F735.0
F64.0
tp4856
a(F1028.0
F52.0
tp4857
aaa(F718.0
F97.0
tp4858
aa(F725.0
F92.0
tp4859
aaa(lp4860
(I2
F0.082
tp4861
a(lp4862
(I2
F0.0449
tp4863
a(lp4864
(I3
F0.0416
tp4865
a(F1226.0
F78.0
tp4866
a(F791.0
F84.0
tp4867
aa(lp4868
(I3
F0.0642
tp4869
a(lp4870
(I0
F0.0535
tp4871
a(F722.0
F89.0
tp4872
a(F955.0
F80.0
tp4873
aa(F942.0
F192.0
tp4874
aaa(F655.0
F212.0
tp4875
aaa(lp4876
(I3
F0.0811
tp4877
a(lp4878
(I1
F0.0941
tp4879
a(lp4880
(I2
F0.0896
tp4881
a(F1121.0
F195.0
tp4882
a(F585.0
F217.0
tp4883
aa(F934.0
F166.0
tp4884
aa(lp4885
(I2
F0.1153
tp4886
a(lp4887
(I1
F0.0862
tp4888
a(F633.0
F170.0
tp4889
a(F720.0
F266.0
tp4890
aa(F636.0
F408.0
tp4891
aaaa(lp4892
(I3
F0.2016
tp4893
a(lp4894
(I2
F0.1421
tp4895
a(lp4896
(I0
F0.0931
tp4897
a(F1086.0
F221.0
tp4898
a(lp4899
(I1
F0.1498
tp4900
a(lp4901
(I2
F0.1136
tp4902
a(F796.0
F321.0
tp4903
a(F1127.0
F357.0
tp4904
aa(lp4905
(I2
F0.0957
tp4906
a(F589.0
F219.0
tp4907
a(F606.0
F352.0
tp4908
aaaa(lp4909
(I2
F0.2035
tp4910
a(lp4911
(I0
F0.1806
tp4912
a(lp4913
(I2
F0.1591
tp4914
a(F633.0
F342.0
tp4915
a(F650.0
F446.0
tp4916
aa(F441.0
F384.0
tp4917
aa(F723.0
F825.0
tp4918
aaa(lp4919
(I2
F0.2438
tp4920
a(F395.0
F468.0
tp4921
a(F148.0
F1057.0
tp4922
aaaa(lp4923
(I2
F0.1337
tp4924
a(lp4925
(I2
F0.0728
tp4926
a(lp4927
(I2
F0.0266
tp4928
a(lp4929
(I0
F0.0452
tp4930
a(lp4931
(I3
F0.018
tp4932
a(lp4933
(I1
F0.0094
tp4934
a(lp4935
(I2
F-0.014
tp4936
a(lp4937
(I2
F-0.0304
tp4938
a(F1068.0
F18.0
tp4939
a(F839.0
F5.0
tp4940
aa(lp4941
(I2
F0.0018
tp4942
a(F957.0
F25.0
tp4943
a(F928.0
F15.0
tp4944
aaa(lp4945
(I0
F0.01
tp4946
a(F889.0
F22.0
tp4947
a(F944.0
F43.0
tp4948
aaa(lp4949
(I1
F0.0157
tp4950
a(lp4951
(I3
F0.081
tp4952
a(lp4953
(I0
F-0.0119
tp4954
a(F739.0
F46.0
tp4955
a(F1017.0
F35.0
tp4956
aa(F847.0
F22.0
tp4957
aa(F1133.0
F106.0
tp4958
aaa(F1009.0
F167.0
tp4959
aa(lp4960
(I3
F0.0764
tp4961
a(lp4962
(I1
F0.1198
tp4963
a(lp4964
(I1
F0.0789
tp4965
a(lp4966
(I2
F0.056
tp4967
a(lp4968
(I2
F0.0482
tp4969
a(lp4970
(I0
F0.0366
tp4971
a(lp4972
(I1
F0.0188
tp4973
a(F782.0
F32.0
tp4974
a(F844.0
F52.0
tp4975
aa(F1186.0
F126.0
tp4976
aa(F747.0
F32.0
tp4977
aa(F1305.0
F131.0
tp4978
aa(F814.0
F124.0
tp4979
aa(F614.0
F222.0
tp4980
aa(lp4981
(I1
F0.047
tp4982
a(F687.0
F86.0
tp4983
a(F696.0
F174.0
tp4984
aaaa(lp4985
(I1
F0.1332
tp4986
a(lp4987
(I3
F0.0829
tp4988
a(lp4989
(I0
F0.091
tp4990
a(lp4991
(I2
F0.0858
tp4992
a(F730.0
F106.0
tp4993
a(F649.0
F139.0
tp4994
aa(F1180.0
F305.0
tp4995
aa(lp4996
(I2
F0.1188
tp4997
a(lp4998
(I1
F0.0718
tp4999
a(F634.0
F166.0
tp5000
a(lp5001
(I1
F0.1028
tp5002
a(F642.0
F278.0
tp5003
a(F616.0
F203.0
tp5004
aaa(F644.0
F168.0
tp5005
aaa(lp5006
(I3
F0.0707
tp5007
a(F618.0
F218.0
tp5008
a(F624.0
F356.0
tp5009
aaaa(lp5010
(I3
F0.2091
tp5011
a(lp5012
(I1
F0.199
tp5013
a(lp5014
(I3
F0.0895
tp5015
a(lp5016
(I2
F0.1638
tp5017
a(F720.0
F216.0
tp5018
a(F535.0
F297.0
tp5019
aa(lp5020
(I0
F0.1416
tp5021
a(F458.0
F409.0
tp5022
a(lp5023
(I2
F0.1683
tp5024
a(F743.0
F427.0
tp5025
a(F528.0
F430.0
tp5026
aaaa(lp5027
(I1
F0.2369
tp5028
a(F397.0
F408.0
tp5029
a(F485.0
F609.0
tp5030
aaa(lp5031
(I1
F0.2405
tp5032
a(F467.0
F511.0
tp5033
a(F117.0
F899.0
tp5034
aaaa(lp5035
(I1
F0.1128
tp5036
a(lp5037
(I2
F0.0813
tp5038
a(lp5039
(I0
F0.0361
tp5040
a(lp5041
(I1
F0.0143
tp5042
a(lp5043
(I2
F0.013
tp5044
a(lp5045
(I1
F-0.0127
tp5046
a(lp5047
(I3
F0.0408
tp5048
a(lp5049
(I1
F-0.0451
tp5050
a(F1110.0
F25.0
tp5051
a(lp5052
(I3
F-0.0085
tp5053
a(F830.0
F3.0
tp5054
a(F897.0
F7.0
tp5055
aaa(F827.0
F37.0
tp5056
aa(lp5057
(I3
F0.0034
tp5058
a(F890.0
F15.0
tp5059
a(F1027.0
F59.0
tp5060
aaa(lp5061
(I3
F0.0418
tp5062
a(F1422.0
F36.0
tp5063
a(F813.0
F68.0
tp5064
aaa(lp5065
(I3
F0.0618
tp5066
a(lp5067
(I0
F0.0277
tp5068
a(lp5069
(I2
F0.0076
tp5070
a(F779.0
F33.0
tp5071
a(F1321.0
F100.0
tp5072
aa(F849.0
F33.0
tp5073
aa(F683.0
F77.0
tp5074
aaa(lp5075
(I3
F0.0721
tp5076
a(lp5077
(I0
F0.0801
tp5078
a(lp5079
(I2
F0.0315
tp5080
a(F777.0
F48.0
tp5081
a(lp5082
(I2
F0.0591
tp5083
a(lp5084
(I3
F0.034
tp5085
a(F874.0
F83.0
tp5086
a(F1088.0
F83.0
tp5087
aa(F1087.0
F113.0
tp5088
aaa(F792.0
F140.0
tp5089
aa(lp5090
(I2
F0.0597
tp5091
a(F716.0
F99.0
tp5092
a(F789.0
F161.0
tp5093
aaaa(lp5094
(I2
F0.1254
tp5095
a(lp5096
(I3
F0.081
tp5097
a(lp5098
(I2
F0.0975
tp5099
a(F742.0
F155.0
tp5100
a(F641.0
F163.0
tp5101
aa(lp5102
(I2
F0.1004
tp5103
a(F608.0
F244.0
tp5104
a(F781.0
F234.0
tp5105
aaa(lp5106
(I1
F0.071
tp5107
a(F631.0
F205.0
tp5108
a(F504.0
F334.0
tp5109
aaaa(lp5110
(I0
F0.2149
tp5111
a(lp5112
(I2
F0.1425
tp5113
a(lp5114
(I0
F0.0724
tp5115
a(F824.0
F128.0
tp5116
a(lp5117
(I3
F0.1051
tp5118
a(lp5119
(I2
F0.0836
tp5120
a(F898.0
F227.0
tp5121
a(lp5122
(I3
F0.0712
tp5123
a(F906.0
F272.0
tp5124
a(F627.0
F252.0
tp5125
aaa(F1012.0
F502.0
tp5126
aaa(lp5127
(I3
F0.1775
tp5128
a(lp5129
(I2
F0.1789
tp5130
a(lp5131
(I3
F0.1107
tp5132
a(F595.0
F255.0
tp5133
a(F693.0
F424.0
tp5134
aa(F404.0
F399.0
tp5135
aa(F472.0
F529.0
tp5136
aaa(lp5137
(I3
F0.2104
tp5138
a(lp5139
(I2
F0.2607
tp5140
a(F366.0
F523.0
tp5141
a(F393.0
F426.0
tp5142
aa(F234.0
F1066.0
tp5143
aaaa(lp5144
(I1
F0.1217
tp5145
a(lp5146
(I2
F0.0724
tp5147
a(lp5148
(I1
F0.0156
tp5149
a(lp5150
(I0
F0.0193
tp5151
a(lp5152
(I3
F0.0505
tp5153
a(lp5154
(I0
F-0.0047
tp5155
a(lp5156
(I0
F-0.0392
tp5157
a(F1144.0
F27.0
tp5158
a(lp5159
(I0
F-0.0244
tp5160
a(F806.0
F5.0
tp5161
a(lp5162
(I2
F-0.0114
tp5163
a(F785.0
F15.0
tp5164
a(F908.0
F8.0
tp5165
aaaa(lp5166
(I1
F0.0022
tp5167
a(F1170.0
F40.0
tp5168
a(F772.0
F14.0
tp5169
aaa(lp5170
(I3
F0.1031
tp5171
a(F773.0
F54.0
tp5172
a(F816.0
F39.0
tp5173
aaa(F1225.0
F78.0
tp5174
aa(lp5175
(I0
F0.0828
tp5176
a(lp5177
(I3
F0.0649
tp5178
a(lp5179
(I2
F0.0267
tp5180
a(lp5181
(I1
F0.0482
tp5182
a(lp5183
(I3
F0.0101
tp5184
a(F750.0
F23.0
tp5185
a(F735.0
F36.0
tp5186
aa(F768.0
F49.0
tp5187
aa(lp5188
(I2
F0.0591
tp5189
a(lp5190
(I1
F0.0351
tp5191
a(F838.0
F84.0
tp5192
a(lp5193
(I1
F0.0559
tp5194
a(F1023.0
F53.0
tp5195
a(F955.0
F88.0
tp5196
aaa(F775.0
F95.0
tp5197
aaa(lp5198
(I3
F0.0841
tp5199
a(F711.0
F109.0
tp5200
a(F1098.0
F141.0
tp5201
aaa(F764.0
F160.0
tp5202
aaa(lp5203
(I2
F0.1293
tp5204
a(lp5205
(I3
F0.0739
tp5206
a(lp5207
(I2
F0.0958
tp5208
a(F1257.0
F216.0
tp5209
a(F720.0
F206.0
tp5210
aa(lp5211
(I1
F0.0643
tp5212
a(F642.0
F161.0
tp5213
a(lp5214
(I0
F0.0941
tp5215
a(F760.0
F217.0
tp5216
a(F1004.0
F364.0
tp5217
aaaa(lp5218
(I1
F0.0755
tp5219
a(F593.0
F223.0
tp5220
a(F520.0
F382.0
tp5221
aaaa(lp5222
(I0
F0.1809
tp5223
a(lp5224
(I2
F0.1673
tp5225
a(lp5226
(I3
F0.0889
tp5227
a(lp5228
(I3
F0.0239
tp5229
a(F1076.0
F180.0
tp5230
a(lp5231
(I2
F0.1124
tp5232
a(F957.0
F244.0
tp5233
a(F578.0
F202.0
tp5234
aaa(lp5235
(I2
F0.1379
tp5236
a(F903.0
F444.0
tp5237
a(F808.0
F462.0
tp5238
aaa(F468.0
F498.0
tp5239
aa(lp5240
(I0
F0.3594
tp5241
a(lp5242
(I2
F0.2037
tp5243
a(F826.0
F660.0
tp5244
a(lp5245
(I1
F0.2656
tp5246
a(F470.0
F860.0
tp5247
a(F313.0
F459.0
tp5248
aaa(F154.0
F699.0
tp5249
aaaa(lp5250
(I0
F0.1063
tp5251
a(lp5252
(I2
F0.0728
tp5253
a(lp5254
(I0
F0.0331
tp5255
a(lp5256
(I3
F0.0372
tp5257
a(lp5258
(I1
F0.015
tp5259
a(lp5260
(I0
F-0.0041
tp5261
a(lp5262
(I1
F-0.012
tp5263
a(lp5264
(I0
F-0.0238
tp5265
a(lp5266
(I1
F-0.0451
tp5267
a(F962.0
F17.0
tp5268
a(F813.0
F7.0
tp5269
aa(F954.0
F6.0
tp5270
aa(F757.0
F22.0
tp5271
aa(lp5272
(I3
F0.0109
tp5273
a(F1208.0
F26.0
tp5274
a(F843.0
F28.0
tp5275
aaa(lp5276
(I1
F0.0564
tp5277
a(lp5278
(I1
F0.0258
tp5279
a(F807.0
F47.0
tp5280
a(F1024.0
F25.0
tp5281
aa(F737.0
F53.0
tp5282
aaa(lp5283
(I1
F0.0184
tp5284
a(lp5285
(I3
F0.0726
tp5286
a(F1110.0
F79.0
tp5287
a(F1267.0
F54.0
tp5288
aa(F920.0
F112.0
tp5289
aaa(lp5290
(I3
F0.0687
tp5291
a(lp5292
(I1
F0.0972
tp5293
a(lp5294
(I2
F0.0304
tp5295
a(F893.0
F50.0
tp5296
a(lp5297
(I0
F0.0617
tp5298
a(lp5299
(I0
F0.0488
tp5300
a(F1161.0
F115.0
tp5301
a(F914.0
F57.0
tp5302
aa(F882.0
F111.0
tp5303
aaa(F724.0
F128.0
tp5304
aa(lp5305
(I0
F0.0596
tp5306
a(F660.0
F128.0
tp5307
a(F696.0
F104.0
tp5308
aaaa(lp5309
(I3
F0.0928
tp5310
a(lp5311
(I1
F0.1036
tp5312
a(lp5313
(I2
F0.0941
tp5314
a(F1274.0
F226.0
tp5315
a(F892.0
F228.0
tp5316
aa(F619.0
F177.0
tp5317
aa(lp5318
(I2
F0.0977
tp5319
a(F657.0
F235.0
tp5320
a(F787.0
F326.0
tp5321
aaaa(lp5322
(I1
F0.2181
tp5323
a(lp5324
(I3
F0.138
tp5325
a(lp5326
(I2
F0.14
tp5327
a(lp5328
(I3
F0.0764
tp5329
a(lp5330
(I2
F0.0861
tp5331
a(F837.0
F184.0
tp5332
a(F983.0
F327.0
tp5333
aa(lp5334
(I0
F0.127
tp5335
a(F753.0
F284.0
tp5336
a(F616.0
F299.0
tp5337
aaa(lp5338
(I1
F0.157
tp5339
a(F829.0
F401.0
tp5340
a(F582.0
F439.0
tp5341
aaa(lp5342
(I1
F0.1647
tp5343
a(lp5344
(I0
F0.1477
tp5345
a(F525.0
F339.0
tp5346
a(F493.0
F385.0
tp5347
aa(F632.0
F638.0
tp5348
aaa(lp5349
(I1
F0.3671
tp5350
a(lp5351
(I3
F0.1839
tp5352
a(F616.0
F657.0
tp5353
a(F229.0
F712.0
tp5354
aa(F128.0
F650.0
tp5355
aaaa(lp5356
(I0
F0.1661
tp5357
a(lp5358
(I2
F0.0747
tp5359
a(lp5360
(I0
F0.0364
tp5361
a(lp5362
(I1
F0.0241
tp5363
a(lp5364
(I0
F-0.0041
tp5365
a(lp5366
(I3
F0.0272
tp5367
a(lp5368
(I0
F-0.0344
tp5369
a(F1240.0
F14.0
tp5370
a(lp5371
(I1
F-0.0137
tp5372
a(F1370.0
F21.0
tp5373
a(F775.0
F19.0
tp5374
aaa(lp5375
(I1
F-0.0303
tp5376
a(F896.0
F27.0
tp5377
a(F750.0
F31.0
tp5378
aaa(lp5379
(I3
F0.0408
tp5380
a(lp5381
(I2
F0.0237
tp5382
a(lp5383
(I0
F0.0114
tp5384
a(F1162.0
F27.0
tp5385
a(F823.0
F30.0
tp5386
aa(F739.0
F32.0
tp5387
aa(F1089.0
F99.0
tp5388
aaa(lp5389
(I1
F0.0603
tp5390
a(lp5391
(I2
F0.0267
tp5392
a(F1173.0
F47.0
tp5393
a(F929.0
F84.0
tp5394
aa(F863.0
F95.0
tp5395
aaa(lp5396
(I3
F0.0765
tp5397
a(lp5398
(I1
F0.1198
tp5399
a(lp5400
(I0
F0.0784
tp5401
a(lp5402
(I1
F0.0314
tp5403
a(F782.0
F84.0
tp5404
a(lp5405
(I0
F0.0607
tp5406
a(lp5407
(I0
F0.0487
tp5408
a(F977.0
F82.0
tp5409
a(F940.0
F42.0
tp5410
aa(F969.0
F95.0
tp5411
aaa(F707.0
F97.0
tp5412
aa(F776.0
F172.0
tp5413
aa(F1150.0
F219.0
tp5414
aaa(lp5415
(I3
F0.0945
tp5416
a(lp5417
(I2
F0.1462
tp5418
a(lp5419
(I1
F0.1443
tp5420
a(lp5421
(I1
F0.0569
tp5422
a(F740.0
F118.0
tp5423
a(lp5424
(I1
F0.1166
tp5425
a(lp5426
(I0
F0.093
tp5427
a(F936.0
F222.0
tp5428
a(F857.0
F245.0
tp5429
aa(F822.0
F180.0
tp5430
aaa(F634.0
F240.0
tp5431
aa(F598.0
F248.0
tp5432
aa(lp5433
(I2
F0.1357
tp5434
a(lp5435
(I0
F0.0874
tp5436
a(F682.0
F189.0
tp5437
a(lp5438
(I0
F0.1202
tp5439
a(F1005.0
F377.0
tp5440
a(F673.0
F320.0
tp5441
aaa(lp5442
(I0
F0.1428
tp5443
a(F428.0
F398.0
tp5444
a(F694.0
F420.0
tp5445
aaaaa(lp5446
(I2
F0.2073
tp5447
a(lp5448
(I1
F0.2039
tp5449
a(lp5450
(I3
F0.0806
tp5451
a(F593.0
F243.0
tp5452
a(F738.0
F564.0
tp5453
aa(F357.0
F422.0
tp5454
aa(lp5455
(I2
F0.3689
tp5456
a(lp5457
(I0
F0.2806
tp5458
a(F549.0
F958.0
tp5459
a(F358.0
F449.0
tp5460
aa(F139.0
F637.0
tp5461
aaaa(lp5462
(I2
F0.1187
tp5463
a(lp5464
(I2
F0.0584
tp5465
a(lp5466
(I0
F0.093
tp5467
a(lp5468
(I0
F0.0398
tp5469
a(lp5470
(I1
F0.0161
tp5471
a(lp5472
(I3
F0.058
tp5473
a(lp5474
(I2
F0.0217
tp5475
a(lp5476
(I3
F0.0187
tp5477
a(lp5478
(I0
F-0.0047
tp5479
a(lp5480
(I2
F-0.0305
tp5481
a(F975.0
F21.0
tp5482
a(lp5483
(I2
F-0.0111
tp5484
a(F981.0
F7.0
tp5485
a(F849.0
F2.0
tp5486
aaa(F1281.0
F27.0
tp5487
aa(F1356.0
F35.0
tp5488
aa(F1112.0
F39.0
tp5489
aa(F1429.0
F84.0
tp5490
aa(lp5491
(I3
F0.0372
tp5492
a(lp5493
(I1
F0.0549
tp5494
a(lp5495
(I2
F0.0143
tp5496
a(F773.0
F21.0
tp5497
a(F1153.0
F55.0
tp5498
aa(F828.0
F56.0
tp5499
aa(F1327.0
F126.0
tp5500
aaa(lp5501
(I3
F0.0647
tp5502
a(lp5503
(I1
F0.0785
tp5504
a(lp5505
(I2
F0.0436
tp5506
a(F1074.0
F65.0
tp5507
a(F824.0
F74.0
tp5508
aa(F698.0
F87.0
tp5509
aa(F698.0
F114.0
tp5510
aaa(F831.0
F225.0
tp5511
aa(lp5512
(I1
F0.0983
tp5513
a(lp5514
(I2
F0.0814
tp5515
a(lp5516
(I0
F0.0691
tp5517
a(lp5518
(I2
F0.0669
tp5519
a(F822.0
F108.0
tp5520
a(F781.0
F73.0
tp5521
aa(F1021.0
F172.0
tp5522
aa(lp5523
(I0
F0.0916
tp5524
a(F1275.0
F301.0
tp5525
a(F586.0
F167.0
tp5526
aaa(lp5527
(I3
F0.081
tp5528
a(lp5529
(I1
F0.1338
tp5530
a(F837.0
F192.0
tp5531
a(F763.0
F293.0
tp5532
aa(F997.0
F488.0
tp5533
aaaa(lp5534
(I1
F0.2181
tp5535
a(lp5536
(I3
F0.1539
tp5537
a(lp5538
(I1
F0.1623
tp5539
a(lp5540
(I3
F0.0732
tp5541
a(F1166.0
F413.0
tp5542
a(lp5543
(I1
F0.1358
tp5544
a(F949.0
F459.0
tp5545
a(F583.0
F338.0
tp5546
aaa(F785.0
F570.0
tp5547
aa(lp5548
(I2
F0.1883
tp5549
a(F780.0
F565.0
tp5550
a(F451.0
F565.0
tp5551
aaa(lp5552
(I3
F0.1838
tp5553
a(F624.0
F725.0
tp5554
a(F253.0
F1131.0
tp5555
aaaa(lp5556
(I1
F0.1265
tp5557
a(lp5558
(I2
F0.0727
tp5559
a(lp5560
(I1
F0.0172
tp5561
a(lp5562
(I3
F0.0406
tp5563
a(lp5564
(I2
F0.0194
tp5565
a(lp5566
(I1
F-0.0155
tp5567
a(lp5568
(I2
F-0.0224
tp5569
a(F1400.0
F25.0
tp5570
a(F1340.0
F11.0
tp5571
aa(lp5572
(I1
F-0.0048
tp5573
a(F775.0
F31.0
tp5574
a(F1477.0
F30.0
tp5575
aaa(F1157.0
F46.0
tp5576
aa(lp5577
(I2
F-0.0068
tp5578
a(F851.0
F29.0
tp5579
a(lp5580
(I2
F0.0256
tp5581
a(F815.0
F52.0
tp5582
a(F774.0
F70.0
tp5583
aaaa(lp5584
(I3
F0.0649
tp5585
a(lp5586
(I0
F0.0804
tp5587
a(lp5588
(I0
F0.0364
tp5589
a(lp5590
(I2
F0.0262
tp5591
a(lp5592
(I3
F0.0116
tp5593
a(F933.0
F28.0
tp5594
a(F732.0
F31.0
tp5595
aa(F1012.0
F77.0
tp5596
aa(lp5597
(I1
F0.065
tp5598
a(lp5599
(I0
F0.049
tp5600
a(F954.0
F96.0
tp5601
a(F1039.0
F53.0
tp5602
aa(F978.0
F102.0
tp5603
aaa(F703.0
F117.0
tp5604
aa(lp5605
(I2
F0.0538
tp5606
a(F1069.0
F154.0
tp5607
a(F811.0
F157.0
tp5608
aaaa(lp5609
(I3
F0.1324
tp5610
a(lp5611
(I2
F0.1231
tp5612
a(lp5613
(I0
F0.091
tp5614
a(lp5615
(I3
F0.0693
tp5616
a(F1040.0
F184.0
tp5617
a(F884.0
F237.0
tp5618
aa(lp5619
(I2
F0.1069
tp5620
a(F1107.0
F306.0
tp5621
a(F684.0
F219.0
tp5622
aaa(F1053.0
F446.0
tp5623
aa(F1004.0
F510.0
tp5624
aaa(lp5625
(I2
F0.2076
tp5626
a(lp5627
(I3
F0.0799
tp5628
a(lp5629
(I2
F0.0397
tp5630
a(F789.0
F126.0
tp5631
a(lp5632
(I0
F0.1645
tp5633
a(lp5634
(I1
F0.1549
tp5635
a(F758.0
F183.0
tp5636
a(F675.0
F235.0
tp5637
aa(F494.0
F357.0
tp5638
aaa(lp5639
(I3
F0.1774
tp5640
a(lp5641
(I0
F0.1696
tp5642
a(lp5643
(I3
F0.1106
tp5644
a(F582.0
F261.0
tp5645
a(F957.0
F592.0
tp5646
aa(F495.0
F409.0
tp5647
aa(F444.0
F411.0
tp5648
aaa(lp5649
(I0
F0.3615
tp5650
a(lp5651
(I3
F0.1792
tp5652
a(F500.0
F494.0
tp5653
a(F335.0
F933.0
tp5654
aa(F146.0
F681.0
tp5655
aaaa(lp5656
(I2
F0.1173
tp5657
a(lp5658
(I2
F0.0583
tp5659
a(lp5660
(I0
F0.093
tp5661
a(lp5662
(I0
F0.0336
tp5663
a(lp5664
(I3
F0.0387
tp5665
a(lp5666
(I2
F0.0055
tp5667
a(lp5668
(I0
F-0.0047
tp5669
a(lp5670
(I3
F-0.0084
tp5671
a(lp5672
(I2
F-0.0305
tp5673
a(F813.0
F15.0
tp5674
a(F1067.0
F6.0
tp5675
aa(F1423.0
F30.0
tp5676
aa(F1339.0
F59.0
tp5677
aa(lp5678
(I1
F0.0156
tp5679
a(lp5680
(I0
F0.0085
tp5681
a(F960.0
F16.0
tp5682
a(F854.0
F29.0
tp5683
aa(lp5684
(I0
F0.0223
tp5685
a(F744.0
F51.0
tp5686
a(F762.0
F25.0
tp5687
aaaa(lp5688
(I1
F-0.0158
tp5689
a(F1167.0
F48.0
tp5690
a(lp5691
(I3
F0.081
tp5692
a(F1129.0
F68.0
tp5693
a(F728.0
F69.0
tp5694
aaaa(lp5695
(I1
F0.0724
tp5696
a(lp5697
(I0
F0.0539
tp5698
a(lp5699
(I3
F0.0499
tp5700
a(F1399.0
F75.0
tp5701
a(F765.0
F71.0
tp5702
aa(F904.0
F91.0
tp5703
aa(F1122.0
F140.0
tp5704
aaa(F936.0
F231.0
tp5705
aa(lp5706
(I0
F0.0882
tp5707
a(lp5708
(I3
F0.0802
tp5709
a(lp5710
(I1
F0.0779
tp5711
a(lp5712
(I2
F0.069
tp5713
a(F866.0
F89.0
tp5714
a(F957.0
F178.0
tp5715
aa(F809.0
F147.0
tp5716
aa(lp5717
(I1
F0.0652
tp5718
a(F658.0
F149.0
tp5719
a(F589.0
F179.0
tp5720
aaa(lp5721
(I0
F0.1338
tp5722
a(lp5723
(I3
F0.0529
tp5724
a(F773.0
F156.0
tp5725
a(lp5726
(I3
F0.101
tp5727
a(F985.0
F316.0
tp5728
a(F745.0
F292.0
tp5729
aaa(F539.0
F269.0
tp5730
aaaa(lp5731
(I3
F0.2093
tp5732
a(lp5733
(I2
F0.1788
tp5734
a(lp5735
(I0
F0.1629
tp5736
a(lp5737
(I1
F0.0822
tp5738
a(F576.0
F211.0
tp5739
a(lp5740
(I3
F0.1362
tp5741
a(lp5742
(I3
F0.0849
tp5743
a(F756.0
F286.0
tp5744
a(F964.0
F470.0
tp5745
aa(F645.0
F427.0
tp5746
aaa(F791.0
F525.0
tp5747
aa(lp5748
(I3
F0.0744
tp5749
a(F724.0
F522.0
tp5750
a(lp5751
(I2
F0.2077
tp5752
a(F408.0
F453.0
tp5753
a(F368.0
F486.0
tp5754
aaaa(lp5755
(I1
F0.2475
tp5756
a(F491.0
F563.0
tp5757
a(F101.0
F861.0
tp5758
aaaa(lp5759
(I0
F0.1274
tp5760
a(lp5761
(I0
F0.0589
tp5762
a(lp5763
(I2
F0.0729
tp5764
a(lp5765
(I1
F0.0161
tp5766
a(lp5767
(I3
F0.0447
tp5768
a(lp5769
(I0
F0.0186
tp5770
a(lp5771
(I0
F0.0064
tp5772
a(lp5773
(I1
F-0.0466
tp5774
a(F1112.0
F29.0
tp5775
a(lp5776
(I1
F-0.0155
tp5777
a(lp5778
(I0
F-0.0249
tp5779
a(F786.0
F9.0
tp5780
a(F966.0
F3.0
tp5781
aa(lp5782
(I2
F-0.0037
tp5783
a(F844.0
F23.0
tp5784
a(F837.0
F9.0
tp5785
aaaa(F927.0
F25.0
tp5786
aa(F805.0
F36.0
tp5787
aa(lp5788
(I2
F-0.0065
tp5789
a(F786.0
F25.0
tp5790
a(F1318.0
F94.0
tp5791
aaa(lp5792
(I3
F0.0668
tp5793
a(lp5794
(I0
F0.0014
tp5795
a(F752.0
F32.0
tp5796
a(lp5797
(I1
F0.0661
tp5798
a(lp5799
(I1
F0.0244
tp5800
a(F777.0
F66.0
tp5801
a(lp5802
(I2
F0.0242
tp5803
a(F879.0
F31.0
tp5804
a(lp5805
(I1
F0.0473
tp5806
a(F1242.0
F85.0
tp5807
a(F789.0
F41.0
tp5808
aaaa(F915.0
F120.0
tp5809
aaa(F1141.0
F175.0
tp5810
aaa(F1021.0
F261.0
tp5811
aa(lp5812
(I0
F0.093
tp5813
a(lp5814
(I1
F0.1089
tp5815
a(lp5816
(I3
F0.0759
tp5817
a(lp5818
(I2
F0.0788
tp5819
a(lp5820
(I3
F0.0334
tp5821
a(F740.0
F71.0
tp5822
a(F996.0
F117.0
tp5823
aa(F643.0
F150.0
tp5824
aa(lp5825
(I1
F0.0735
tp5826
a(F642.0
F172.0
tp5827
a(F589.0
F181.0
tp5828
aaa(F620.0
F177.0
tp5829
aa(lp5830
(I2
F0.1229
tp5831
a(lp5832
(I3
F0.0526
tp5833
a(F889.0
F189.0
tp5834
a(lp5835
(I0
F0.1116
tp5836
a(F1045.0
F362.0
tp5837
a(F698.0
F201.0
tp5838
aaa(F658.0
F329.0
tp5839
aaaa(lp5840
(I3
F0.2178
tp5841
a(lp5842
(I2
F0.1722
tp5843
a(lp5844
(I0
F0.187
tp5845
a(lp5846
(I2
F0.1003
tp5847
a(F678.0
F149.0
tp5848
a(lp5849
(I3
F0.0882
tp5850
a(F916.0
F288.0
tp5851
a(lp5852
(I3
F0.1352
tp5853
a(F742.0
F391.0
tp5854
a(F722.0
F443.0
tp5855
aaaa(F446.0
F355.0
tp5856
aa(lp5857
(I3
F0.0744
tp5858
a(F606.0
F519.0
tp5859
a(lp5860
(I1
F0.2055
tp5861
a(F578.0
F552.0
tp5862
a(F393.0
F518.0
tp5863
aaaa(lp5864
(I2
F0.274
tp5865
a(F343.0
F433.0
tp5866
a(F154.0
F804.0
tp5867
aaaa(lp5868
(I0
F0.1271
tp5869
a(lp5870
(I0
F0.0687
tp5871
a(lp5872
(I0
F0.0335
tp5873
a(lp5874
(I2
F0.0599
tp5875
a(lp5876
(I3
F0.0179
tp5877
a(lp5878
(I0
F-0.0079
tp5879
a(lp5880
(I2
F-0.0378
tp5881
a(F743.0
F23.0
tp5882
a(lp5883
(I3
F-0.0138
tp5884
a(F1062.0
F21.0
tp5885
a(F1210.0
F11.0
tp5886
aaa(lp5887
(I1
F0.0156
tp5888
a(lp5889
(I2
F0.0048
tp5890
a(F836.0
F16.0
tp5891
a(F863.0
F8.0
tp5892
aa(F1369.0
F71.0
tp5893
aaa(lp5894
(I0
F-0.0003
tp5895
a(lp5896
(I2
F0.0052
tp5897
a(F1490.0
F37.0
tp5898
a(F753.0
F42.0
tp5899
aa(lp5900
(I1
F0.0161
tp5901
a(F1418.0
F69.0
tp5902
a(F1394.0
F118.0
tp5903
aaaa(F779.0
F130.0
tp5904
aa(lp5905
(I1
F0.0869
tp5906
a(lp5907
(I3
F0.0801
tp5908
a(lp5909
(I2
F0.0584
tp5910
a(lp5911
(I0
F0.0414
tp5912
a(F812.0
F70.0
tp5913
a(lp5914
(I2
F0.0436
tp5915
a(F928.0
F37.0
tp5916
a(F883.0
F65.0
tp5917
aaa(F1084.0
F154.0
tp5918
aa(F975.0
F234.0
tp5919
aa(F692.0
F136.0
tp5920
aaa(lp5921
(I2
F0.1007
tp5922
a(lp5923
(I3
F0.0696
tp5924
a(lp5925
(I0
F0.09
tp5926
a(F1306.0
F182.0
tp5927
a(F1019.0
F204.0
tp5928
aa(lp5929
(I0
F0.0838
tp5930
a(F664.0
F126.0
tp5931
a(F963.0
F288.0
tp5932
aaa(lp5933
(I3
F0.1251
tp5934
a(lp5935
(I0
F0.1157
tp5936
a(lp5937
(I2
F0.1134
tp5938
a(F589.0
F218.0
tp5939
a(F563.0
F264.0
tp5940
aa(F613.0
F164.0
tp5941
aa(F544.0
F302.0
tp5942
aaaa(lp5943
(I1
F0.2186
tp5944
a(lp5945
(I3
F0.0629
tp5946
a(lp5947
(I2
F0.11
tp5948
a(F700.0
F164.0
tp5949
a(F834.0
F396.0
tp5950
aa(lp5951
(I3
F0.1777
tp5952
a(lp5953
(I2
F0.172
tp5954
a(lp5955
(I0
F0.141
tp5956
a(F642.0
F297.0
tp5957
a(lp5958
(I0
F0.1602
tp5959
a(F653.0
F411.0
tp5960
a(F530.0
F253.0
tp5961
aaa(F389.0
F414.0
tp5962
aa(F659.0
F696.0
tp5963
aaa(lp5964
(I0
F0.3632
tp5965
a(lp5966
(I3
F0.1696
tp5967
a(F578.0
F562.0
tp5968
a(F233.0
F694.0
tp5969
aa(F111.0
F702.0
tp5970
aaaa(lp5971
(I0
F0.1209
tp5972
a(lp5973
(I2
F0.0727
tp5974
a(lp5975
(I0
F0.0331
tp5976
a(lp5977
(I3
F0.0374
tp5978
a(lp5979
(I3
F0.0268
tp5980
a(lp5981
(I1
F0.0159
tp5982
a(lp5983
(I2
F-0.0111
tp5984
a(lp5985
(I3
F-0.02
tp5986
a(F1039.0
F15.0
tp5987
a(F1271.0
F50.0
tp5988
aa(lp5989
(I2
F0.0182
tp5990
a(lp5991
(I1
F-0.0122
tp5992
a(F835.0
F6.0
tp5993
a(F1110.0
F14.0
tp5994
aa(F782.0
F22.0
tp5995
aaa(lp5996
(I1
F0.0521
tp5997
a(F1277.0
F50.0
tp5998
a(F769.0
F45.0
tp5999
aaa(F904.0
F38.0
tp6000
aa(lp6001
(I0
F-0.0019
tp6002
a(lp6003
(I0
F-0.0277
tp6004
a(F871.0
F26.0
tp6005
a(F740.0
F35.0
tp6006
aa(lp6007
(I0
F0.0159
tp6008
a(F739.0
F76.0
tp6009
a(F1011.0
F85.0
tp6010
aaaa(lp6011
(I0
F0.0631
tp6012
a(lp6013
(I2
F0.0536
tp6014
a(lp6015
(I1
F0.0549
tp6016
a(lp6017
(I3
F0.0474
tp6018
a(F1201.0
F60.0
tp6019
a(F701.0
F77.0
tp6020
aa(F985.0
F118.0
tp6021
aa(F1080.0
F152.0
tp6022
aa(lp6023
(I1
F0.0984
tp6024
a(lp6025
(I1
F0.0659
tp6026
a(F734.0
F110.0
tp6027
a(F868.0
F96.0
tp6028
aa(F598.0
F159.0
tp6029
aaaa(lp6030
(I2
F0.1251
tp6031
a(lp6032
(I2
F0.1066
tp6033
a(lp6034
(I1
F0.1052
tp6035
a(lp6036
(I3
F0.083
tp6037
a(lp6038
(I1
F0.0743
tp6039
a(F802.0
F130.0
tp6040
a(F724.0
F93.0
tp6041
aa(F1073.0
F340.0
tp6042
aa(F819.0
F223.0
tp6043
aa(F1107.0
F373.0
tp6044
aa(F873.0
F471.0
tp6045
aaa(lp6046
(I1
F0.2383
tp6047
a(lp6048
(I0
F0.1778
tp6049
a(lp6050
(I3
F0.1262
tp6051
a(lp6052
(I1
F0.1494
tp6053
a(lp6054
(I3
F0.0583
tp6055
a(F753.0
F191.0
tp6056
a(F868.0
F342.0
tp6057
aa(F977.0
F417.0
tp6058
aa(lp6059
(I2
F0.1591
tp6060
a(F760.0
F466.0
tp6061
a(F412.0
F386.0
tp6062
aaa(lp6063
(I2
F0.1954
tp6064
a(F845.0
F500.0
tp6065
a(F662.0
F749.0
tp6066
aaa(lp6067
(I3
F0.2102
tp6068
a(F587.0
F737.0
tp6069
a(F142.0
F889.0
tp6070
aaaa(lp6071
(I1
F0.1359
tp6072
a(lp6073
(I0
F0.0708
tp6074
a(lp6075
(I2
F0.0598
tp6076
a(lp6077
(I1
F0.0149
tp6078
a(lp6079
(I3
F0.0408
tp6080
a(lp6081
(I0
F0.0156
tp6082
a(lp6083
(I3
F-0.0138
tp6084
a(lp6085
(I1
F-0.0283
tp6086
a(F878.0
F25.0
tp6087
a(F801.0
F16.0
tp6088
aa(lp6089
(I1
F-0.0228
tp6090
a(F1362.0
F12.0
tp6091
a(lp6092
(I2
F-0.0004
tp6093
a(F815.0
F24.0
tp6094
a(F1065.0
F14.0
tp6095
aaaa(F797.0
F35.0
tp6096
aa(lp6097
(I0
F-0.0019
tp6098
a(F1315.0
F35.0
tp6099
a(F966.0
F70.0
tp6100
aaa(lp6101
(I1
F0.0715
tp6102
a(lp6103
(I3
F0.0584
tp6104
a(lp6105
(I2
F0.0454
tp6106
a(lp6107
(I3
F0.0127
tp6108
a(F1426.0
F68.0
tp6109
a(lp6110
(I0
F0.0277
tp6111
a(F829.0
F73.0
tp6112
a(F1058.0
F59.0
tp6113
aaa(F747.0
F29.0
tp6114
aa(F1289.0
F128.0
tp6115
aa(F945.0
F119.0
tp6116
aaa(lp6117
(I0
F0.0615
tp6118
a(lp6119
(I3
F0.0743
tp6120
a(F1110.0
F183.0
tp6121
a(F693.0
F214.0
tp6122
aa(F752.0
F117.0
tp6123
aaa(lp6124
(I3
F0.0829
tp6125
a(lp6126
(I0
F0.0936
tp6127
a(lp6128
(I2
F0.0792
tp6129
a(F965.0
F136.0
tp6130
a(F658.0
F155.0
tp6131
aa(lp6132
(I2
F0.1182
tp6133
a(lp6134
(I2
F0.0914
tp6135
a(F844.0
F230.0
tp6136
a(F672.0
F134.0
tp6137
aa(F578.0
F230.0
tp6138
aaa(lp6139
(I3
F0.1392
tp6140
a(lp6141
(I2
F0.1228
tp6142
a(lp6143
(I2
F0.1021
tp6144
a(F880.0
F296.0
tp6145
a(F697.0
F200.0
tp6146
aa(F599.0
F257.0
tp6147
aa(F905.0
F465.0
tp6148
aaaa(lp6149
(I0
F0.2201
tp6150
a(lp6151
(I2
F0.1751
tp6152
a(lp6153
(I2
F0.0969
tp6154
a(lp6155
(I2
F0.0454
tp6156
a(F692.0
F109.0
tp6157
a(F776.0
F233.0
tp6158
aa(lp6159
(I1
F0.1623
tp6160
a(lp6161
(I3
F0.1016
tp6162
a(F593.0
F214.0
tp6163
a(F654.0
F342.0
tp6164
aa(F895.0
F553.0
tp6165
aaa(lp6166
(I2
F0.1974
tp6167
a(F413.0
F404.0
tp6168
a(F353.0
F437.0
tp6169
aaa(lp6170
(I3
F0.2088
tp6171
a(F691.0
F838.0
tp6172
a(F230.0
F1063.0
tp6173
aaaa(lp6174
(I0
F0.1279
tp6175
a(lp6176
(I2
F0.0727
tp6177
a(lp6178
(I0
F0.0337
tp6179
a(lp6180
(I1
F0.0606
tp6181
a(lp6182
(I3
F0.0199
tp6183
a(lp6184
(I0
F0.0149
tp6185
a(lp6186
(I1
F-0.0123
tp6187
a(lp6188
(I1
F-0.0465
tp6189
a(F1005.0
F19.0
tp6190
a(lp6191
(I3
F-0.0125
tp6192
a(F782.0
F7.0
tp6193
a(F903.0
F7.0
tp6194
aaa(lp6195
(I3
F-0.0008
tp6196
a(F1183.0
F20.0
tp6197
a(F881.0
F22.0
tp6198
aaa(F1090.0
F34.0
tp6199
aa(lp6200
(I1
F0.0157
tp6201
a(lp6202
(I3
F0.0408
tp6203
a(F1202.0
F32.0
tp6204
a(lp6205
(I0
F-0.0017
tp6206
a(F1376.0
F50.0
tp6207
a(F766.0
F54.0
tp6208
aaa(lp6209
(I2
F0.0262
tp6210
a(F739.0
F56.0
tp6211
a(F734.0
F62.0
tp6212
aaaa(F757.0
F97.0
tp6213
aa(lp6214
(I1
F0.1133
tp6215
a(lp6216
(I0
F0.062
tp6217
a(lp6218
(I0
F0.0469
tp6219
a(lp6220
(I2
F0.0385
tp6221
a(F873.0
F70.0
tp6222
a(F904.0
F117.0
tp6223
aa(lp6224
(I2
F0.0533
tp6225
a(F1064.0
F59.0
tp6226
a(F718.0
F66.0
tp6227
aaa(lp6228
(I3
F0.0627
tp6229
a(F1220.0
F142.0
tp6230
a(F690.0
F108.0
tp6231
aaa(F683.0
F173.0
tp6232
aaa(lp6233
(I2
F0.1369
tp6234
a(lp6235
(I1
F0.1216
tp6236
a(lp6237
(I3
F0.0579
tp6238
a(lp6239
(I0
F0.0789
tp6240
a(F699.0
F113.0
tp6241
a(F710.0
F147.0
tp6242
aa(lp6243
(I2
F0.085
tp6244
a(F733.0
F151.0
tp6245
a(lp6246
(I3
F0.1207
tp6247
a(lp6248
(I2
F0.1012
tp6249
a(F701.0
F215.0
tp6250
a(F865.0
F222.0
tp6251
aa(F664.0
F224.0
tp6252
aaaa(F1015.0
F377.0
tp6253
aa(F579.0
F349.0
tp6254
aaa(lp6255
(I1
F0.2181
tp6256
a(lp6257
(I2
F0.1786
tp6258
a(lp6259
(I3
F0.0878
tp6260
a(lp6261
(I1
F0.1509
tp6262
a(F994.0
F256.0
tp6263
a(F709.0
F276.0
tp6264
aa(lp6265
(I2
F0.139
tp6266
a(F637.0
F336.0
tp6267
a(lp6268
(I0
F0.1581
tp6269
a(F522.0
F350.0
tp6270
a(F562.0
F327.0
tp6271
aaaa(lp6272
(I1
F0.1753
tp6273
a(F500.0
F453.0
tp6274
a(F497.0
F546.0
tp6275
aaa(lp6276
(I3
F0.2197
tp6277
a(lp6278
(I1
F0.2875
tp6279
a(F420.0
F551.0
tp6280
a(F386.0
F440.0
tp6281
aa(F172.0
F997.0
tp6282
aaaa(lp6283
(I2
F0.137
tp6284
a(lp6285
(I2
F0.0727
tp6286
a(lp6287
(I1
F0.0548
tp6288
a(lp6289
(I2
F0.0383
tp6290
a(lp6291
(I3
F0.0576
tp6292
a(lp6293
(I1
F0.0151
tp6294
a(lp6295
(I3
F0.0264
tp6296
a(lp6297
(I1
F-0.0123
tp6298
a(lp6299
(I0
F-0.0181
tp6300
a(lp6301
(I0
F-0.0417
tp6302
a(F826.0
F16.0
tp6303
a(F976.0
F7.0
tp6304
aa(F1063.0
F20.0
tp6305
aa(lp6306
(I2
F-0.0037
tp6307
a(F731.0
F35.0
tp6308
a(F1195.0
F18.0
tp6309
aaa(F1183.0
F46.0
tp6310
aa(lp6311
(I1
F0.0289
tp6312
a(F1157.0
F79.0
tp6313
a(F1396.0
F51.0
tp6314
aaa(lp6315
(I1
F-0.0195
tp6316
a(F750.0
F32.0
tp6317
a(F1123.0
F112.0
tp6318
aaa(lp6319
(I2
F0.0574
tp6320
a(lp6321
(I3
F0.0509
tp6322
a(F1199.0
F83.0
tp6323
a(F763.0
F105.0
tp6324
aa(F806.0
F108.0
tp6325
aaa(lp6326
(I2
F0.0196
tp6327
a(F1289.0
F126.0
tp6328
a(lp6329
(I0
F0.0974
tp6330
a(lp6331
(I1
F0.0986
tp6332
a(lp6333
(I2
F0.0584
tp6334
a(F1360.0
F146.0
tp6335
a(F896.0
F118.0
tp6336
aa(F747.0
F140.0
tp6337
aa(F667.0
F200.0
tp6338
aaaa(lp6339
(I0
F0.1436
tp6340
a(lp6341
(I3
F0.0926
tp6342
a(lp6343
(I1
F0.1349
tp6344
a(lp6345
(I0
F0.0903
tp6346
a(lp6347
(I0
F0.0712
tp6348
a(F767.0
F183.0
tp6349
a(F846.0
F144.0
tp6350
aa(lp6351
(I1
F0.1073
tp6352
a(F686.0
F194.0
tp6353
a(F663.0
F158.0
tp6354
aaa(F596.0
F188.0
tp6355
aa(lp6356
(I2
F0.1093
tp6357
a(F1235.0
F378.0
tp6358
a(lp6359
(I3
F0.1237
tp6360
a(F609.0
F219.0
tp6361
a(F533.0
F269.0
tp6362
aaaa(F599.0
F332.0
tp6363
aaa(lp6364
(I1
F0.2217
tp6365
a(lp6366
(I2
F0.1788
tp6367
a(lp6368
(I3
F0.0895
tp6369
a(F786.0
F328.0
tp6370
a(lp6371
(I2
F0.1514
tp6372
a(F532.0
F416.0
tp6373
a(F856.0
F522.0
tp6374
aaa(lp6375
(I3
F0.1366
tp6376
a(F523.0
F361.0
tp6377
a(F616.0
F745.0
tp6378
aaa(lp6379
(I3
F0.221
tp6380
a(F640.0
F818.0
tp6381
a(F149.0
F1000.0
tp6382
aaaa(lp6383
(I2
F0.1198
tp6384
a(lp6385
(I1
F0.0569
tp6386
a(lp6387
(I2
F0.0591
tp6388
a(lp6389
(I1
F0.0157
tp6390
a(lp6391
(I3
F0.0408
tp6392
a(lp6393
(I1
F-0.014
tp6394
a(lp6395
(I2
F0.0038
tp6396
a(lp6397
(I0
F-0.0316
tp6398
a(F1167.0
F22.0
tp6399
a(F1387.0
F8.0
tp6400
aa(F777.0
F16.0
tp6401
aa(lp6402
(I0
F0.01
tp6403
a(lp6404
(I3
F-0.0003
tp6405
a(F801.0
F7.0
tp6406
a(F874.0
F28.0
tp6407
aa(F1003.0
F41.0
tp6408
aaa(lp6409
(I0
F-0.006
tp6410
a(F1200.0
F40.0
tp6411
a(F1039.0
F84.0
tp6412
aaa(lp6413
(I2
F0.0283
tp6414
a(lp6415
(I0
F0.0183
tp6416
a(F994.0
F45.0
tp6417
a(F1241.0
F89.0
tp6418
aa(lp6419
(I1
F0.031
tp6420
a(F756.0
F78.0
tp6421
a(lp6422
(I1
F0.0429
tp6423
a(F760.0
F49.0
tp6424
a(F845.0
F76.0
tp6425
aaaaa(lp6426
(I2
F0.0824
tp6427
a(F1097.0
F152.0
tp6428
a(F622.0
F164.0
tp6429
aaa(lp6430
(I0
F0.094
tp6431
a(lp6432
(I2
F0.0727
tp6433
a(lp6434
(I3
F0.0717
tp6435
a(lp6436
(I1
F0.1262
tp6437
a(lp6438
(I3
F0.0437
tp6439
a(lp6440
(I2
F0.0366
tp6441
a(F682.0
F86.0
tp6442
a(F724.0
F66.0
tp6443
aa(F798.0
F55.0
tp6444
aa(F745.0
F110.0
tp6445
aa(F679.0
F116.0
tp6446
aa(lp6447
(I3
F0.0698
tp6448
a(F833.0
F115.0
tp6449
a(F913.0
F306.0
tp6450
aaa(lp6451
(I0
F0.1605
tp6452
a(lp6453
(I3
F0.0624
tp6454
a(F1241.0
F246.0
tp6455
a(lp6456
(I2
F0.1066
tp6457
a(F990.0
F347.0
tp6458
a(F677.0
F291.0
tp6459
aaa(F498.0
F264.0
tp6460
aaaa(lp6461
(I2
F0.2035
tp6462
a(lp6463
(I0
F0.1494
tp6464
a(lp6465
(I3
F0.1411
tp6466
a(lp6467
(I3
F0.0941
tp6468
a(F1100.0
F368.0
tp6469
a(F818.0
F352.0
tp6470
aa(F496.0
F401.0
tp6471
aa(lp6472
(I0
F0.1774
tp6473
a(lp6474
(I1
F0.1625
tp6475
a(F656.0
F364.0
tp6476
a(F446.0
F346.0
tp6477
aa(F734.0
F630.0
tp6478
aaa(lp6479
(I3
F0.2119
tp6480
a(lp6481
(I0
F0.2675
tp6482
a(F460.0
F602.0
tp6483
a(F436.0
F383.0
tp6484
aa(lp6485
(I0
F0.2881
tp6486
a(F246.0
F532.0
tp6487
a(F130.0
F716.0
tp6488
aaaaa(lp6489
(I0
F0.1225
tp6490
a(lp6491
(I0
F0.055
tp6492
a(lp6493
(I1
F0.015
tp6494
a(lp6495
(I0
F0.0194
tp6496
a(lp6497
(I3
F0.0408
tp6498
a(lp6499
(I0
F-0.004
tp6500
a(lp6501
(I1
F-0.0451
tp6502
a(F1163.0
F36.0
tp6503
a(lp6504
(I2
F-0.0157
tp6505
a(F1152.0
F3.0
tp6506
a(F1390.0
F24.0
tp6507
aaa(lp6508
(I1
F-0.0017
tp6509
a(F841.0
F22.0
tp6510
a(F847.0
F35.0
tp6511
aaa(lp6512
(I0
F-0.0079
tp6513
a(F1245.0
F55.0
tp6514
a(F721.0
F55.0
tp6515
aaa(F1122.0
F101.0
tp6516
aa(lp6517
(I1
F0.0674
tp6518
a(lp6519
(I3
F0.0743
tp6520
a(lp6521
(I0
F0.0403
tp6522
a(lp6523
(I2
F0.0382
tp6524
a(lp6525
(I3
F0.0178
tp6526
a(F1238.0
F33.0
tp6527
a(F1187.0
F77.0
tp6528
aa(F726.0
F69.0
tp6529
aa(F1211.0
F95.0
tp6530
aa(F992.0
F153.0
tp6531
aa(lp6532
(I2
F0.0288
tp6533
a(F728.0
F82.0
tp6534
a(F681.0
F123.0
tp6535
aaaa(lp6536
(I0
F0.0834
tp6537
a(lp6538
(I1
F0.0958
tp6539
a(lp6540
(I2
F0.0817
tp6541
a(lp6542
(I3
F0.0738
tp6543
a(lp6544
(I3
F0.0338
tp6545
a(F746.0
F54.0
tp6546
a(F999.0
F109.0
tp6547
aa(F720.0
F136.0
tp6548
aa(F687.0
F225.0
tp6549
aa(F618.0
F176.0
tp6550
aa(lp6551
(I2
F0.1232
tp6552
a(lp6553
(I1
F0.13
tp6554
a(lp6555
(I3
F0.0669
tp6556
a(F1197.0
F220.0
tp6557
a(lp6558
(I2
F0.1057
tp6559
a(F1128.0
F306.0
tp6560
a(F635.0
F207.0
tp6561
aaa(F604.0
F221.0
tp6562
aa(F495.0
F302.0
tp6563
aaaa(lp6564
(I1
F0.2347
tp6565
a(lp6566
(I2
F0.1734
tp6567
a(lp6568
(I3
F0.0929
tp6569
a(lp6570
(I0
F0.1522
tp6571
a(F1011.0
F285.0
tp6572
a(F955.0
F377.0
tp6573
aa(lp6574
(I2
F0.1512
tp6575
a(lp6576
(I1
F0.1345
tp6577
a(F486.0
F321.0
tp6578
a(F657.0
F353.0
tp6579
aa(F651.0
F329.0
tp6580
aaa(lp6581
(I2
F0.2034
tp6582
a(F734.0
F533.0
tp6583
a(F606.0
F711.0
tp6584
aaa(lp6585
(I0
F0.3615
tp6586
a(lp6587
(I3
F0.1451
tp6588
a(F428.0
F384.0
tp6589
a(F172.0
F631.0
tp6590
aa(F134.0
F710.0
tp6591
aaaa(lp6592
(I1
F0.1299
tp6593
a(lp6594
(I0
F0.0727
tp6595
a(lp6596
(I0
F0.0336
tp6597
a(lp6598
(I2
F0.0629
tp6599
a(lp6600
(I1
F0.0143
tp6601
a(lp6602
(I3
F0.0408
tp6603
a(lp6604
(I0
F-0.0473
tp6605
a(F739.0
F20.0
tp6606
a(lp6607
(I3
F0.0033
tp6608
a(lp6609
(I3
F-0.0284
tp6610
a(F812.0
F15.0
tp6611
a(lp6612
(I0
F-0.0135
tp6613
a(F804.0
F3.0
tp6614
a(F1094.0
F16.0
tp6615
aaa(lp6616
(I2
F-0.0004
tp6617
a(F791.0
F26.0
tp6618
a(F1412.0
F23.0
tp6619
aaaa(lp6620
(I0
F-0.0055
tp6621
a(F1191.0
F48.0
tp6622
a(F764.0
F52.0
tp6623
aaa(lp6624
(I2
F0.0269
tp6625
a(lp6626
(I0
F0.0188
tp6627
a(F1318.0
F78.0
tp6628
a(F852.0
F34.0
tp6629
aa(F1109.0
F85.0
tp6630
aaa(F724.0
F140.0
tp6631
aa(lp6632
(I2
F0.084
tp6633
a(lp6634
(I3
F0.0727
tp6635
a(lp6636
(I3
F0.0075
tp6637
a(F834.0
F87.0
tp6638
a(lp6639
(I3
F0.03
tp6640
a(F817.0
F39.0
tp6641
a(lp6642
(I0
F0.0493
tp6643
a(F954.0
F103.0
tp6644
a(F1263.0
F92.0
tp6645
aaaa(F1055.0
F183.0
tp6646
aa(F625.0
F222.0
tp6647
aaa(lp6648
(I3
F0.1242
tp6649
a(lp6650
(I3
F0.0811
tp6651
a(lp6652
(I1
F0.1131
tp6653
a(lp6654
(I2
F0.1056
tp6655
a(lp6656
(I3
F0.0299
tp6657
a(F781.0
F100.0
tp6658
a(F1202.0
F222.0
tp6659
aa(F592.0
F226.0
tp6660
aa(F593.0
F194.0
tp6661
aa(lp6662
(I0
F0.0981
tp6663
a(F610.0
F178.0
tp6664
a(F968.0
F338.0
tp6665
aaa(lp6666
(I2
F0.1229
tp6667
a(F624.0
F186.0
tp6668
a(F547.0
F397.0
tp6669
aaaa(lp6670
(I2
F0.1786
tp6671
a(lp6672
(I2
F0.0444
tp6673
a(F813.0
F169.0
tp6674
a(lp6675
(I1
F0.2024
tp6676
a(lp6677
(I3
F0.0764
tp6678
a(lp6679
(I1
F0.1565
tp6680
a(F634.0
F233.0
tp6681
a(F643.0
F190.0
tp6682
aa(lp6683
(I3
F0.1108
tp6684
a(F541.0
F270.0
tp6685
a(lp6686
(I3
F0.1403
tp6687
a(F486.0
F312.0
tp6688
a(F704.0
F395.0
tp6689
aaaa(F439.0
F343.0
tp6690
aaa(lp6691
(I0
F0.3609
tp6692
a(lp6693
(I2
F0.2073
tp6694
a(F538.0
F520.0
tp6695
a(lp6696
(I3
F0.2092
tp6697
a(F580.0
F644.0
tp6698
a(F248.0
F759.0
tp6699
aaa(F153.0
F664.0
tp6700
aaaa(lp6701
(I2
F0.1248
tp6702
a(lp6703
(I1
F0.0708
tp6704
a(lp6705
(I0
F0.0393
tp6706
a(lp6707
(I2
F0.0267
tp6708
a(lp6709
(I3
F0.0408
tp6710
a(lp6711
(I1
F-0.0122
tp6712
a(lp6713
(I2
F-0.0052
tp6714
a(lp6715
(I1
F-0.0451
tp6716
a(F952.0
F14.0
tp6717
a(F1340.0
F2.0
tp6718
aa(F860.0
F20.0
tp6719
aa(lp6720
(I1
F0.0281
tp6721
a(lp6722
(I1
F-0.0
tp6723
a(F964.0
F33.0
tp6724
a(lp6725
(I0
F0.0074
tp6726
a(F782.0
F8.0
tp6727
a(F1013.0
F30.0
tp6728
aaa(F812.0
F36.0
tp6729
aaa(lp6730
(I0
F-0.0121
tp6731
a(F992.0
F35.0
tp6732
a(F1138.0
F74.0
tp6733
aaa(lp6734
(I2
F0.0552
tp6735
a(lp6736
(I3
F0.0297
tp6737
a(F1071.0
F42.0
tp6738
a(F1252.0
F110.0
tp6739
aa(F832.0
F102.0
tp6740
aaa(lp6741
(I2
F0.08
tp6742
a(lp6743
(I2
F0.0549
tp6744
a(lp6745
(I1
F0.0419
tp6746
a(F1022.0
F106.0
tp6747
a(F1157.0
F94.0
tp6748
aa(lp6749
(I3
F0.0574
tp6750
a(F707.0
F70.0
tp6751
a(F761.0
F122.0
tp6752
aaa(F704.0
F193.0
tp6753
aaa(lp6754
(I3
F0.0779
tp6755
a(lp6756
(I2
F0.1006
tp6757
a(lp6758
(I0
F0.0899
tp6759
a(lp6760
(I2
F0.0522
tp6761
a(F1399.0
F144.0
tp6762
a(F1226.0
F178.0
tp6763
aa(lp6764
(I0
F0.1339
tp6765
a(F1077.0
F241.0
tp6766
a(F623.0
F197.0
tp6767
aaa(F748.0
F223.0
tp6768
aa(lp6769
(I0
F0.1211
tp6770
a(lp6771
(I0
F0.0917
tp6772
a(F892.0
F221.0
tp6773
a(F1170.0
F418.0
tp6774
aa(F495.0
F278.0
tp6775
aaaa(lp6776
(I1
F0.2208
tp6777
a(lp6778
(I0
F0.1763
tp6779
a(lp6780
(I2
F0.1685
tp6781
a(lp6782
(I0
F0.1557
tp6783
a(lp6784
(I2
F0.1427
tp6785
a(lp6786
(I1
F0.1262
tp6787
a(F535.0
F250.0
tp6788
a(F668.0
F276.0
tp6789
aa(F816.0
F488.0
tp6790
aa(F563.0
F235.0
tp6791
aa(F631.0
F486.0
tp6792
aa(lp6793
(I1
F0.1796
tp6794
a(F443.0
F358.0
tp6795
a(F617.0
F586.0
tp6796
aaa(lp6797
(I3
F0.2092
tp6798
a(F567.0
F745.0
tp6799
a(F181.0
F1035.0
tp6800
aaaa(lp6801
(I1
F0.1127
tp6802
a(lp6803
(I0
F0.072
tp6804
a(lp6805
(I2
F0.0547
tp6806
a(lp6807
(I2
F0.0267
tp6808
a(lp6809
(I0
F0.0331
tp6810
a(lp6811
(I3
F0.0178
tp6812
a(lp6813
(I1
F0.0066
tp6814
a(lp6815
(I3
F-0.0138
tp6816
a(lp6817
(I3
F-0.0308
tp6818
a(F840.0
F10.0
tp6819
a(F813.0
F21.0
tp6820
aa(lp6821
(I0
F-0.0083
tp6822
a(F1201.0
F6.0
tp6823
a(F763.0
F12.0
tp6824
aaa(F1524.0
F48.0
tp6825
aa(lp6826
(I1
F0.0161
tp6827
a(lp6828
(I0
F-0.004
tp6829
a(lp6830
(I1
F-0.0358
tp6831
a(F754.0
F33.0
tp6832
a(F874.0
F15.0
tp6833
aa(F1068.0
F52.0
tp6834
aa(F862.0
F54.0
tp6835
aaa(F783.0
F67.0
tp6836
aa(lp6837
(I1
F0.0149
tp6838
a(F1228.0
F54.0
tp6839
a(lp6840
(I3
F0.0603
tp6841
a(lp6842
(I0
F0.045
tp6843
a(F1446.0
F120.0
tp6844
a(F819.0
F48.0
tp6845
aa(F702.0
F80.0
tp6846
aaaa(lp6847
(I2
F0.0824
tp6848
a(lp6849
(I2
F0.0632
tp6850
a(F900.0
F127.0
tp6851
a(F1336.0
F150.0
tp6852
aa(F1011.0
F263.0
tp6853
aaa(lp6854
(I2
F0.1255
tp6855
a(lp6856
(I2
F0.0742
tp6857
a(F1302.0
F172.0
tp6858
a(lp6859
(I3
F0.0879
tp6860
a(lp6861
(I0
F0.0914
tp6862
a(F664.0
F128.0
tp6863
a(F768.0
F179.0
tp6864
aa(F1071.0
F404.0
tp6865
aaa(F766.0
F456.0
tp6866
aaa(lp6867
(I3
F0.2103
tp6868
a(lp6869
(I2
F0.1788
tp6870
a(lp6871
(I0
F0.1803
tp6872
a(lp6873
(I3
F0.0903
tp6874
a(lp6875
(I3
F0.0359
tp6876
a(lp6877
(I2
F0.0471
tp6878
a(F747.0
F89.0
tp6879
a(F870.0
F224.0
tp6880
aa(lp6881
(I3
F0.0626
tp6882
a(F766.0
F270.0
tp6883
a(F816.0
F223.0
tp6884
aaa(lp6885
(I2
F0.1358
tp6886
a(F1076.0
F470.0
tp6887
a(lp6888
(I1
F0.1558
tp6889
a(F557.0
F364.0
tp6890
a(F533.0
F248.0
tp6891
aaaa(F508.0
F416.0
tp6892
aa(lp6893
(I3
F0.0743
tp6894
a(F486.0
F436.0
tp6895
a(F677.0
F833.0
tp6896
aaa(lp6897
(I1
F0.2469
tp6898
a(F328.0
F471.0
tp6899
a(F108.0
F950.0
tp6900
aaaa(lp6901
(I0
F0.1321
tp6902
a(lp6903
(I2
F0.072
tp6904
a(lp6905
(I2
F0.0441
tp6906
a(lp6907
(I3
F0.0299
tp6908
a(lp6909
(I0
F0.0183
tp6910
a(lp6911
(I0
F-0.0116
tp6912
a(lp6913
(I0
F-0.0234
tp6914
a(lp6915
(I0
F-0.0371
tp6916
a(F1156.0
F16.0
tp6917
a(F766.0
F22.0
tp6918
aa(F1030.0
F4.0
tp6919
aa(lp6920
(I1
F0.0156
tp6921
a(lp6922
(I2
F-0.0025
tp6923
a(F782.0
F22.0
tp6924
a(F1281.0
F16.0
tp6925
aa(F808.0
F47.0
tp6926
aaa(lp6927
(I1
F0.0668
tp6928
a(lp6929
(I1
F0.0284
tp6930
a(F966.0
F65.0
tp6931
a(F953.0
F42.0
tp6932
aa(F717.0
F68.0
tp6933
aaa(lp6934
(I3
F0.0584
tp6935
a(lp6936
(I0
F0.0123
tp6937
a(F931.0
F41.0
tp6938
a(lp6939
(I3
F0.0417
tp6940
a(F788.0
F75.0
tp6941
a(F735.0
F42.0
tp6942
aaa(lp6943
(I1
F0.0157
tp6944
a(F1466.0
F90.0
tp6945
a(F928.0
F118.0
tp6946
aaaa(lp6947
(I3
F0.0804
tp6948
a(lp6949
(I1
F0.0828
tp6950
a(lp6951
(I2
F0.0592
tp6952
a(lp6953
(I1
F0.0428
tp6954
a(F828.0
F47.0
tp6955
a(F849.0
F67.0
tp6956
aa(F1048.0
F107.0
tp6957
aa(F706.0
F151.0
tp6958
aa(F850.0
F169.0
tp6959
aaa(lp6960
(I2
F0.1294
tp6961
a(lp6962
(I3
F0.081
tp6963
a(lp6964
(I0
F0.0883
tp6965
a(lp6966
(I2
F0.0831
tp6967
a(F707.0
F94.0
tp6968
a(F679.0
F139.0
tp6969
aa(lp6970
(I1
F0.1098
tp6971
a(F689.0
F154.0
tp6972
a(F657.0
F223.0
tp6973
aaa(lp6974
(I1
F0.071
tp6975
a(F684.0
F164.0
tp6976
a(lp6977
(I3
F0.1049
tp6978
a(F792.0
F250.0
tp6979
a(F1072.0
F436.0
tp6980
aaaa(F913.0
F535.0
tp6981
aaa(lp6982
(I3
F0.2188
tp6983
a(lp6984
(I1
F0.2159
tp6985
a(lp6986
(I2
F0.1677
tp6987
a(lp6988
(I3
F0.0924
tp6989
a(lp6990
(I2
F0.0959
tp6991
a(F662.0
F173.0
tp6992
a(F875.0
F325.0
tp6993
aa(lp6994
(I1
F0.1427
tp6995
a(F483.0
F322.0
tp6996
a(F732.0
F427.0
tp6997
aaa(lp6998
(I2
F0.19
tp6999
a(F528.0
F394.0
tp7000
a(F485.0
F486.0
tp7001
aaa(lp7002
(I2
F0.2604
tp7003
a(F375.0
F643.0
tp7004
a(F384.0
F411.0
tp7005
aaa(lp7006
(I2
F0.272
tp7007
a(F313.0
F477.0
tp7008
a(F135.0
F845.0
tp7009
aaaa(lp7010
(I1
F0.1127
tp7011
a(lp7012
(I2
F0.081
tp7013
a(lp7014
(I2
F0.0283
tp7015
a(lp7016
(I0
F0.0152
tp7017
a(lp7018
(I1
F-0.015
tp7019
a(lp7020
(I3
F0.0382
tp7021
a(lp7022
(I1
F-0.0466
tp7023
a(F1077.0
F16.0
tp7024
a(lp7025
(I2
F-0.0135
tp7026
a(F898.0
F1.0
tp7027
a(F794.0
F5.0
tp7028
aaa(F938.0
F35.0
tp7029
aa(lp7030
(I1
F-0.0049
tp7031
a(F844.0
F38.0
tp7032
a(lp7033
(I3
F0.0181
tp7034
a(lp7035
(I3
F-0.0055
tp7036
a(F779.0
F6.0
tp7037
a(F786.0
F14.0
tp7038
aa(F962.0
F42.0
tp7039
aaaa(lp7040
(I1
F0.0515
tp7041
a(lp7042
(I1
F0.0136
tp7043
a(F737.0
F38.0
tp7044
a(F1347.0
F96.0
tp7045
aa(F712.0
F76.0
tp7046
aaa(lp7047
(I0
F0.0828
tp7048
a(lp7049
(I2
F0.0563
tp7050
a(lp7051
(I1
F0.0188
tp7052
a(F1268.0
F64.0
tp7053
a(lp7054
(I3
F0.0639
tp7055
a(lp7056
(I0
F0.0438
tp7057
a(F1205.0
F110.0
tp7058
a(F1222.0
F70.0
tp7059
aa(F688.0
F97.0
tp7060
aaa(lp7061
(I2
F0.0647
tp7062
a(F1014.0
F103.0
tp7063
a(lp7064
(I1
F0.0619
tp7065
a(F765.0
F105.0
tp7066
a(F806.0
F94.0
tp7067
aaaa(F701.0
F147.0
tp7068
aaa(lp7069
(I3
F0.081
tp7070
a(lp7071
(I3
F0.0502
tp7072
a(F1185.0
F298.0
tp7073
a(F756.0
F149.0
tp7074
aa(lp7075
(I2
F0.1255
tp7076
a(lp7077
(I0
F0.0941
tp7078
a(F698.0
F215.0
tp7079
a(F679.0
F280.0
tp7080
aa(F591.0
F380.0
tp7081
aaaa(lp7082
(I2
F0.1786
tp7083
a(lp7084
(I3
F0.0948
tp7085
a(lp7086
(I0
F0.1729
tp7087
a(lp7088
(I2
F0.0524
tp7089
a(F985.0
F126.0
tp7090
a(lp7091
(I2
F0.1113
tp7092
a(F1267.0
F327.0
tp7093
a(F1042.0
F368.0
tp7094
aaa(F479.0
F310.0
tp7095
aa(lp7096
(I1
F0.1541
tp7097
a(lp7098
(I3
F0.1237
tp7099
a(F629.0
F239.0
tp7100
a(F776.0
F410.0
tp7101
aa(F802.0
F585.0
tp7102
aaa(lp7103
(I2
F0.3612
tp7104
a(lp7105
(I2
F0.2073
tp7106
a(F549.0
F549.0
tp7107
a(lp7108
(I3
F0.1491
tp7109
a(F427.0
F442.0
tp7110
a(F381.0
F1017.0
tp7111
aaa(F147.0
F672.0
tp7112
aaaa(lp7113
(I2
F0.126
tp7114
a(lp7115
(I0
F0.0652
tp7116
a(lp7117
(I0
F0.0287
tp7118
a(lp7119
(I3
F0.0186
tp7120
a(lp7121
(I1
F0.0168
tp7122
a(lp7123
(I2
F-0.0107
tp7124
a(lp7125
(I1
F-0.022
tp7126
a(F1474.0
F18.0
tp7127
a(F808.0
F25.0
tp7128
aa(lp7129
(I1
F-0.0155
tp7130
a(F893.0
F15.0
tp7131
a(F1434.0
F11.0
tp7132
aaa(lp7133
(I2
F0.0049
tp7134
a(F760.0
F31.0
tp7135
a(F727.0
F37.0
tp7136
aaa(lp7137
(I1
F0.0161
tp7138
a(lp7139
(I2
F-0.0174
tp7140
a(F796.0
F22.0
tp7141
a(lp7142
(I1
F0.0012
tp7143
a(lp7144
(I1
F-0.0159
tp7145
a(F1071.0
F66.0
tp7146
a(F749.0
F70.0
tp7147
aa(F799.0
F23.0
tp7148
aaa(lp7149
(I0
F0.0182
tp7150
a(F739.0
F56.0
tp7151
a(F695.0
F75.0
tp7152
aaaa(lp7153
(I3
F0.0727
tp7154
a(lp7155
(I2
F0.0567
tp7156
a(lp7157
(I0
F0.0403
tp7158
a(F1392.0
F75.0
tp7159
a(lp7160
(I1
F0.0551
tp7161
a(F1151.0
F75.0
tp7162
a(F816.0
F83.0
tp7163
aaa(F968.0
F167.0
tp7164
aa(F1139.0
F240.0
tp7165
aaa(lp7166
(I1
F0.1233
tp7167
a(lp7168
(I0
F0.0925
tp7169
a(lp7170
(I2
F0.0615
tp7171
a(F799.0
F87.0
tp7172
a(lp7173
(I0
F0.0834
tp7174
a(lp7175
(I0
F0.0743
tp7176
a(F658.0
F136.0
tp7177
a(F713.0
F118.0
tp7178
aa(F670.0
F149.0
tp7179
aaa(lp7180
(I0
F0.1103
tp7181
a(lp7182
(I3
F0.0815
tp7183
a(F710.0
F156.0
tp7184
a(F597.0
F228.0
tp7185
aa(F1227.0
F274.0
tp7186
aaa(lp7187
(I2
F0.0862
tp7188
a(F1019.0
F326.0
tp7189
a(lp7190
(I3
F0.078
tp7191
a(F576.0
F212.0
tp7192
a(F506.0
F297.0
tp7193
aaaaa(lp7194
(I1
F0.2204
tp7195
a(lp7196
(I3
F0.1155
tp7197
a(lp7198
(I0
F0.1579
tp7199
a(lp7200
(I0
F0.1324
tp7201
a(F783.0
F318.0
tp7202
a(F660.0
F171.0
tp7203
aa(F716.0
F460.0
tp7204
aa(lp7205
(I3
F0.2027
tp7206
a(lp7207
(I2
F0.1751
tp7208
a(lp7209
(I1
F0.1427
tp7210
a(F603.0
F414.0
tp7211
a(F638.0
F392.0
tp7212
aa(F469.0
F390.0
tp7213
aa(F461.0
F520.0
tp7214
aaa(lp7215
(I3
F0.2255
tp7216
a(F626.0
F804.0
tp7217
a(F154.0
F923.0
tp7218
aaaa(lp7219
(I2
F0.125
tp7220
a(lp7221
(I0
F0.0619
tp7222
a(lp7223
(I1
F0.0149
tp7224
a(lp7225
(I2
F0.0443
tp7226
a(lp7227
(I3
F0.0408
tp7228
a(lp7229
(I0
F0.0131
tp7230
a(lp7231
(I1
F-0.0466
tp7232
a(F1080.0
F31.0
tp7233
a(lp7234
(I1
F-0.0123
tp7235
a(lp7236
(I0
F-0.0207
tp7237
a(F901.0
F14.0
tp7238
a(F1016.0
F4.0
tp7239
aa(lp7240
(I1
F0.0011
tp7241
a(F922.0
F27.0
tp7242
a(F794.0
F7.0
tp7243
aaaa(F825.0
F25.0
tp7244
aa(lp7245
(I1
F-0.0153
tp7246
a(F1115.0
F39.0
tp7247
a(F880.0
F49.0
tp7248
aaa(F875.0
F108.0
tp7249
aa(lp7250
(I0
F0.0393
tp7251
a(lp7252
(I0
F0.0034
tp7253
a(F1003.0
F48.0
tp7254
a(lp7255
(I1
F0.0568
tp7256
a(lp7257
(I3
F0.0375
tp7258
a(lp7259
(I2
F0.0218
tp7260
a(F720.0
F49.0
tp7261
a(F923.0
F39.0
tp7262
aa(F1101.0
F107.0
tp7263
aa(F753.0
F87.0
tp7264
aaa(lp7265
(I3
F0.0728
tp7266
a(lp7267
(I2
F0.0544
tp7268
a(lp7269
(I3
F0.0325
tp7270
a(F833.0
F51.0
tp7271
a(F789.0
F74.0
tp7272
aa(F733.0
F97.0
tp7273
aa(F687.0
F147.0
tp7274
aaaa(lp7275
(I0
F0.1482
tp7276
a(lp7277
(I2
F0.0814
tp7278
a(lp7279
(I1
F0.0863
tp7280
a(lp7281
(I1
F0.0615
tp7282
a(F806.0
F133.0
tp7283
a(F1226.0
F133.0
tp7284
aa(lp7285
(I3
F0.0441
tp7286
a(F740.0
F152.0
tp7287
a(F608.0
F162.0
tp7288
aaa(lp7289
(I1
F0.1303
tp7290
a(lp7291
(I2
F0.1121
tp7292
a(lp7293
(I3
F0.09
tp7294
a(lp7295
(I2
F0.0939
tp7296
a(F664.0
F140.0
tp7297
a(F616.0
F150.0
tp7298
aa(F887.0
F325.0
tp7299
aa(F794.0
F188.0
tp7300
aa(F678.0
F282.0
tp7301
aaa(F781.0
F386.0
tp7302
aaa(lp7303
(I3
F0.2093
tp7304
a(lp7305
(I0
F0.1763
tp7306
a(lp7307
(I2
F0.1732
tp7308
a(lp7309
(I1
F0.1574
tp7310
a(lp7311
(I0
F0.1319
tp7312
a(F921.0
F474.0
tp7313
a(lp7314
(I3
F0.1199
tp7315
a(F618.0
F190.0
tp7316
a(F533.0
F295.0
tp7317
aaa(F622.0
F370.0
tp7318
aa(F460.0
F347.0
tp7319
aa(lp7320
(I1
F0.2159
tp7321
a(F780.0
F647.0
tp7322
a(F616.0
F776.0
tp7323
aaa(lp7324
(I0
F0.2581
tp7325
a(F385.0
F575.0
tp7326
a(F166.0
F881.0
tp7327
aaaa(lp7328
(I2
F0.112
tp7329
a(lp7330
(I2
F0.0583
tp7331
a(lp7332
(I0
F0.1144
tp7333
a(lp7334
(I0
F0.0135
tp7335
a(lp7336
(I1
F0.0143
tp7337
a(lp7338
(I0
F-0.0045
tp7339
a(lp7340
(I3
F0.0382
tp7341
a(lp7342
(I3
F-0.0152
tp7343
a(F1362.0
F31.0
tp7344
a(lp7345
(I0
F-0.021
tp7346
a(F1074.0
F23.0
tp7347
a(F942.0
F6.0
tp7348
aaa(F1248.0
F58.0
tp7349
aa(lp7350
(I1
F-0.0046
tp7351
a(F819.0
F37.0
tp7352
a(F999.0
F29.0
tp7353
aaa(F1488.0
F84.0
tp7354
aa(lp7355
(I1
F0.0549
tp7356
a(lp7357
(I0
F0.0422
tp7358
a(lp7359
(I2
F0.0267
tp7360
a(lp7361
(I2
F0.0131
tp7362
a(F788.0
F43.0
tp7363
a(F992.0
F39.0
tp7364
aa(lp7365
(I3
F0.0372
tp7366
a(F941.0
F36.0
tp7367
a(F781.0
F79.0
tp7368
aaa(lp7369
(I2
F0.042
tp7370
a(F738.0
F73.0
tp7371
a(F757.0
F55.0
tp7372
aaa(lp7373
(I3
F0.0316
tp7374
a(F1207.0
F123.0
tp7375
a(F1247.0
F169.0
tp7376
aaaa(F636.0
F182.0
tp7377
aa(lp7378
(I3
F0.0811
tp7379
a(lp7380
(I0
F0.0922
tp7381
a(lp7382
(I2
F0.0727
tp7383
a(lp7384
(I3
F0.0499
tp7385
a(F722.0
F112.0
tp7386
a(F727.0
F80.0
tp7387
aa(lp7388
(I3
F0.0501
tp7389
a(F722.0
F121.0
tp7390
a(F660.0
F133.0
tp7391
aaa(lp7392
(I2
F0.0938
tp7393
a(F785.0
F270.0
tp7394
a(F650.0
F135.0
tp7395
aaa(lp7396
(I0
F0.0839
tp7397
a(F1058.0
F248.0
tp7398
a(lp7399
(I2
F0.0989
tp7400
a(F603.0
F293.0
tp7401
a(F595.0
F211.0
tp7402
aaaaa(lp7403
(I2
F0.1786
tp7404
a(lp7405
(I1
F0.0687
tp7406
a(F650.0
F170.0
tp7407
a(lp7408
(I0
F0.1492
tp7409
a(lp7410
(I1
F0.1087
tp7411
a(F502.0
F304.0
tp7412
a(lp7413
(I3
F0.1243
tp7414
a(lp7415
(I1
F0.1362
tp7416
a(F729.0
F218.0
tp7417
a(F562.0
F231.0
tp7418
aa(F653.0
F360.0
tp7419
aaa(lp7420
(I1
F0.1635
tp7421
a(F684.0
F339.0
tp7422
a(F672.0
F514.0
tp7423
aaaa(lp7424
(I2
F0.3715
tp7425
a(lp7426
(I2
F0.2171
tp7427
a(lp7428
(I0
F0.1927
tp7429
a(F461.0
F423.0
tp7430
a(F388.0
F389.0
tp7431
aa(lp7432
(I1
F0.2214
tp7433
a(F368.0
F402.0
tp7434
a(F573.0
F873.0
tp7435
aaa(F145.0
F639.0
tp7436
aaaa(lp7437
(I1
F0.1334
tp7438
a(lp7439
(I0
F0.0842
tp7440
a(lp7441
(I0
F0.0365
tp7442
a(lp7443
(I2
F0.0538
tp7444
a(lp7445
(I1
F0.0143
tp7446
a(lp7447
(I3
F0.0493
tp7448
a(lp7449
(I0
F-0.0047
tp7450
a(lp7451
(I2
F-0.0111
tp7452
a(lp7453
(I1
F-0.0451
tp7454
a(F780.0
F25.0
tp7455
a(F1327.0
F24.0
tp7456
aa(F1397.0
F12.0
tp7457
aa(lp7458
(I3
F0.0135
tp7459
a(F1304.0
F42.0
tp7460
a(F1016.0
F19.0
tp7461
aaa(lp7462
(I2
F-0.0023
tp7463
a(F806.0
F31.0
tp7464
a(F834.0
F57.0
tp7465
aaa(lp7466
(I3
F0.0359
tp7467
a(lp7468
(I1
F0.0319
tp7469
a(F1128.0
F79.0
tp7470
a(F1137.0
F54.0
tp7471
aa(F1164.0
F110.0
tp7472
aaa(F1003.0
F169.0
tp7473
aa(lp7474
(I2
F0.082
tp7475
a(lp7476
(I2
F0.0567
tp7477
a(lp7478
(I1
F0.0563
tp7479
a(lp7480
(I1
F0.0306
tp7481
a(F748.0
F71.0
tp7482
a(F1229.0
F71.0
tp7483
aa(F1248.0
F125.0
tp7484
aa(lp7485
(I2
F0.0673
tp7486
a(F961.0
F151.0
tp7487
a(F1165.0
F143.0
tp7488
aaa(F1071.0
F326.0
tp7489
aaa(lp7490
(I2
F0.1351
tp7491
a(lp7492
(I2
F0.0627
tp7493
a(F682.0
F119.0
tp7494
a(lp7495
(I2
F0.1066
tp7496
a(lp7497
(I3
F0.083
tp7498
a(F1068.0
F222.0
tp7499
a(F767.0
F281.0
tp7500
aa(lp7501
(I3
F0.0941
tp7502
a(F654.0
F175.0
tp7503
a(F884.0
F323.0
tp7504
aaaa(F900.0
F580.0
tp7505
aaa(lp7506
(I2
F0.1905
tp7507
a(lp7508
(I3
F0.0878
tp7509
a(lp7510
(I2
F0.0861
tp7511
a(lp7512
(I1
F0.1847
tp7513
a(F727.0
F121.0
tp7514
a(F641.0
F192.0
tp7515
aa(lp7516
(I1
F0.1622
tp7517
a(F605.0
F213.0
tp7518
a(F533.0
F310.0
tp7519
aaa(lp7520
(I0
F0.1727
tp7521
a(lp7522
(I3
F0.1458
tp7523
a(F896.0
F476.0
tp7524
a(F451.0
F351.0
tp7525
aa(F433.0
F394.0
tp7526
aaa(lp7527
(I3
F0.233
tp7528
a(lp7529
(I0
F0.2674
tp7530
a(F629.0
F860.0
tp7531
a(F389.0
F410.0
tp7532
aa(F225.0
F1122.0
tp7533
aaaa(lp7534
(I2
F0.1069
tp7535
a(lp7536
(I1
F0.0546
tp7537
a(lp7538
(I2
F0.0548
tp7539
a(lp7540
(I0
F0.0183
tp7541
a(lp7542
(I0
F-0.0047
tp7543
a(lp7544
(I2
F0.0121
tp7545
a(lp7546
(I3
F0.0118
tp7547
a(lp7548
(I0
F-0.0408
tp7549
a(F752.0
F15.0
tp7550
a(lp7551
(I2
F-0.0154
tp7552
a(F1013.0
F12.0
tp7553
a(F849.0
F6.0
tp7554
aaa(lp7555
(I2
F-0.0158
tp7556
a(F968.0
F17.0
tp7557
a(F745.0
F28.0
tp7558
aaa(F778.0
F35.0
tp7559
aa(lp7560
(I3
F0.04
tp7561
a(lp7562
(I1
F0.0046
tp7563
a(F1127.0
F35.0
tp7564
a(F1170.0
F22.0
tp7565
aa(F757.0
F48.0
tp7566
aaa(lp7567
(I3
F0.0589
tp7568
a(lp7569
(I1
F0.0143
tp7570
a(F878.0
F28.0
tp7571
a(lp7572
(I1
F0.0408
tp7573
a(lp7574
(I3
F0.0204
tp7575
a(F795.0
F76.0
tp7576
a(F931.0
F53.0
tp7577
aa(F812.0
F33.0
tp7578
aaa(F937.0
F95.0
tp7579
aaa(lp7580
(I0
F0.0551
tp7581
a(F1142.0
F138.0
tp7582
a(F668.0
F120.0
tp7583
aaa(lp7584
(I2
F0.0727
tp7585
a(lp7586
(I0
F0.1208
tp7587
a(lp7588
(I3
F0.0167
tp7589
a(F1408.0
F128.0
tp7590
a(lp7591
(I1
F0.104
tp7592
a(lp7593
(I0
F0.0542
tp7594
a(F723.0
F116.0
tp7595
a(F1449.0
F167.0
tp7596
aa(F625.0
F155.0
tp7597
aaa(F586.0
F188.0
tp7598
aa(lp7599
(I1
F0.1214
tp7600
a(lp7601
(I3
F0.0811
tp7602
a(F1317.0
F239.0
tp7603
a(F1017.0
F322.0
tp7604
aa(F812.0
F288.0
tp7605
aaaa(lp7606
(I1
F0.2029
tp7607
a(lp7608
(I2
F0.177
tp7609
a(lp7610
(I1
F0.0658
tp7611
a(F694.0
F192.0
tp7612
a(lp7613
(I2
F0.1421
tp7614
a(lp7615
(I0
F0.1301
tp7616
a(lp7617
(I3
F0.0997
tp7618
a(F750.0
F237.0
tp7619
a(F716.0
F343.0
tp7620
aa(F938.0
F463.0
tp7621
aa(lp7622
(I1
F0.1416
tp7623
a(F474.0
F338.0
tp7624
a(F1038.0
F527.0
tp7625
aaaa(lp7626
(I2
F0.2052
tp7627
a(F600.0
F442.0
tp7628
a(F429.0
F390.0
tp7629
aaa(lp7630
(I3
F0.2434
tp7631
a(lp7632
(I3
F0.0899
tp7633
a(F516.0
F484.0
tp7634
a(F462.0
F725.0
tp7635
aa(F160.0
F919.0
tp7636
aaaa(lp7637
(I2
F0.1361
tp7638
a(lp7639
(I2
F0.0584
tp7640
a(lp7641
(I0
F0.0897
tp7642
a(lp7643
(I0
F0.0182
tp7644
a(lp7645
(I3
F0.0381
tp7646
a(lp7647
(I2
F0.0208
tp7648
a(lp7649
(I0
F-0.0047
tp7650
a(lp7651
(I2
F-0.0089
tp7652
a(lp7653
(I2
F-0.0202
tp7654
a(lp7655
(I0
F-0.0408
tp7656
a(F777.0
F19.0
tp7657
a(F993.0
F5.0
tp7658
aa(F884.0
F29.0
tp7659
aa(F1050.0
F5.0
tp7660
aa(lp7661
(I2
F-0.0001
tp7662
a(F773.0
F35.0
tp7663
a(F1272.0
F22.0
tp7664
aaa(F773.0
F33.0
tp7665
aa(lp7666
(I2
F-0.0068
tp7667
a(F971.0
F37.0
tp7668
a(F1330.0
F86.0
tp7669
aaa(lp7670
(I3
F0.0546
tp7671
a(lp7672
(I0
F0.0429
tp7673
a(lp7674
(I2
F0.0371
tp7675
a(lp7676
(I0
F0.0252
tp7677
a(F784.0
F58.0
tp7678
a(F1372.0
F46.0
tp7679
aa(F749.0
F49.0
tp7680
aa(lp7681
(I2
F0.0388
tp7682
a(F803.0
F80.0
tp7683
a(F1108.0
F71.0
tp7684
aaa(lp7685
(I1
F0.039
tp7686
a(F794.0
F87.0
tp7687
a(F895.0
F152.0
tp7688
aaaa(F874.0
F227.0
tp7689
aa(lp7690
(I0
F0.092
tp7691
a(lp7692
(I1
F0.0916
tp7693
a(lp7694
(I3
F0.1106
tp7695
a(lp7696
(I3
F0.0626
tp7697
a(lp7698
(I2
F0.0766
tp7699
a(F956.0
F104.0
tp7700
a(F708.0
F132.0
tp7701
aa(F1255.0
F249.0
tp7702
aa(F612.0
F201.0
tp7703
aa(F809.0
F219.0
tp7704
aa(lp7705
(I1
F0.1333
tp7706
a(lp7707
(I3
F0.0811
tp7708
a(F1216.0
F324.0
tp7709
a(lp7710
(I1
F0.108
tp7711
a(F731.0
F325.0
tp7712
a(F836.0
F261.0
tp7713
aaa(lp7714
(I2
F0.1111
tp7715
a(F693.0
F273.0
tp7716
a(F633.0
F365.0
tp7717
aaaaa(lp7718
(I1
F0.2181
tp7719
a(lp7720
(I3
F0.1787
tp7721
a(lp7722
(I2
F0.1902
tp7723
a(lp7724
(I0
F0.1456
tp7725
a(F939.0
F433.0
tp7726
a(lp7727
(I1
F0.1576
tp7728
a(F566.0
F276.0
tp7729
a(F699.0
F435.0
tp7730
aaa(F452.0
F414.0
tp7731
aa(F689.0
F724.0
tp7732
aa(lp7733
(I3
F0.2075
tp7734
a(F613.0
F830.0
tp7735
a(F192.0
F1053.0
tp7736
aaaa(lp7737
(I2
F0.1111
tp7738
a(lp7739
(I0
F0.0765
tp7740
a(lp7741
(I2
F0.0437
tp7742
a(lp7743
(I0
F0.0183
tp7744
a(lp7745
(I1
F0.0159
tp7746
a(lp7747
(I3
F0.058
tp7748
a(lp7749
(I3
F0.0192
tp7750
a(lp7751
(I3
F0.0
tp7752
a(lp7753
(I1
F-0.0451
tp7754
a(F815.0
F26.0
tp7755
a(lp7756
(I1
F-0.0155
tp7757
a(F969.0
F6.0
tp7758
a(F1041.0
F20.0
tp7759
aaa(F1278.0
F10.0
tp7760
aa(F1456.0
F37.0
tp7761
aa(F1247.0
F67.0
tp7762
aa(lp7763
(I0
F0.0008
tp7764
a(F808.0
F41.0
tp7765
a(F844.0
F70.0
tp7766
aaa(lp7767
(I3
F0.0372
tp7768
a(lp7769
(I0
F0.0364
tp7770
a(lp7771
(I0
F0.026
tp7772
a(F768.0
F42.0
tp7773
a(F901.0
F27.0
tp7774
aa(F1089.0
F94.0
tp7775
aa(lp7776
(I2
F0.0301
tp7777
a(F829.0
F90.0
tp7778
a(F856.0
F73.0
tp7779
aaaa(lp7780
(I3
F0.0803
tp7781
a(lp7782
(I1
F0.0779
tp7783
a(lp7784
(I2
F0.0698
tp7785
a(lp7786
(I2
F0.0505
tp7787
a(F709.0
F68.0
tp7788
a(lp7789
(I1
F0.0469
tp7790
a(F770.0
F67.0
tp7791
a(F811.0
F48.0
tp7792
aaa(F767.0
F115.0
tp7793
aa(F672.0
F113.0
tp7794
aa(F1165.0
F270.0
tp7795
aaa(lp7796
(I1
F0.1442
tp7797
a(lp7798
(I2
F0.0788
tp7799
a(lp7800
(I1
F0.0921
tp7801
a(F944.0
F132.0
tp7802
a(F654.0
F168.0
tp7803
aa(lp7804
(I3
F0.0697
tp7805
a(F932.0
F187.0
tp7806
a(lp7807
(I3
F0.1043
tp7808
a(F679.0
F236.0
tp7809
a(F614.0
F182.0
tp7810
aaaa(F957.0
F408.0
tp7811
aaa(lp7812
(I1
F0.2002
tp7813
a(lp7814
(I3
F0.1701
tp7815
a(lp7816
(I0
F0.0961
tp7817
a(F778.0
F207.0
tp7818
a(lp7819
(I2
F0.1786
tp7820
a(lp7821
(I3
F0.079
tp7822
a(F1028.0
F383.0
tp7823
a(lp7824
(I2
F0.1341
tp7825
a(F953.0
F442.0
tp7826
a(lp7827
(I0
F0.1528
tp7828
a(F597.0
F396.0
tp7829
a(F563.0
F266.0
tp7830
aaaa(F478.0
F362.0
tp7831
aaa(F799.0
F677.0
tp7832
aa(lp7833
(I3
F0.2312
tp7834
a(lp7835
(I3
F0.0934
tp7836
a(F490.0
F445.0
tp7837
a(F494.0
F726.0
tp7838
aa(F197.0
F1007.0
tp7839
aaaa(lp7840
(I2
F0.1118
tp7841
a(lp7842
(I2
F0.0531
tp7843
a(lp7844
(I0
F0.0713
tp7845
a(lp7846
(I0
F0.0177
tp7847
a(lp7848
(I0
F0.0043
tp7849
a(lp7850
(I1
F0.0106
tp7851
a(lp7852
(I3
F0.062
tp7853
a(lp7854
(I0
F-0.0304
tp7855
a(lp7856
(I2
F-0.0335
tp7857
a(F829.0
F23.0
tp7858
a(F851.0
F12.0
tp7859
aa(lp7860
(I3
F0.0147
tp7861
a(lp7862
(I3
F-0.0044
tp7863
a(F1213.0
F11.0
tp7864
a(F812.0
F15.0
tp7865
aa(F873.0
F3.0
tp7866
aaa(F1007.0
F37.0
tp7867
aa(F1176.0
F48.0
tp7868
aa(lp7869
(I1
F0.0147
tp7870
a(F1271.0
F45.0
tp7871
a(F737.0
F45.0
tp7872
aaa(lp7873
(I1
F0.0714
tp7874
a(lp7875
(I2
F0.0267
tp7876
a(lp7877
(I3
F0.0104
tp7878
a(F783.0
F17.0
tp7879
a(F1128.0
F63.0
tp7880
aa(lp7881
(I3
F0.0507
tp7882
a(lp7883
(I1
F0.0307
tp7884
a(F772.0
F56.0
tp7885
a(F1072.0
F48.0
tp7886
aa(F891.0
F92.0
tp7887
aaa(F923.0
F110.0
tp7888
aaa(F1110.0
F256.0
tp7889
aa(lp7890
(I2
F0.0824
tp7891
a(lp7892
(I1
F0.1034
tp7893
a(lp7894
(I2
F0.0727
tp7895
a(lp7896
(I3
F0.0649
tp7897
a(lp7898
(I2
F0.0621
tp7899
a(F731.0
F90.0
tp7900
a(F734.0
F80.0
tp7901
aa(F924.0
F158.0
tp7902
aa(F910.0
F171.0
tp7903
aa(F798.0
F258.0
tp7904
aa(lp7905
(I3
F0.0697
tp7906
a(lp7907
(I1
F0.1025
tp7908
a(F733.0
F137.0
tp7909
a(F609.0
F192.0
tp7910
aa(lp7911
(I0
F0.1046
tp7912
a(F1209.0
F367.0
tp7913
a(F568.0
F238.0
tp7914
aaaaa(lp7915
(I2
F0.1902
tp7916
a(lp7917
(I0
F0.1802
tp7918
a(lp7919
(I2
F0.1366
tp7920
a(lp7921
(I0
F0.1303
tp7922
a(lp7923
(I3
F0.0957
tp7924
a(F576.0
F216.0
tp7925
a(F866.0
F290.0
tp7926
aa(F676.0
F297.0
tp7927
aa(lp7928
(I2
F0.1674
tp7929
a(lp7930
(I3
F0.0895
tp7931
a(F586.0
F214.0
tp7932
a(lp7933
(I0
F0.1508
tp7934
a(F594.0
F388.0
tp7935
a(F528.0
F272.0
tp7936
aaa(F486.0
F354.0
tp7937
aaa(F493.0
F423.0
tp7938
aa(lp7939
(I3
F0.2318
tp7940
a(lp7941
(I1
F0.2186
tp7942
a(F625.0
F634.0
tp7943
a(F585.0
F761.0
tp7944
aa(F323.0
F1037.0
tp7945
aaaa(lp7946
(I2
F0.1361
tp7947
a(lp7948
(I2
F0.0715
tp7949
a(lp7950
(I0
F0.0433
tp7951
a(lp7952
(I1
F0.05
tp7953
a(lp7954
(I0
F0.0183
tp7955
a(lp7956
(I1
F-0.0158
tp7957
a(lp7958
(I1
F-0.0381
tp7959
a(lp7960
(I0
F-0.0435
tp7961
a(F1166.0
F23.0
tp7962
a(F1079.0
F51.0
tp7963
aa(lp7964
(I2
F-0.0071
tp7965
a(F1091.0
F7.0
tp7966
a(F749.0
F15.0
tp7967
aaa(lp7968
(I3
F0.0446
tp7969
a(lp7970
(I1
F-0.0051
tp7971
a(F826.0
F34.0
tp7972
a(lp7973
(I1
F0.0156
tp7974
a(lp7975
(I3
F0.0038
tp7976
a(F779.0
F7.0
tp7977
a(F813.0
F21.0
tp7978
aa(F801.0
F27.0
tp7979
aaa(F970.0
F59.0
tp7980
aaa(lp7981
(I0
F0.0241
tp7982
a(F828.0
F65.0
tp7983
a(lp7984
(I3
F0.0372
tp7985
a(F1259.0
F45.0
tp7986
a(F943.0
F58.0
tp7987
aaaa(lp7988
(I2
F0.0184
tp7989
a(F696.0
F54.0
tp7990
a(F751.0
F77.0
tp7991
aaa(lp7992
(I1
F0.1258
tp7993
a(lp7994
(I3
F0.0801
tp7995
a(lp7996
(I0
F0.0801
tp7997
a(lp7998
(I2
F0.0567
tp7999
a(lp8000
(I0
F0.0561
tp8001
a(F1087.0
F82.0
tp8002
a(F759.0
F75.0
tp8003
aa(F949.0
F117.0
tp8004
aa(F793.0
F118.0
tp8005
aa(F729.0
F126.0
tp8006
aa(F814.0
F276.0
tp8007
aaa(lp8008
(I1
F0.1415
tp8009
a(lp8010
(I3
F0.0928
tp8011
a(lp8012
(I0
F0.0905
tp8013
a(lp8014
(I3
F0.0584
tp8015
a(F961.0
F161.0
tp8016
a(F733.0
F182.0
tp8017
aa(lp8018
(I1
F0.1133
tp8019
a(F943.0
F246.0
tp8020
a(F634.0
F197.0
tp8021
aaa(lp8022
(I1
F0.0698
tp8023
a(F657.0
F142.0
tp8024
a(lp8025
(I2
F0.1034
tp8026
a(F591.0
F253.0
tp8027
a(F1082.0
F417.0
tp8028
aaaa(lp8029
(I2
F0.1098
tp8030
a(F597.0
F234.0
tp8031
a(F485.0
F305.0
tp8032
aaaa(lp8033
(I3
F0.2093
tp8034
a(lp8035
(I1
F0.2025
tp8036
a(lp8037
(I3
F0.074
tp8038
a(F1027.0
F423.0
tp8039
a(lp8040
(I3
F0.1701
tp8041
a(lp8042
(I1
F0.1506
tp8043
a(F722.0
F481.0
tp8044
a(F640.0
F515.0
tp8045
aa(F407.0
F374.0
tp8046
aaa(lp8047
(I1
F0.2656
tp8048
a(F414.0
F509.0
tp8049
a(F435.0
F452.0
tp8050
aaa(lp8051
(I2
F0.2534
tp8052
a(F376.0
F490.0
tp8053
a(F164.0
F992.0
tp8054
aaaa(lp8055
(I2
F0.1199
tp8056
a(lp8057
(I2
F0.0557
tp8058
a(lp8059
(I0
F0.0956
tp8060
a(lp8061
(I3
F0.0297
tp8062
a(lp8063
(I1
F0.0708
tp8064
a(lp8065
(I0
F0.0403
tp8066
a(lp8067
(I2
F0.0108
tp8068
a(lp8069
(I3
F-0.0199
tp8070
a(F1459.0
F11.0
tp8071
a(lp8072
(I0
F-0.0234
tp8073
a(F887.0
F28.0
tp8074
a(lp8075
(I2
F-0.0096
tp8076
a(F840.0
F28.0
tp8077
a(F1479.0
F15.0
tp8078
aaaa(lp8079
(I0
F0.0244
tp8080
a(lp8081
(I1
F0.0109
tp8082
a(F890.0
F29.0
tp8083
a(F776.0
F38.0
tp8084
aa(F791.0
F16.0
tp8085
aaa(F761.0
F52.0
tp8086
aa(F1060.0
F105.0
tp8087
aa(lp8088
(I1
F0.0559
tp8089
a(lp8090
(I2
F0.0257
tp8091
a(lp8092
(I0
F-0.0029
tp8093
a(F1461.0
F45.0
tp8094
a(F1331.0
F72.0
tp8095
aa(lp8096
(I2
F0.0398
tp8097
a(F974.0
F99.0
tp8098
a(F1192.0
F81.0
tp8099
aaa(F1084.0
F139.0
tp8100
aaa(F771.0
F186.0
tp8101
aa(lp8102
(I1
F0.0991
tp8103
a(lp8104
(I3
F0.0773
tp8105
a(lp8106
(I1
F0.0788
tp8107
a(lp8108
(I0
F0.0696
tp8109
a(lp8110
(I2
F0.0681
tp8111
a(F850.0
F77.0
tp8112
a(F694.0
F90.0
tp8113
aa(F654.0
F122.0
tp8114
aa(F781.0
F137.0
tp8115
aa(lp8116
(I1
F0.0531
tp8117
a(F659.0
F136.0
tp8118
a(lp8119
(I2
F0.0863
tp8120
a(F630.0
F184.0
tp8121
a(F599.0
F209.0
tp8122
aaaa(lp8123
(I3
F0.081
tp8124
a(lp8125
(I2
F0.0799
tp8126
a(F565.0
F215.0
tp8127
a(F1126.0
F321.0
tp8128
aa(F1060.0
F459.0
tp8129
aaaa(lp8130
(I3
F0.2091
tp8131
a(lp8132
(I2
F0.1931
tp8133
a(lp8134
(I1
F0.1622
tp8135
a(lp8136
(I1
F0.0797
tp8137
a(F621.0
F191.0
tp8138
a(lp8139
(I3
F0.1247
tp8140
a(lp8141
(I2
F0.1439
tp8142
a(F936.0
F317.0
tp8143
a(F534.0
F236.0
tp8144
aa(F860.0
F565.0
tp8145
aaa(lp8146
(I2
F0.1651
tp8147
a(F486.0
F407.0
tp8148
a(F562.0
F348.0
tp8149
aaa(lp8150
(I0
F0.2619
tp8151
a(F582.0
F741.0
tp8152
a(F413.0
F384.0
tp8153
aaa(lp8154
(I1
F0.2431
tp8155
a(F467.0
F536.0
tp8156
a(F99.0
F907.0
tp8157
aaaa(lp8158
(I2
F0.1369
tp8159
a(lp8160
(I0
F0.0834
tp8161
a(lp8162
(I1
F0.0137
tp8163
a(lp8164
(I2
F0.0528
tp8165
a(lp8166
(I3
F0.0571
tp8167
a(lp8168
(I2
F-0.014
tp8169
a(lp8170
(I1
F-0.0306
tp8171
a(F1274.0
F28.0
tp8172
a(F1040.0
F9.0
tp8173
aa(lp8174
(I1
F0.0046
tp8175
a(lp8176
(I2
F-0.0037
tp8177
a(F792.0
F31.0
tp8178
a(lp8179
(I2
F0.0111
tp8180
a(F1090.0
F16.0
tp8181
a(F1266.0
F43.0
tp8182
aaa(F813.0
F12.0
tp8183
aaa(lp8184
(I3
F0.1075
tp8185
a(F689.0
F47.0
tp8186
a(F769.0
F31.0
tp8187
aaa(F666.0
F110.0
tp8188
aa(lp8189
(I2
F0.0731
tp8190
a(lp8191
(I3
F0.0611
tp8192
a(lp8193
(I1
F0.0559
tp8194
a(lp8195
(I0
F0.0171
tp8196
a(F1060.0
F34.0
tp8197
a(lp8198
(I1
F0.0289
tp8199
a(F978.0
F92.0
tp8200
a(lp8201
(I2
F0.0361
tp8202
a(F934.0
F35.0
tp8203
a(F1103.0
F73.0
tp8204
aaaa(lp8205
(I0
F0.0598
tp8206
a(lp8207
(I2
F0.0251
tp8208
a(F760.0
F55.0
tp8209
a(F856.0
F81.0
tp8210
aa(F857.0
F101.0
tp8211
aaa(lp8212
(I0
F0.0361
tp8213
a(F747.0
F77.0
tp8214
a(lp8215
(I0
F0.059
tp8216
a(F710.0
F103.0
tp8217
a(F692.0
F114.0
tp8218
aaaa(lp8219
(I2
F0.084
tp8220
a(F800.0
F144.0
tp8221
a(F872.0
F225.0
tp8222
aaaa(lp8223
(I2
F0.1007
tp8224
a(lp8225
(I3
F0.071
tp8226
a(lp8227
(I1
F0.114
tp8228
a(F1088.0
F187.0
tp8229
a(F1008.0
F329.0
tp8230
aa(F1143.0
F387.0
tp8231
aa(lp8232
(I0
F0.1338
tp8233
a(lp8234
(I1
F0.108
tp8235
a(F719.0
F318.0
tp8236
a(lp8237
(I3
F0.1014
tp8238
a(F673.0
F194.0
tp8239
a(F653.0
F237.0
tp8240
aaa(F671.0
F357.0
tp8241
aaaa(lp8242
(I1
F0.2185
tp8243
a(lp8244
(I3
F0.1525
tp8245
a(lp8246
(I1
F0.1732
tp8247
a(lp8248
(I2
F0.1684
tp8249
a(lp8250
(I3
F0.0905
tp8251
a(F606.0
F192.0
tp8252
a(F633.0
F353.0
tp8253
aa(F548.0
F284.0
tp8254
aa(F452.0
F365.0
tp8255
aa(lp8256
(I3
F0.2005
tp8257
a(F716.0
F551.0
tp8258
a(F439.0
F491.0
tp8259
aaa(lp8260
(I3
F0.2271
tp8261
a(F638.0
F831.0
tp8262
a(F146.0
F1022.0
tp8263
aaaa(lp8264
(I0
F0.1275
tp8265
a(lp8266
(I1
F0.0569
tp8267
a(lp8268
(I2
F0.06
tp8269
a(lp8270
(I3
F0.0496
tp8271
a(lp8272
(I2
F0.0267
tp8273
a(lp8274
(I1
F0.0156
tp8275
a(lp8276
(I1
F-0.0376
tp8277
a(F1522.0
F47.0
tp8278
a(lp8279
(I1
F-0.0155
tp8280
a(F1432.0
F7.0
tp8281
a(lp8282
(I1
F-0.0051
tp8283
a(F808.0
F39.0
tp8284
a(lp8285
(I3
F0.0074
tp8286
a(F921.0
F7.0
tp8287
a(F796.0
F19.0
tp8288
aaaaa(lp8289
(I0
F0.0173
tp8290
a(F783.0
F25.0
tp8291
a(F945.0
F60.0
tp8292
aaa(lp8293
(I0
F0.0403
tp8294
a(lp8295
(I1
F0.0175
tp8296
a(F767.0
F24.0
tp8297
a(F887.0
F48.0
tp8298
aa(F772.0
F62.0
tp8299
aaa(lp8300
(I2
F0.0396
tp8301
a(lp8302
(I3
F0.1201
tp8303
a(lp8304
(I0
F0.0064
tp8305
a(F781.0
F38.0
tp8306
a(F752.0
F66.0
tp8307
aa(F808.0
F41.0
tp8308
aa(F910.0
F137.0
tp8309
aaa(lp8310
(I2
F0.0837
tp8311
a(F1067.0
F165.0
tp8312
a(F936.0
F255.0
tp8313
aaa(lp8314
(I2
F0.1233
tp8315
a(lp8316
(I0
F0.091
tp8317
a(lp8318
(I2
F0.0583
tp8319
a(lp8320
(I0
F0.0318
tp8321
a(F817.0
F55.0
tp8322
a(lp8323
(I3
F0.0416
tp8324
a(F948.0
F100.0
tp8325
a(F731.0
F103.0
tp8326
aaa(lp8327
(I3
F0.0727
tp8328
a(lp8329
(I3
F0.0433
tp8330
a(F660.0
F128.0
tp8331
a(F806.0
F106.0
tp8332
aa(F1044.0
F280.0
tp8333
aaa(lp8334
(I1
F0.1229
tp8335
a(lp8336
(I1
F0.1057
tp8337
a(F1118.0
F303.0
tp8338
a(F914.0
F204.0
tp8339
aa(F764.0
F256.0
tp8340
aaa(F815.0
F481.0
tp8341
aaa(lp8342
(I2
F0.1786
tp8343
a(lp8344
(I1
F0.1939
tp8345
a(lp8346
(I3
F0.0917
tp8347
a(lp8348
(I3
F0.0262
tp8349
a(F623.0
F153.0
tp8350
a(F912.0
F368.0
tp8351
aa(lp8352
(I1
F0.1578
tp8353
a(lp8354
(I1
F0.1381
tp8355
a(F569.0
F330.0
tp8356
a(F517.0
F261.0
tp8357
aa(F511.0
F349.0
tp8358
aaa(F430.0
F376.0
tp8359
aa(lp8360
(I3
F0.2103
tp8361
a(lp8362
(I1
F0.2181
tp8363
a(F772.0
F625.0
tp8364
a(F569.0
F690.0
tp8365
aa(lp8366
(I0
F0.3039
tp8367
a(F346.0
F666.0
tp8368
a(F118.0
F715.0
tp8369
aaaaa(lp8370
(I2
F0.1359
tp8371
a(lp8372
(I0
F0.0841
tp8373
a(lp8374
(I2
F0.0588
tp8375
a(lp8376
(I1
F0.0142
tp8377
a(lp8378
(I0
F0.0234
tp8379
a(lp8380
(I3
F0.0409
tp8381
a(lp8382
(I0
F-0.0422
tp8383
a(F970.0
F9.0
tp8384
a(lp8385
(I0
F0.0066
tp8386
a(lp8387
(I2
F-0.0111
tp8388
a(lp8389
(I3
F-0.0139
tp8390
a(F781.0
F19.0
tp8391
a(F844.0
F30.0
tp8392
aa(lp8393
(I0
F-0.005
tp8394
a(F1088.0
F8.0
tp8395
a(F775.0
F22.0
tp8396
aaa(F983.0
F13.0
tp8397
aaa(lp8398
(I0
F-0.0261
tp8399
a(F732.0
F27.0
tp8400
a(F1047.0
F55.0
tp8401
aaa(F732.0
F48.0
tp8402
aa(lp8403
(I1
F0.0708
tp8404
a(lp8405
(I0
F0.0094
tp8406
a(F888.0
F25.0
tp8407
a(lp8408
(I0
F0.0546
tp8409
a(lp8410
(I3
F0.0623
tp8411
a(lp8412
(I1
F0.0281
tp8413
a(F981.0
F77.0
tp8414
a(lp8415
(I3
F0.0197
tp8416
a(F841.0
F34.0
tp8417
a(F1242.0
F76.0
tp8418
aaa(F764.0
F100.0
tp8419
aa(F724.0
F81.0
tp8420
aaa(lp8421
(I3
F0.03
tp8422
a(F985.0
F92.0
tp8423
a(F665.0
F106.0
tp8424
aaaa(lp8425
(I1
F0.0871
tp8426
a(lp8427
(I2
F0.0816
tp8428
a(lp8429
(I0
F0.0659
tp8430
a(F1257.0
F186.0
tp8431
a(F846.0
F88.0
tp8432
aa(F1118.0
F250.0
tp8433
aa(F620.0
F175.0
tp8434
aaa(lp8435
(I1
F0.1279
tp8436
a(lp8437
(I2
F0.0726
tp8438
a(F885.0
F146.0
tp8439
a(lp8440
(I3
F0.081
tp8441
a(lp8442
(I1
F0.1006
tp8443
a(F657.0
F149.0
tp8444
a(F630.0
F179.0
tp8445
aa(lp8446
(I1
F0.1098
tp8447
a(F1004.0
F384.0
tp8448
a(F674.0
F169.0
tp8449
aaaa(lp8450
(I2
F0.108
tp8451
a(lp8452
(I0
F0.1333
tp8453
a(F598.0
F194.0
tp8454
a(F580.0
F265.0
tp8455
aa(F865.0
F450.0
tp8456
aaaa(lp8457
(I2
F0.2072
tp8458
a(lp8459
(I2
F0.1786
tp8460
a(lp8461
(I1
F0.1707
tp8462
a(lp8463
(I0
F0.1356
tp8464
a(F541.0
F341.0
tp8465
a(lp8466
(I1
F0.1493
tp8467
a(F649.0
F252.0
tp8468
a(F543.0
F258.0
tp8469
aaa(F501.0
F394.0
tp8470
aa(F717.0
F645.0
tp8471
aa(lp8472
(I2
F0.3769
tp8473
a(lp8474
(I1
F0.2239
tp8475
a(F480.0
F587.0
tp8476
a(F554.0
F962.0
tp8477
aa(F145.0
F658.0
tp8478
aaaa(lp8479
(I0
F0.134
tp8480
a(lp8481
(I1
F0.0537
tp8482
a(lp8483
(I2
F0.0552
tp8484
a(lp8485
(I3
F0.0361
tp8486
a(lp8487
(I0
F0.0392
tp8488
a(lp8489
(I0
F0.0074
tp8490
a(lp8491
(I3
F0.0183
tp8492
a(lp8493
(I2
F-0.0375
tp8494
a(F750.0
F21.0
tp8495
a(lp8496
(I3
F-0.0177
tp8497
a(F1059.0
F5.0
tp8498
a(lp8499
(I1
F-0.0155
tp8500
a(F1021.0
F9.0
tp8501
a(F1079.0
F28.0
tp8502
aaaa(F768.0
F23.0
tp8503
aa(lp8504
(I0
F0.0269
tp8505
a(lp8506
(I1
F0.0156
tp8507
a(F1040.0
F34.0
tp8508
a(F818.0
F50.0
tp8509
aa(F795.0
F20.0
tp8510
aaa(F762.0
F64.0
tp8511
aa(lp8512
(I0
F0.0342
tp8513
a(lp8514
(I2
F-0.0068
tp8515
a(F1010.0
F38.0
tp8516
a(lp8517
(I3
F0.0571
tp8518
a(F906.0
F42.0
tp8519
a(F1150.0
F86.0
tp8520
aaa(F1074.0
F105.0
tp8521
aaa(lp8522
(I2
F0.0851
tp8523
a(F1277.0
F186.0
tp8524
a(F895.0
F249.0
tp8525
aaa(lp8526
(I3
F0.081
tp8527
a(lp8528
(I2
F0.1041
tp8529
a(lp8530
(I2
F0.0436
tp8531
a(lp8532
(I1
F0.1147
tp8533
a(F1205.0
F114.0
tp8534
a(F759.0
F54.0
tp8535
aa(lp8536
(I1
F0.1247
tp8537
a(lp8538
(I2
F0.0724
tp8539
a(lp8540
(I3
F0.0467
tp8541
a(F756.0
F104.0
tp8542
a(F680.0
F63.0
tp8543
aa(F1280.0
F236.0
tp8544
aa(F627.0
F187.0
tp8545
aaa(F955.0
F366.0
tp8546
aa(lp8547
(I2
F0.1255
tp8548
a(lp8549
(I1
F0.0921
tp8550
a(F1207.0
F285.0
tp8551
a(lp8552
(I0
F0.1101
tp8553
a(F782.0
F345.0
tp8554
a(F713.0
F208.0
tp8555
aaa(F600.0
F361.0
tp8556
aaaa(lp8557
(I2
F0.1796
tp8558
a(lp8559
(I3
F0.094
tp8560
a(lp8561
(I2
F0.0963
tp8562
a(F724.0
F228.0
tp8563
a(F947.0
F437.0
tp8564
aa(lp8565
(I1
F0.1668
tp8566
a(lp8567
(I3
F0.1415
tp8568
a(F557.0
F297.0
tp8569
a(F499.0
F299.0
tp8570
aa(F434.0
F362.0
tp8571
aaa(lp8572
(I3
F0.2194
tp8573
a(lp8574
(I2
F0.2849
tp8575
a(lp8576
(I1
F0.2056
tp8577
a(F624.0
F546.0
tp8578
a(F307.0
F512.0
tp8579
aa(F434.0
F380.0
tp8580
aa(lp8581
(I2
F0.2987
tp8582
a(F266.0
F530.0
tp8583
a(F109.0
F717.0
tp8584
aaaaa(lp8585
(I0
F0.1353
tp8586
a(lp8587
(I1
F0.0648
tp8588
a(lp8589
(I2
F0.0599
tp8590
a(lp8591
(I3
F0.0496
tp8592
a(lp8593
(I1
F0.0143
tp8594
a(lp8595
(I0
F0.0156
tp8596
a(lp8597
(I1
F-0.0048
tp8598
a(lp8599
(I1
F-0.0147
tp8600
a(lp8601
(I0
F-0.0244
tp8602
a(lp8603
(I3
F-0.0153
tp8604
a(F808.0
F23.0
tp8605
a(F919.0
F14.0
tp8606
aa(F1329.0
F16.0
tp8607
aa(F764.0
F31.0
tp8608
aa(F1412.0
F19.0
tp8609
aa(F896.0
F32.0
tp8610
aa(lp8611
(I0
F0.0393
tp8612
a(lp8613
(I0
F0.0279
tp8614
a(lp8615
(I3
F0.0164
tp8616
a(F908.0
F37.0
tp8617
a(F755.0
F59.0
tp8618
aa(F842.0
F24.0
tp8619
aa(F1173.0
F90.0
tp8620
aaa(lp8621
(I1
F-0.0128
tp8622
a(F1154.0
F61.0
tp8623
a(lp8624
(I0
F0.0196
tp8625
a(F859.0
F57.0
tp8626
a(lp8627
(I0
F0.0439
tp8628
a(F762.0
F107.0
tp8629
a(F761.0
F73.0
tp8630
aaaaa(lp8631
(I2
F0.0821
tp8632
a(F1290.0
F203.0
tp8633
a(F1258.0
F346.0
tp8634
aaa(lp8635
(I2
F0.081
tp8636
a(lp8637
(I2
F0.0538
tp8638
a(lp8639
(I2
F0.0144
tp8640
a(F791.0
F72.0
tp8641
a(F1284.0
F182.0
tp8642
aa(lp8643
(I1
F0.1005
tp8644
a(F1266.0
F189.0
tp8645
a(F587.0
F192.0
tp8646
aaa(lp8647
(I3
F0.0993
tp8648
a(lp8649
(I3
F0.0522
tp8650
a(F1003.0
F253.0
tp8651
a(lp8652
(I1
F0.1069
tp8653
a(F764.0
F178.0
tp8654
a(F725.0
F295.0
tp8655
aaa(lp8656
(I2
F0.127
tp8657
a(lp8658
(I0
F0.1076
tp8659
a(F586.0
F266.0
tp8660
a(F591.0
F187.0
tp8661
aa(F495.0
F322.0
tp8662
aaaaa(lp8663
(I0
F0.2201
tp8664
a(lp8665
(I3
F0.0809
tp8666
a(lp8667
(I1
F0.1622
tp8668
a(F942.0
F286.0
tp8669
a(F559.0
F333.0
tp8670
aa(lp8671
(I0
F0.1679
tp8672
a(lp8673
(I2
F0.1538
tp8674
a(F798.0
F432.0
tp8675
a(F452.0
F361.0
tp8676
aa(lp8677
(I2
F0.1855
tp8678
a(F498.0
F370.0
tp8679
a(F460.0
F503.0
tp8680
aaaa(lp8681
(I3
F0.2187
tp8682
a(lp8683
(I3
F0.0756
tp8684
a(F500.0
F485.0
tp8685
a(F327.0
F498.0
tp8686
aa(F248.0
F1098.0
tp8687
aaaa(lp8688
(I2
F0.1097
tp8689
a(lp8690
(I2
F0.0575
tp8691
a(lp8692
(I1
F0.1139
tp8693
a(lp8694
(I2
F0.0321
tp8695
a(lp8696
(I3
F0.0186
tp8697
a(lp8698
(I1
F0.0093
tp8699
a(lp8700
(I3
F0.0047
tp8701
a(lp8702
(I1
F-0.0123
tp8703
a(lp8704
(I0
F-0.0314
tp8705
a(F975.0
F24.0
tp8706
a(F1175.0
F8.0
tp8707
aa(F964.0
F30.0
tp8708
aa(F825.0
F8.0
tp8709
aa(lp8710
(I3
F-0.0106
tp8711
a(F749.0
F59.0
tp8712
a(F1434.0
F54.0
tp8713
aaa(lp8714
(I1
F-0.0314
tp8715
a(F997.0
F27.0
tp8716
a(lp8717
(I1
F0.0176
tp8718
a(lp8719
(I0
F-0.0031
tp8720
a(F810.0
F22.0
tp8721
a(F1210.0
F86.0
tp8722
aa(lp8723
(I0
F0.0302
tp8724
a(F882.0
F61.0
tp8725
a(F717.0
F58.0
tp8726
aaaaa(lp8727
(I2
F0.0494
tp8728
a(lp8729
(I1
F0.0404
tp8730
a(lp8731
(I2
F0.0403
tp8732
a(F827.0
F56.0
tp8733
a(F734.0
F60.0
tp8734
aa(F1256.0
F149.0
tp8735
aa(F1231.0
F80.0
tp8736
aaa(F1165.0
F268.0
tp8737
aa(lp8738
(I3
F0.0739
tp8739
a(lp8740
(I0
F0.1062
tp8741
a(lp8742
(I1
F0.0968
tp8743
a(lp8744
(I3
F0.0523
tp8745
a(lp8746
(I3
F0.0251
tp8747
a(F727.0
F95.0
tp8748
a(F663.0
F119.0
tp8749
aa(F939.0
F99.0
tp8750
aa(F692.0
F151.0
tp8751
aa(F767.0
F217.0
tp8752
aa(lp8753
(I1
F0.0608
tp8754
a(F711.0
F138.0
tp8755
a(lp8756
(I3
F0.0928
tp8757
a(F776.0
F249.0
tp8758
a(F1124.0
F446.0
tp8759
aaaaa(lp8760
(I2
F0.2122
tp8761
a(lp8762
(I0
F0.1781
tp8763
a(lp8764
(I3
F0.1501
tp8765
a(lp8766
(I0
F0.0989
tp8767
a(F742.0
F216.0
tp8768
a(lp8769
(I3
F0.0889
tp8770
a(lp8771
(I3
F0.0411
tp8772
a(F582.0
F194.0
tp8773
a(F772.0
F303.0
tp8774
aa(lp8775
(I0
F0.1441
tp8776
a(lp8777
(I3
F0.1189
tp8778
a(F537.0
F253.0
tp8779
a(F529.0
F271.0
tp8780
aa(F488.0
F321.0
tp8781
aaaa(F850.0
F649.0
tp8782
aa(lp8783
(I3
F0.1348
tp8784
a(F391.0
F391.0
tp8785
a(F445.0
F362.0
tp8786
aaa(lp8787
(I3
F0.2234
tp8788
a(lp8789
(I2
F0.2855
tp8790
a(F424.0
F574.0
tp8791
a(F433.0
F403.0
tp8792
aa(F293.0
F1123.0
tp8793
aaaa(lp8794
(I0
F0.149
tp8795
a(lp8796
(I2
F0.0727
tp8797
a(lp8798
(I2
F0.0436
tp8799
a(lp8800
(I1
F0.0143
tp8801
a(lp8802
(I2
F0.011
tp8803
a(lp8804
(I3
F0.0273
tp8805
a(lp8806
(I0
F-0.0304
tp8807
a(F1244.0
F25.0
tp8808
a(lp8809
(I1
F-0.0106
tp8810
a(F1527.0
F10.0
tp8811
a(F1121.0
F25.0
tp8812
aaa(lp8813
(I0
F-0.0253
tp8814
a(F748.0
F20.0
tp8815
a(F854.0
F35.0
tp8816
aaa(lp8817
(I1
F-0.0006
tp8818
a(F1289.0
F68.0
tp8819
a(F861.0
F22.0
tp8820
aaa(lp8821
(I3
F0.062
tp8822
a(lp8823
(I2
F-0.0096
tp8824
a(F775.0
F73.0
tp8825
a(lp8826
(I0
F0.0565
tp8827
a(lp8828
(I1
F0.0602
tp8829
a(lp8830
(I1
F0.0253
tp8831
a(F872.0
F64.0
tp8832
a(lp8833
(I3
F0.0268
tp8834
a(F1049.0
F32.0
tp8835
a(F792.0
F36.0
tp8836
aaa(F811.0
F69.0
tp8837
aa(F717.0
F74.0
tp8838
aaa(F872.0
F130.0
tp8839
aaa(lp8840
(I1
F0.0745
tp8841
a(lp8842
(I3
F0.0691
tp8843
a(lp8844
(I2
F0.0591
tp8845
a(F1396.0
F111.0
tp8846
a(F806.0
F84.0
tp8847
aa(F863.0
F138.0
tp8848
aa(F1176.0
F268.0
tp8849
aaa(lp8850
(I0
F0.0981
tp8851
a(lp8852
(I3
F0.0924
tp8853
a(lp8854
(I2
F0.1054
tp8855
a(lp8856
(I1
F0.0692
tp8857
a(F666.0
F150.0
tp8858
a(F1064.0
F177.0
tp8859
aa(F621.0
F167.0
tp8860
aa(lp8861
(I3
F0.1231
tp8862
a(F593.0
F217.0
tp8863
a(F547.0
F223.0
tp8864
aaa(lp8865
(I3
F0.1345
tp8866
a(lp8867
(I2
F0.1371
tp8868
a(lp8869
(I2
F0.1007
tp8870
a(F701.0
F172.0
tp8871
a(lp8872
(I0
F0.1167
tp8873
a(F730.0
F315.0
tp8874
a(F1137.0
F327.0
tp8875
aaa(F549.0
F269.0
tp8876
aa(F733.0
F471.0
tp8877
aaaa(lp8878
(I3
F0.2194
tp8879
a(lp8880
(I1
F0.2163
tp8881
a(lp8882
(I3
F0.0259
tp8883
a(F592.0
F216.0
tp8884
a(lp8885
(I0
F0.1754
tp8886
a(lp8887
(I1
F0.157
tp8888
a(F541.0
F295.0
tp8889
a(F568.0
F372.0
tp8890
aa(F843.0
F717.0
tp8891
aaa(lp8892
(I1
F0.2845
tp8893
a(F390.0
F519.0
tp8894
a(F367.0
F420.0
tp8895
aaa(lp8896
(I2
F0.2749
tp8897
a(F292.0
F452.0
tp8898
a(F131.0
F859.0
tp8899
aaaa(lp8900
(I2
F0.1365
tp8901
a(lp8902
(I0
F0.0765
tp8903
a(lp8904
(I2
F0.0592
tp8905
a(lp8906
(I2
F0.0282
tp8907
a(lp8908
(I3
F0.0179
tp8909
a(lp8910
(I0
F0.0132
tp8911
a(lp8912
(I0
F-0.0183
tp8913
a(lp8914
(I0
F-0.0448
tp8915
a(F785.0
F19.0
tp8916
a(F1279.0
F17.0
tp8917
aa(lp8918
(I1
F0.0109
tp8919
a(lp8920
(I0
F-0.0037
tp8921
a(F910.0
F24.0
tp8922
a(F837.0
F7.0
tp8923
aa(F799.0
F34.0
tp8924
aaa(F1408.0
F65.0
tp8925
aa(lp8926
(I0
F-0.003
tp8927
a(lp8928
(I2
F-0.0149
tp8929
a(F858.0
F20.0
tp8930
a(F981.0
F38.0
tp8931
aa(lp8932
(I3
F0.0553
tp8933
a(lp8934
(I0
F0.0186
tp8935
a(F785.0
F60.0
tp8936
a(F777.0
F28.0
tp8937
aa(F821.0
F79.0
tp8938
aaaa(lp8939
(I1
F0.0717
tp8940
a(lp8941
(I3
F0.0648
tp8942
a(lp8943
(I1
F0.0165
tp8944
a(F858.0
F21.0
tp8945
a(lp8946
(I2
F0.0419
tp8947
a(F1078.0
F92.0
tp8948
a(F1106.0
F68.0
tp8949
aaa(F997.0
F123.0
tp8950
aa(F741.0
F126.0
tp8951
aaa(lp8952
(I3
F0.0774
tp8953
a(lp8954
(I3
F0.0433
tp8955
a(F964.0
F169.0
tp8956
a(F989.0
F124.0
tp8957
aa(F1004.0
F275.0
tp8958
aaa(lp8959
(I1
F0.1332
tp8960
a(lp8961
(I3
F0.0815
tp8962
a(lp8963
(I2
F0.0872
tp8964
a(lp8965
(I0
F0.094
tp8966
a(F786.0
F121.0
tp8967
a(F726.0
F144.0
tp8968
aa(F1141.0
F303.0
tp8969
aa(lp8970
(I0
F0.0939
tp8971
a(F644.0
F169.0
tp8972
a(lp8973
(I1
F0.1022
tp8974
a(F579.0
F258.0
tp8975
a(F1039.0
F324.0
tp8976
aaaa(lp8977
(I1
F0.1853
tp8978
a(lp8979
(I2
F0.0963
tp8980
a(F632.0
F183.0
tp8981
a(F808.0
F384.0
tp8982
aa(F505.0
F318.0
tp8983
aaaa(lp8984
(I2
F0.2073
tp8985
a(lp8986
(I0
F0.175
tp8987
a(lp8988
(I2
F0.16
tp8989
a(lp8990
(I3
F0.1081
tp8991
a(F623.0
F227.0
tp8992
a(F699.0
F424.0
tp8993
aa(F791.0
F474.0
tp8994
aa(F842.0
F667.0
tp8995
aa(lp8996
(I3
F0.2103
tp8997
a(lp8998
(I2
F0.2709
tp8999
a(F370.0
F502.0
tp9000
a(F418.0
F449.0
tp9001
aa(F311.0
F1233.0
tp9002
aaaa(lp9003
(I2
F0.135
tp9004
a(lp9005
(I0
F0.0803
tp9006
a(lp9007
(I2
F0.0597
tp9008
a(lp9009
(I0
F0.0171
tp9010
a(lp9011
(I3
F0.0405
tp9012
a(lp9013
(I1
F0.0159
tp9014
a(lp9015
(I3
F-0.0308
tp9016
a(F918.0
F6.0
tp9017
a(lp9018
(I2
F-0.01
tp9019
a(lp9020
(I2
F-0.0219
tp9021
a(F1151.0
F26.0
tp9022
a(F789.0
F32.0
tp9023
aa(lp9024
(I0
F-0.0101
tp9025
a(F810.0
F19.0
tp9026
a(lp9027
(I3
F0.0092
tp9028
a(F876.0
F8.0
tp9029
a(F793.0
F9.0
tp9030
aaaaa(F1257.0
F64.0
tp9031
aa(lp9032
(I0
F-0.0039
tp9033
a(F1357.0
F44.0
tp9034
a(F757.0
F59.0
tp9035
aaa(lp9036
(I3
F0.0459
tp9037
a(lp9038
(I1
F0.0717
tp9039
a(lp9040
(I1
F0.0293
tp9041
a(lp9042
(I1
F0.0143
tp9043
a(F823.0
F33.0
tp9044
a(F866.0
F60.0
tp9045
aa(lp9046
(I1
F0.043
tp9047
a(F844.0
F29.0
tp9048
a(F1059.0
F46.0
tp9049
aaa(F803.0
F79.0
tp9050
aa(lp9051
(I0
F0.0408
tp9052
a(F1003.0
F91.0
tp9053
a(F1223.0
F169.0
tp9054
aaaa(lp9055
(I3
F0.0699
tp9056
a(lp9057
(I2
F0.0766
tp9058
a(F1163.0
F149.0
tp9059
a(F659.0
F123.0
tp9060
aa(lp9061
(I0
F0.0623
tp9062
a(F663.0
F190.0
tp9063
a(F670.0
F153.0
tp9064
aaaa(lp9065
(I0
F0.1713
tp9066
a(lp9067
(I2
F0.0742
tp9068
a(lp9069
(I3
F0.0323
tp9070
a(F650.0
F114.0
tp9071
a(F674.0
F129.0
tp9072
aa(lp9073
(I3
F0.0993
tp9074
a(lp9075
(I0
F0.0936
tp9076
a(F699.0
F138.0
tp9077
a(lp9078
(I1
F0.14
tp9079
a(lp9080
(I0
F0.1081
tp9081
a(F613.0
F188.0
tp9082
a(F959.0
F230.0
tp9083
aa(F596.0
F193.0
tp9084
aaa(lp9085
(I0
F0.1208
tp9086
a(F1039.0
F412.0
tp9087
a(F564.0
F295.0
tp9088
aaaa(F477.0
F327.0
tp9089
aaa(lp9090
(I2
F0.2072
tp9091
a(lp9092
(I1
F0.1943
tp9093
a(lp9094
(I3
F0.0738
tp9095
a(F803.0
F283.0
tp9096
a(lp9097
(I0
F0.1721
tp9098
a(lp9099
(I1
F0.1286
tp9100
a(F439.0
F334.0
tp9101
a(F962.0
F562.0
tp9102
aa(F430.0
F360.0
tp9103
aaa(F396.0
F405.0
tp9104
aa(lp9105
(I3
F0.2276
tp9106
a(lp9107
(I3
F0.0892
tp9108
a(F520.0
F486.0
tp9109
a(F368.0
F568.0
tp9110
aa(F293.0
F1081.0
tp9111
aaaa(lp9112
(I2
F0.1292
tp9113
a(lp9114
(I1
F0.0638
tp9115
a(lp9116
(I0
F0.0361
tp9117
a(lp9118
(I3
F0.0372
tp9119
a(lp9120
(I0
F0.0149
tp9121
a(lp9122
(I2
F0.0056
tp9123
a(lp9124
(I1
F-0.0123
tp9125
a(lp9126
(I1
F-0.0419
tp9127
a(F1150.0
F26.0
tp9128
a(F1440.0
F7.0
tp9129
aa(F1517.0
F37.0
tp9130
aa(lp9131
(I1
F-0.0005
tp9132
a(F941.0
F36.0
tp9133
a(F897.0
F18.0
tp9134
aaa(lp9135
(I3
F0.0058
tp9136
a(F752.0
F27.0
tp9137
a(F1145.0
F68.0
tp9138
aaa(lp9139
(I2
F0.0409
tp9140
a(lp9141
(I0
F-0.0019
tp9142
a(F1377.0
F62.0
tp9143
a(F1319.0
F94.0
tp9144
aa(F826.0
F97.0
tp9145
aaa(lp9146
(I0
F0.0674
tp9147
a(lp9148
(I2
F0.0592
tp9149
a(lp9150
(I3
F0.0501
tp9151
a(F1488.0
F95.0
tp9152
a(F887.0
F96.0
tp9153
aa(F811.0
F142.0
tp9154
aa(F1049.0
F218.0
tp9155
aaa(lp9156
(I2
F0.0723
tp9157
a(lp9158
(I1
F0.114
tp9159
a(lp9160
(I2
F0.0583
tp9161
a(lp9162
(I1
F0.0802
tp9163
a(F705.0
F84.0
tp9164
a(F811.0
F77.0
tp9165
aa(F777.0
F126.0
tp9166
aa(lp9167
(I0
F0.0693
tp9168
a(F722.0
F93.0
tp9169
a(F832.0
F286.0
tp9170
aaa(lp9171
(I3
F0.0928
tp9172
a(lp9173
(I2
F0.1079
tp9174
a(lp9175
(I3
F0.071
tp9176
a(lp9177
(I1
F0.1098
tp9178
a(F888.0
F140.0
tp9179
a(F674.0
F172.0
tp9180
aa(F698.0
F207.0
tp9181
aa(F781.0
F290.0
tp9182
aa(lp9183
(I1
F0.1228
tp9184
a(lp9185
(I3
F0.1182
tp9186
a(F614.0
F212.0
tp9187
a(F596.0
F224.0
tp9188
aa(F536.0
F279.0
tp9189
aaaaa(lp9190
(I3
F0.2235
tp9191
a(lp9192
(I0
F0.1727
tp9193
a(lp9194
(I2
F0.1705
tp9195
a(lp9196
(I3
F0.1143
tp9197
a(lp9198
(I0
F0.1368
tp9199
a(F603.0
F182.0
tp9200
a(F589.0
F212.0
tp9201
aa(lp9202
(I2
F0.1495
tp9203
a(F597.0
F357.0
tp9204
a(F465.0
F324.0
tp9205
aaa(F422.0
F371.0
tp9206
aa(lp9207
(I1
F0.2024
tp9208
a(F771.0
F595.0
tp9209
a(lp9210
(I3
F0.0907
tp9211
a(F397.0
F450.0
tp9212
a(F408.0
F567.0
tp9213
aaaa(lp9214
(I1
F0.2524
tp9215
a(F329.0
F474.0
tp9216
a(F93.0
F808.0
tp9217
aaaa(lp9218
(I0
F0.104
tp9219
a(lp9220
(I1
F0.0602
tp9221
a(lp9222
(I2
F0.0604
tp9223
a(lp9224
(I3
F0.0407
tp9225
a(lp9226
(I2
F0.006
tp9227
a(lp9228
(I1
F-0.0101
tp9229
a(lp9230
(I1
F-0.0498
tp9231
a(F871.0
F19.0
tp9232
a(lp9233
(I3
F-0.0109
tp9234
a(F845.0
F2.0
tp9235
a(F1020.0
F6.0
tp9236
aaa(lp9237
(I3
F0.0007
tp9238
a(F1054.0
F31.0
tp9239
a(F751.0
F36.0
tp9240
aaa(lp9241
(I3
F0.0012
tp9242
a(F1211.0
F70.0
tp9243
a(lp9244
(I1
F0.0156
tp9245
a(F1386.0
F29.0
tp9246
a(lp9247
(I0
F0.029
tp9248
a(F758.0
F46.0
tp9249
a(F1031.0
F50.0
tp9250
aaaaa(lp9251
(I1
F0.0188
tp9252
a(lp9253
(I2
F-0.0068
tp9254
a(F847.0
F23.0
tp9255
a(lp9256
(I1
F-0.0046
tp9257
a(F771.0
F65.0
tp9258
a(F737.0
F42.0
tp9259
aaa(lp9260
(I3
F0.0638
tp9261
a(F915.0
F51.0
tp9262
a(F893.0
F106.0
tp9263
aaaa(lp9264
(I3
F0.0577
tp9265
a(F927.0
F147.0
tp9266
a(F1053.0
F241.0
tp9267
aaa(lp9268
(I3
F0.0974
tp9269
a(lp9270
(I3
F0.03
tp9271
a(lp9272
(I2
F0.0478
tp9273
a(F1270.0
F102.0
tp9274
a(F790.0
F171.0
tp9275
aa(lp9276
(I2
F0.0796
tp9277
a(lp9278
(I0
F0.0711
tp9279
a(F1221.0
F156.0
tp9280
a(F681.0
F124.0
tp9281
aa(F1118.0
F287.0
tp9282
aaa(F1118.0
F389.0
tp9283
aaa(lp9284
(I2
F0.1786
tp9285
a(lp9286
(I3
F0.0949
tp9287
a(lp9288
(I0
F0.1794
tp9289
a(lp9290
(I1
F0.1046
tp9291
a(F664.0
F159.0
tp9292
a(lp9293
(I2
F0.108
tp9294
a(F929.0
F256.0
tp9295
a(lp9296
(I2
F0.1314
tp9297
a(F575.0
F239.0
tp9298
a(F575.0
F218.0
tp9299
aaaa(F480.0
F310.0
tp9300
aa(lp9301
(I2
F0.1251
tp9302
a(F918.0
F385.0
tp9303
a(lp9304
(I0
F0.139
tp9305
a(F514.0
F370.0
tp9306
a(lp9307
(I2
F0.1582
tp9308
a(F694.0
F390.0
tp9309
a(F480.0
F319.0
tp9310
aaaaa(lp9311
(I0
F0.3624
tp9312
a(lp9313
(I3
F0.2047
tp9314
a(lp9315
(I0
F0.1951
tp9316
a(F400.0
F473.0
tp9317
a(F801.0
F675.0
tp9318
aa(F466.0
F901.0
tp9319
aa(F158.0
F650.0
tp9320
aaaa(lp9321
(I0
F0.1282
tp9322
a(lp9323
(I2
F0.0727
tp9324
a(lp9325
(I0
F0.0393
tp9326
a(lp9327
(I2
F0.0362
tp9328
a(lp9329
(I3
F0.0179
tp9330
a(lp9331
(I1
F0.0156
tp9332
a(lp9333
(I0
F-0.0304
tp9334
a(F1226.0
F29.0
tp9335
a(lp9336
(I1
F-0.0113
tp9337
a(F1515.0
F11.0
tp9338
a(F1554.0
F25.0
tp9339
aaa(lp9340
(I3
F-0.0003
tp9341
a(F944.0
F33.0
tp9342
a(F759.0
F44.0
tp9343
aaa(lp9344
(I0
F-0.0019
tp9345
a(lp9346
(I2
F-0.0125
tp9347
a(F951.0
F29.0
tp9348
a(F936.0
F48.0
tp9349
aa(lp9350
(I3
F0.0372
tp9351
a(F1128.0
F60.0
tp9352
a(lp9353
(I3
F0.0603
tp9354
a(F714.0
F52.0
tp9355
a(F720.0
F63.0
tp9356
aaaaa(lp9357
(I1
F0.0191
tp9358
a(F883.0
F55.0
tp9359
a(F882.0
F106.0
tp9360
aaa(lp9361
(I3
F0.0764
tp9362
a(lp9363
(I0
F0.0801
tp9364
a(lp9365
(I1
F0.0797
tp9366
a(lp9367
(I0
F0.0467
tp9368
a(F684.0
F87.0
tp9369
a(lp9370
(I0
F0.0549
tp9371
a(F767.0
F47.0
tp9372
a(F1189.0
F107.0
tp9373
aaa(F752.0
F136.0
tp9374
aa(F824.0
F135.0
tp9375
aa(F972.0
F166.0
tp9376
aaa(lp9377
(I2
F0.1312
tp9378
a(lp9379
(I3
F0.0697
tp9380
a(lp9381
(I2
F0.1026
tp9382
a(lp9383
(I1
F0.0819
tp9384
a(F727.0
F115.0
tp9385
a(F742.0
F163.0
tp9386
aa(F637.0
F158.0
tp9387
aa(lp9388
(I2
F0.0853
tp9389
a(F698.0
F177.0
tp9390
a(lp9391
(I2
F0.1028
tp9392
a(F894.0
F336.0
tp9393
a(lp9394
(I1
F0.108
tp9395
a(F630.0
F211.0
tp9396
a(F799.0
F233.0
tp9397
aaaaa(F838.0
F451.0
tp9398
aaa(lp9399
(I1
F0.2186
tp9400
a(lp9401
(I2
F0.1786
tp9402
a(lp9403
(I2
F0.0896
tp9404
a(F701.0
F169.0
tp9405
a(lp9406
(I0
F0.1711
tp9407
a(lp9408
(I3
F0.081
tp9409
a(F756.0
F264.0
tp9410
a(lp9411
(I2
F0.1511
tp9412
a(F903.0
F559.0
tp9413
a(F604.0
F294.0
tp9414
aaa(F459.0
F311.0
tp9415
aaa(lp9416
(I3
F0.1906
tp9417
a(F648.0
F563.0
tp9418
a(F351.0
F432.0
tp9419
aaa(lp9420
(I0
F0.3708
tp9421
a(lp9422
(I3
F0.1503
tp9423
a(F584.0
F547.0
tp9424
a(F286.0
F769.0
tp9425
aa(F140.0
F678.0
tp9426
aaaa(lp9427
(I0
F0.1763
tp9428
a(lp9429
(I0
F0.0827
tp9430
a(lp9431
(I2
F0.0548
tp9432
a(lp9433
(I3
F0.0647
tp9434
a(lp9435
(I0
F0.0176
tp9436
a(lp9437
(I3
F0.0264
tp9438
a(lp9439
(I0
F-0.0037
tp9440
a(lp9441
(I1
F-0.0123
tp9442
a(lp9443
(I2
F-0.0113
tp9444
a(lp9445
(I1
F-0.0419
tp9446
a(F876.0
F12.0
tp9447
a(F904.0
F2.0
tp9448
aa(F774.0
F11.0
tp9449
aa(F1205.0
F30.0
tp9450
aa(lp9451
(I2
F0.0035
tp9452
a(F758.0
F29.0
tp9453
a(F1155.0
F27.0
tp9454
aaa(F1419.0
F57.0
tp9455
aa(lp9456
(I0
F0.0426
tp9457
a(lp9458
(I1
F0.0348
tp9459
a(lp9460
(I1
F0.0181
tp9461
a(F923.0
F31.0
tp9462
a(F920.0
F47.0
tp9463
aa(F1208.0
F89.0
tp9464
aa(lp9465
(I3
F0.0222
tp9466
a(F800.0
F86.0
tp9467
a(F1041.0
F77.0
tp9468
aaaa(lp9469
(I0
F0.0026
tp9470
a(F1125.0
F46.0
tp9471
a(F1364.0
F191.0
tp9472
aaa(lp9473
(I2
F0.0828
tp9474
a(lp9475
(I3
F0.0802
tp9476
a(lp9477
(I1
F0.0727
tp9478
a(lp9479
(I0
F0.0576
tp9480
a(F790.0
F107.0
tp9481
a(F765.0
F73.0
tp9482
aa(F732.0
F101.0
tp9483
aa(F756.0
F158.0
tp9484
aa(lp9485
(I1
F0.0581
tp9486
a(F757.0
F184.0
tp9487
a(F687.0
F229.0
tp9488
aaaa(lp9489
(I0
F0.122
tp9490
a(lp9491
(I3
F0.0925
tp9492
a(lp9493
(I1
F0.0996
tp9494
a(F1113.0
F236.0
tp9495
a(lp9496
(I3
F0.0524
tp9497
a(F729.0
F180.0
tp9498
a(F654.0
F254.0
tp9499
aaa(lp9500
(I1
F0.1057
tp9501
a(F701.0
F305.0
tp9502
a(F730.0
F248.0
tp9503
aaa(lp9504
(I3
F0.0945
tp9505
a(lp9506
(I2
F0.1097
tp9507
a(F738.0
F185.0
tp9508
a(F1161.0
F427.0
tp9509
aa(lp9510
(I1
F0.1512
tp9511
a(lp9512
(I2
F0.1398
tp9513
a(F661.0
F285.0
tp9514
a(F492.0
F325.0
tp9515
aa(F699.0
F475.0
tp9516
aaaaa(lp9517
(I0
F0.3761
tp9518
a(lp9519
(I1
F0.2181
tp9520
a(lp9521
(I3
F0.0682
tp9522
a(F566.0
F250.0
tp9523
a(lp9524
(I1
F0.1877
tp9525
a(F386.0
F405.0
tp9526
a(F400.0
F363.0
tp9527
aaa(lp9528
(I2
F0.2539
tp9529
a(F393.0
F608.0
tp9530
a(F373.0
F735.0
tp9531
aaa(F139.0
F698.0
tp9532
aaa(lp9533
(I0
F0.1442
tp9534
a(lp9535
(I0
F0.0681
tp9536
a(lp9537
(I1
F0.0569
tp9538
a(lp9539
(I2
F0.0691
tp9540
a(lp9541
(I0
F0.0094
tp9542
a(lp9543
(I1
F-0.0101
tp9544
a(lp9545
(I1
F-0.045
tp9546
a(lp9547
(I3
F0.0132
tp9548
a(F932.0
F23.0
tp9549
a(F759.0
F37.0
tp9550
aa(lp9551
(I3
F0.0303
tp9552
a(lp9553
(I1
F-0.0274
tp9554
a(F763.0
F12.0
tp9555
a(F1038.0
F7.0
tp9556
aa(F824.0
F23.0
tp9557
aaa(lp9558
(I3
F0.0286
tp9559
a(lp9560
(I3
F-0.0008
tp9561
a(F934.0
F20.0
tp9562
a(F852.0
F24.0
tp9563
aa(F819.0
F58.0
tp9564
aaa(lp9565
(I3
F0.0347
tp9566
a(lp9567
(I1
F0.0094
tp9568
a(F917.0
F31.0
tp9569
a(lp9570
(I1
F0.031
tp9571
a(F1209.0
F85.0
tp9572
a(F1146.0
F49.0
tp9573
aaa(lp9574
(I2
F0.0262
tp9575
a(F772.0
F54.0
tp9576
a(lp9577
(I3
F0.0637
tp9578
a(F1167.0
F105.0
tp9579
a(F794.0
F100.0
tp9580
aaaaa(F1068.0
F212.0
tp9581
aa(lp9582
(I2
F0.0647
tp9583
a(lp9584
(I3
F0.0391
tp9585
a(F1471.0
F124.0
tp9586
a(F979.0
F133.0
tp9587
aa(F669.0
F207.0
tp9588
aaa(lp9589
(I3
F0.0926
tp9590
a(lp9591
(I0
F0.093
tp9592
a(lp9593
(I1
F0.0861
tp9594
a(lp9595
(I2
F0.0737
tp9596
a(F698.0
F83.0
tp9597
a(F646.0
F133.0
tp9598
aa(F870.0
F184.0
tp9599
aa(lp9600
(I1
F0.1311
tp9601
a(lp9602
(I0
F0.1051
tp9603
a(F635.0
F194.0
tp9604
a(F1054.0
F259.0
tp9605
aa(F860.0
F310.0
tp9606
aaa(lp9607
(I2
F0.127
tp9608
a(lp9609
(I0
F0.0913
tp9610
a(F633.0
F169.0
tp9611
a(lp9612
(I0
F0.1101
tp9613
a(F649.0
F246.0
tp9614
a(F709.0
F224.0
tp9615
aaa(F842.0
F527.0
tp9616
aaaa(lp9617
(I1
F0.2188
tp9618
a(lp9619
(I2
F0.1785
tp9620
a(lp9621
(I1
F0.1701
tp9622
a(lp9623
(I3
F0.0809
tp9624
a(F731.0
F214.0
tp9625
a(F844.0
F476.0
tp9626
aa(F673.0
F411.0
tp9627
aa(lp9628
(I3
F0.187
tp9629
a(F552.0
F458.0
tp9630
a(F364.0
F444.0
tp9631
aaa(lp9632
(I0
F0.3672
tp9633
a(lp9634
(I3
F0.2067
tp9635
a(F626.0
F720.0
tp9636
a(F161.0
F636.0
tp9637
aa(F140.0
F668.0
tp9638
aaaa(lp9639
(I2
F0.137
tp9640
a(lp9641
(I0
F0.0693
tp9642
a(lp9643
(I3
F0.0691
tp9644
a(lp9645
(I2
F0.0445
tp9646
a(lp9647
(I0
F0.0146
tp9648
a(lp9649
(I2
F-0.0157
tp9650
a(lp9651
(I3
F-0.0067
tp9652
a(F1430.0
F25.0
tp9653
a(F1040.0
F32.0
tp9654
aa(lp9655
(I2
F-0.0085
tp9656
a(F753.0
F46.0
tp9657
a(lp9658
(I3
F0.018
tp9659
a(lp9660
(I3
F-0.0018
tp9661
a(F1095.0
F30.0
tp9662
a(F1063.0
F13.0
tp9663
aa(F1246.0
F51.0
tp9664
aaaa(lp9665
(I0
F0.0426
tp9666
a(lp9667
(I0
F0.0273
tp9668
a(lp9669
(I1
F0.0214
tp9670
a(F842.0
F35.0
tp9671
a(F776.0
F74.0
tp9672
aa(lp9673
(I2
F0.0312
tp9674
a(F888.0
F45.0
tp9675
a(F793.0
F29.0
tp9676
aaa(F1004.0
F88.0
tp9677
aaa(lp9678
(I2
F0.0687
tp9679
a(lp9680
(I1
F0.0403
tp9681
a(F797.0
F52.0
tp9682
a(F1267.0
F125.0
tp9683
aa(F754.0
F100.0
tp9684
aaa(lp9685
(I1
F0.0375
tp9686
a(lp9687
(I3
F0.0951
tp9688
a(F716.0
F91.0
tp9689
a(F1460.0
F94.0
tp9690
aa(F1201.0
F277.0
tp9691
aaa(lp9692
(I0
F0.1732
tp9693
a(lp9694
(I0
F0.0916
tp9695
a(lp9696
(I3
F0.0828
tp9697
a(lp9698
(I0
F0.0766
tp9699
a(F661.0
F89.0
tp9700
a(F1001.0
F187.0
tp9701
aa(F779.0
F238.0
tp9702
aa(lp9703
(I1
F0.1273
tp9704
a(lp9705
(I3
F0.081
tp9706
a(lp9707
(I3
F0.0462
tp9708
a(F703.0
F193.0
tp9709
a(F671.0
F129.0
tp9710
aa(lp9711
(I1
F0.1026
tp9712
a(F664.0
F288.0
tp9713
a(F847.0
F263.0
tp9714
aaa(lp9715
(I0
F0.1236
tp9716
a(F599.0
F246.0
tp9717
a(F1132.0
F412.0
tp9718
aaaa(F499.0
F312.0
tp9719
aaa(lp9720
(I3
F0.2091
tp9721
a(lp9722
(I1
F0.2181
tp9723
a(lp9724
(I2
F0.1983
tp9725
a(lp9726
(I1
F0.1072
tp9727
a(F563.0
F241.0
tp9728
a(lp9729
(I1
F0.1428
tp9730
a(F444.0
F342.0
tp9731
a(lp9732
(I2
F0.1683
tp9733
a(F978.0
F480.0
tp9734
a(F540.0
F388.0
tp9735
aaaa(F429.0
F394.0
tp9736
aa(F587.0
F763.0
tp9737
aa(lp9738
(I1
F0.2414
tp9739
a(F452.0
F563.0
tp9740
a(F121.0
F930.0
tp9741
aaaa(lp9742
(I2
F0.1108
tp9743
a(lp9744
(I0
F0.069
tp9745
a(lp9746
(I2
F0.0448
tp9747
a(lp9748
(I3
F0.0175
tp9749
a(lp9750
(I0
F0.0329
tp9751
a(lp9752
(I0
F0.0062
tp9753
a(lp9754
(I1
F-0.0101
tp9755
a(lp9756
(I3
F-0.0117
tp9757
a(F1344.0
F24.0
tp9758
a(F1163.0
F7.0
tp9759
aa(lp9760
(I2
F-0.0081
tp9761
a(F781.0
F27.0
tp9762
a(F848.0
F16.0
tp9763
aaa(lp9764
(I3
F0.0
tp9765
a(F775.0
F35.0
tp9766
a(F894.0
F25.0
tp9767
aaa(F835.0
F61.0
tp9768
aa(lp9769
(I1
F0.0157
tp9770
a(lp9771
(I3
F0.0408
tp9772
a(F1309.0
F33.0
tp9773
a(lp9774
(I0
F-0.0028
tp9775
a(F1197.0
F46.0
tp9776
a(F801.0
F51.0
tp9777
aaa(lp9778
(I3
F0.0584
tp9779
a(lp9780
(I0
F0.0276
tp9781
a(F746.0
F94.0
tp9782
a(F1181.0
F60.0
tp9783
aa(F874.0
F118.0
tp9784
aaaa(lp9785
(I3
F0.0648
tp9786
a(lp9787
(I3
F0.03
tp9788
a(F1124.0
F103.0
tp9789
a(lp9790
(I2
F0.0572
tp9791
a(F737.0
F73.0
tp9792
a(F662.0
F108.0
tp9793
aaa(lp9794
(I1
F0.0453
tp9795
a(F751.0
F90.0
tp9796
a(F747.0
F189.0
tp9797
aaaa(lp9798
(I1
F0.1133
tp9799
a(lp9800
(I2
F0.0728
tp9801
a(lp9802
(I3
F0.0395
tp9803
a(F692.0
F82.0
tp9804
a(F743.0
F119.0
tp9805
aa(lp9806
(I3
F0.0931
tp9807
a(lp9808
(I3
F0.0627
tp9809
a(F797.0
F152.0
tp9810
a(F682.0
F159.0
tp9811
aa(F754.0
F291.0
tp9812
aaa(lp9813
(I0
F0.1474
tp9814
a(lp9815
(I2
F0.0861
tp9816
a(F830.0
F192.0
tp9817
a(F637.0
F230.0
tp9818
aa(F508.0
F272.0
tp9819
aaaa(lp9820
(I2
F0.1976
tp9821
a(lp9822
(I0
F0.149
tp9823
a(lp9824
(I3
F0.1315
tp9825
a(lp9826
(I3
F0.0786
tp9827
a(F1204.0
F361.0
tp9828
a(lp9829
(I1
F0.1255
tp9830
a(F696.0
F249.0
tp9831
a(F547.0
F271.0
tp9832
aaa(F762.0
F488.0
tp9833
aa(lp9834
(I1
F0.1708
tp9835
a(lp9836
(I1
F0.1525
tp9837
a(F538.0
F276.0
tp9838
a(F488.0
F320.0
tp9839
aa(F836.0
F681.0
tp9840
aaa(lp9841
(I3
F0.3065
tp9842
a(lp9843
(I3
F0.0743
tp9844
a(F499.0
F437.0
tp9845
a(lp9846
(I2
F0.2512
tp9847
a(F520.0
F634.0
tp9848
a(F247.0
F532.0
tp9849
aaa(F97.0
F708.0
tp9850
aaaa(lp9851
(I2
F0.1413
tp9852
a(lp9853
(I0
F0.0681
tp9854
a(lp9855
(I2
F0.055
tp9856
a(lp9857
(I3
F0.0498
tp9858
a(lp9859
(I1
F0.0143
tp9860
a(lp9861
(I0
F0.01
tp9862
a(lp9863
(I1
F-0.0122
tp9864
a(lp9865
(I2
F-0.0382
tp9866
a(F777.0
F19.0
tp9867
a(lp9868
(I0
F-0.0143
tp9869
a(lp9870
(I1
F-0.0381
tp9871
a(F810.0
F16.0
tp9872
a(F823.0
F6.0
tp9873
aa(F827.0
F5.0
tp9874
aaa(lp9875
(I2
F-0.0004
tp9876
a(F784.0
F34.0
tp9877
a(F778.0
F11.0
tp9878
aaa(F1271.0
F40.0
tp9879
aa(lp9880
(I3
F-0.0109
tp9881
a(F819.0
F82.0
tp9882
a(lp9883
(I3
F0.0252
tp9884
a(lp9885
(I1
F0.0516
tp9886
a(F1292.0
F42.0
tp9887
a(F851.0
F56.0
tp9888
aa(lp9889
(I3
F0.0377
tp9890
a(F895.0
F77.0
tp9891
a(F750.0
F42.0
tp9892
aaaaa(lp9893
(I1
F0.0138
tp9894
a(lp9895
(I3
F0.0916
tp9896
a(F769.0
F65.0
tp9897
a(F957.0
F29.0
tp9898
aa(lp9899
(I2
F0.0353
tp9900
a(F797.0
F97.0
tp9901
a(F835.0
F81.0
tp9902
aaaa(lp9903
(I3
F0.0648
tp9904
a(lp9905
(I0
F0.0486
tp9906
a(F726.0
F97.0
tp9907
a(F831.0
F83.0
tp9908
aa(F1244.0
F257.0
tp9909
aaa(lp9910
(I2
F0.1046
tp9911
a(lp9912
(I1
F0.1133
tp9913
a(lp9914
(I1
F0.0921
tp9915
a(lp9916
(I1
F0.078
tp9917
a(lp9918
(I2
F0.0728
tp9919
a(F837.0
F117.0
tp9920
a(F708.0
F192.0
tp9921
aa(F915.0
F144.0
tp9922
aa(F1040.0
F246.0
tp9923
aa(lp9924
(I1
F0.1719
tp9925
a(F1122.0
F340.0
tp9926
a(F539.0
F227.0
tp9927
aaa(lp9928
(I3
F0.0527
tp9929
a(F637.0
F200.0
tp9930
a(lp9931
(I2
F0.1217
tp9932
a(F1164.0
F451.0
tp9933
a(lp9934
(I1
F0.1333
tp9935
a(F669.0
F296.0
tp9936
a(F553.0
F274.0
tp9937
aaaaaa(lp9938
(I1
F0.2215
tp9939
a(lp9940
(I2
F0.1788
tp9941
a(lp9942
(I3
F0.0725
tp9943
a(F597.0
F213.0
tp9944
a(lp9945
(I2
F0.153
tp9946
a(F456.0
F340.0
tp9947
a(F836.0
F480.0
tp9948
aaa(lp9949
(I3
F0.1372
tp9950
a(F515.0
F384.0
tp9951
a(F681.0
F794.0
tp9952
aaa(lp9953
(I2
F0.3532
tp9954
a(lp9955
(I0
F0.268
tp9956
a(F306.0
F561.0
tp9957
a(F313.0
F514.0
tp9958
aa(F151.0
F673.0
tp9959
aaaa(lp9960
(I1
F0.1267
tp9961
a(lp9962
(I2
F0.0743
tp9963
a(lp9964
(I0
F0.0364
tp9965
a(lp9966
(I1
F0.0161
tp9967
a(lp9968
(I3
F0.0408
tp9969
a(lp9970
(I2
F0.0217
tp9971
a(lp9972
(I1
F-0.014
tp9973
a(lp9974
(I1
F-0.039
tp9975
a(F1381.0
F27.0
tp9976
a(F1450.0
F5.0
tp9977
aa(lp9978
(I2
F-0.0012
tp9979
a(F1074.0
F36.0
tp9980
a(F1148.0
F14.0
tp9981
aaa(F928.0
F27.0
tp9982
aa(lp9983
(I0
F-0.006
tp9984
a(F1248.0
F49.0
tp9985
a(F908.0
F72.0
tp9986
aaa(lp9987
(I3
F0.0359
tp9988
a(lp9989
(I0
F0.0249
tp9990
a(F1441.0
F88.0
tp9991
a(F762.0
F26.0
tp9992
aa(F1233.0
F126.0
tp9993
aaa(lp9994
(I0
F0.09
tp9995
a(lp9996
(I1
F0.0789
tp9997
a(lp9998
(I2
F0.0283
tp9999
a(F737.0
F50.0
tp10000
a(lp10001
(I3
F0.0744
tp10002
a(lp10003
(I3
F0.0321
tp10004
a(F1000.0
F73.0
tp10005
a(lp10006
(I3
F0.0523
tp10007
a(F816.0
F104.0
tp10008
a(F807.0
F63.0
tp10009
aaa(F692.0
F113.0
tp10010
aaa(F879.0
F122.0
tp10011
aa(F724.0
F142.0
tp10012
aaa(lp10013
(I2
F0.1356
tp10014
a(lp10015
(I0
F0.0909
tp10016
a(lp10017
(I3
F0.0693
tp10018
a(F999.0
F157.0
tp10019
a(F1217.0
F316.0
tp10020
aa(lp10021
(I1
F0.1151
tp10022
a(lp10023
(I3
F0.081
tp10024
a(F745.0
F190.0
tp10025
a(F956.0
F370.0
tp10026
aa(F644.0
F155.0
tp10027
aaa(lp10028
(I1
F0.0802
tp10029
a(F573.0
F247.0
tp10030
a(F444.0
F357.0
tp10031
aaaa(lp10032
(I2
F0.1786
tp10033
a(lp10034
(I2
F0.0866
tp10035
a(lp10036
(I0
F0.0764
tp10037
a(F713.0
F102.0
tp10038
a(F885.0
F287.0
tp10039
aa(lp10040
(I1
F0.1824
tp10041
a(lp10042
(I3
F0.092
tp10043
a(F1024.0
F419.0
tp10044
a(lp10045
(I1
F0.1512
tp10046
a(F796.0
F405.0
tp10047
a(F651.0
F396.0
tp10048
aaa(F544.0
F374.0
tp10049
aaa(lp10050
(I2
F0.246
tp10051
a(lp10052
(I3
F0.184
tp10053
a(F561.0
F551.0
tp10054
a(F376.0
F493.0
tp10055
aa(lp10056
(I3
F0.2104
tp10057
a(F494.0
F543.0
tp10058
a(F134.0
F977.0
tp10059
aaaaa(lp10060
(I2
F0.137
tp10061
a(lp10062
(I2
F0.072
tp10063
a(lp10064
(I0
F0.0804
tp10065
a(lp10066
(I2
F0.0282
tp10067
a(lp10068
(I0
F0.0119
tp10069
a(lp10070
(I3
F0.0493
tp10071
a(lp10072
(I1
F0.0156
tp10073
a(lp10074
(I1
F-0.014
tp10075
a(lp10076
(I1
F-0.0453
tp10077
a(F1164.0
F31.0
tp10078
a(lp10079
(I1
F-0.0287
tp10080
a(F796.0
F6.0
tp10081
a(F993.0
F2.0
tp10082
aaa(lp10083
(I0
F-0.0037
tp10084
a(F843.0
F16.0
tp10085
a(F905.0
F28.0
tp10086
aaa(F999.0
F46.0
tp10087
aa(F1300.0
F88.0
tp10088
aa(lp10089
(I3
F0.0466
tp10090
a(lp10091
(I1
F0.0158
tp10092
a(F845.0
F28.0
tp10093
a(lp10094
(I1
F0.0363
tp10095
a(F737.0
F52.0
tp10096
a(F906.0
F47.0
tp10097
aaa(F713.0
F82.0
tp10098
aaa(lp10099
(I1
F0.0791
tp10100
a(lp10101
(I3
F0.064
tp10102
a(lp10103
(I1
F0.0173
tp10104
a(F1082.0
F48.0
tp10105
a(lp10106
(I0
F0.049
tp10107
a(lp10108
(I3
F0.0297
tp10109
a(F822.0
F55.0
tp10110
a(F869.0
F97.0
tp10111
aa(F1112.0
F73.0
tp10112
aaa(lp10113
(I1
F0.039
tp10114
a(F745.0
F88.0
tp10115
a(F798.0
F120.0
tp10116
aaa(F828.0
F163.0
tp10117
aaa(lp10118
(I0
F0.1241
tp10119
a(F928.0
F186.0
tp10120
a(F641.0
F186.0
tp10121
aaa(lp10122
(I0
F0.0838
tp10123
a(lp10124
(I3
F0.0861
tp10125
a(lp10126
(I2
F0.0838
tp10127
a(F793.0
F77.0
tp10128
a(F669.0
F163.0
tp10129
aa(F748.0
F215.0
tp10130
aa(lp10131
(I1
F0.1586
tp10132
a(lp10133
(I2
F0.1097
tp10134
a(lp10135
(I1
F0.1151
tp10136
a(lp10137
(I3
F0.081
tp10138
a(F751.0
F202.0
tp10139
a(F716.0
F274.0
tp10140
aa(F649.0
F161.0
tp10141
aa(lp10142
(I1
F0.1299
tp10143
a(lp10144
(I3
F0.1051
tp10145
a(F615.0
F205.0
tp10146
a(F615.0
F242.0
tp10147
aa(F557.0
F252.0
tp10148
aaa(F615.0
F351.0
tp10149
aaaa(lp10150
(I2
F0.2086
tp10151
a(lp10152
(I3
F0.0947
tp10153
a(lp10154
(I1
F0.1487
tp10155
a(F597.0
F195.0
tp10156
a(F477.0
F307.0
tp10157
aa(lp10158
(I3
F0.1554
tp10159
a(lp10160
(I3
F0.129
tp10161
a(F441.0
F336.0
tp10162
a(F504.0
F305.0
tp10163
aa(lp10164
(I0
F0.1705
tp10165
a(F425.0
F418.0
tp10166
a(F449.0
F338.0
tp10167
aaaa(lp10168
(I0
F0.363
tp10169
a(lp10170
(I3
F0.1491
tp10171
a(F578.0
F459.0
tp10172
a(F447.0
F1028.0
tp10173
aa(F156.0
F662.0
tp10174
aaaa(lp10175
(I2
F0.1361
tp10176
a(lp10177
(I1
F0.0614
tp10178
a(lp10179
(I2
F0.0588
tp10180
a(lp10181
(I0
F0.0046
tp10182
a(lp10183
(I1
F-0.0074
tp10184
a(lp10185
(I2
F0.0059
tp10186
a(lp10187
(I0
F-0.0172
tp10188
a(lp10189
(I1
F-0.0325
tp10190
a(lp10191
(I2
F-0.0401
tp10192
a(F766.0
F20.0
tp10193
a(F1031.0
F19.0
tp10194
aa(F774.0
F7.0
tp10195
aa(F1014.0
F7.0
tp10196
aa(F843.0
F38.0
tp10197
aa(lp10198
(I3
F0.0034
tp10199
a(F792.0
F19.0
tp10200
a(F1086.0
F52.0
tp10201
aaa(lp10202
(I0
F0.0539
tp10203
a(lp10204
(I3
F0.0593
tp10205
a(lp10206
(I2
F0.0122
tp10207
a(F1304.0
F50.0
tp10208
a(lp10209
(I1
F0.0164
tp10210
a(F1181.0
F49.0
tp10211
a(lp10212
(I0
F0.0279
tp10213
a(F774.0
F82.0
tp10214
a(lp10215
(I0
F0.0391
tp10216
a(F786.0
F39.0
tp10217
a(F737.0
F51.0
tp10218
aaaaa(F1183.0
F114.0
tp10219
aa(F829.0
F98.0
tp10220
aaa(lp10221
(I2
F0.0843
tp10222
a(F1381.0
F189.0
tp10223
a(F775.0
F206.0
tp10224
aaa(lp10225
(I2
F0.0728
tp10226
a(lp10227
(I1
F0.1421
tp10228
a(lp10229
(I0
F0.0886
tp10230
a(lp10231
(I2
F0.0584
tp10232
a(lp10233
(I1
F0.0776
tp10234
a(F720.0
F71.0
tp10235
a(F989.0
F68.0
tp10236
aa(F839.0
F102.0
tp10237
aa(F651.0
F120.0
tp10238
aa(F1005.0
F267.0
tp10239
aa(lp10240
(I1
F0.15
tp10241
a(lp10242
(I3
F0.0785
tp10243
a(lp10244
(I1
F0.1007
tp10245
a(F980.0
F182.0
tp10246
a(F1031.0
F281.0
tp10247
aa(lp10248
(I0
F0.0927
tp10249
a(F732.0
F216.0
tp10250
a(lp10251
(I0
F0.1228
tp10252
a(F1115.0
F429.0
tp10253
a(F598.0
F265.0
tp10254
aaaa(F803.0
F451.0
tp10255
aaaa(lp10256
(I1
F0.2192
tp10257
a(lp10258
(I2
F0.1937
tp10259
a(lp10260
(I1
F0.1702
tp10261
a(lp10262
(I2
F0.159
tp10263
a(lp10264
(I3
F0.1259
tp10265
a(F767.0
F270.0
tp10266
a(F486.0
F334.0
tp10267
aa(F724.0
F456.0
tp10268
aa(F660.0
F472.0
tp10269
aa(F745.0
F800.0
tp10270
aa(lp10271
(I2
F0.3663
tp10272
a(lp10273
(I3
F0.1559
tp10274
a(F421.0
F400.0
tp10275
a(F228.0
F720.0
tp10276
aa(F134.0
F632.0
tp10277
aaaa(lp10278
(I2
F0.1187
tp10279
a(lp10280
(I2
F0.0727
tp10281
a(lp10282
(I0
F0.064
tp10283
a(lp10284
(I3
F0.0299
tp10285
a(lp10286
(I1
F0.0095
tp10287
a(lp10288
(I1
F-0.0514
tp10289
a(F932.0
F28.0
tp10290
a(lp10291
(I1
F-0.0155
tp10292
a(lp10293
(I3
F-0.013
tp10294
a(F786.0
F9.0
tp10295
a(F1171.0
F5.0
tp10296
aa(lp10297
(I2
F-0.0012
tp10298
a(F891.0
F31.0
tp10299
a(F1150.0
F20.0
tp10300
aaaa(lp10301
(I1
F0.0603
tp10302
a(lp10303
(I0
F0.0332
tp10304
a(lp10305
(I1
F0.0208
tp10306
a(F771.0
F37.0
tp10307
a(F1229.0
F39.0
tp10308
aa(F804.0
F59.0
tp10309
aa(F1080.0
F97.0
tp10310
aaa(lp10311
(I1
F0.0162
tp10312
a(lp10313
(I0
F-0.003
tp10314
a(lp10315
(I1
F-0.0335
tp10316
a(F794.0
F41.0
tp10317
a(F802.0
F25.0
tp10318
aa(F1379.0
F98.0
tp10319
aa(lp10320
(I1
F0.0665
tp10321
a(lp10322
(I2
F0.0531
tp10323
a(lp10324
(I3
F0.0639
tp10325
a(F1335.0
F102.0
tp10326
a(F748.0
F82.0
tp10327
aa(F698.0
F85.0
tp10328
aa(F705.0
F108.0
tp10329
aaaa(lp10330
(I1
F0.1142
tp10331
a(lp10332
(I1
F0.067
tp10333
a(F787.0
F125.0
tp10334
a(F1175.0
F129.0
tp10335
aa(F858.0
F299.0
tp10336
aaa(lp10337
(I1
F0.1302
tp10338
a(lp10339
(I3
F0.069
tp10340
a(lp10341
(I0
F0.095
tp10342
a(F1132.0
F194.0
tp10343
a(F632.0
F179.0
tp10344
aa(lp10345
(I2
F0.0915
tp10346
a(F929.0
F307.0
tp10347
a(lp10348
(I0
F0.0983
tp10349
a(F664.0
F152.0
tp10350
a(F853.0
F273.0
tp10351
aaaa(F958.0
F392.0
tp10352
aaa(lp10353
(I0
F0.1838
tp10354
a(lp10355
(I0
F0.1502
tp10356
a(lp10357
(I3
F0.1354
tp10358
a(lp10359
(I2
F0.1461
tp10360
a(lp10361
(I3
F0.0991
tp10362
a(F823.0
F263.0
tp10363
a(F579.0
F233.0
tp10364
aa(F619.0
F277.0
tp10365
aa(F676.0
F460.0
tp10366
aa(lp10367
(I2
F0.1656
tp10368
a(F789.0
F412.0
tp10369
a(F486.0
F427.0
tp10370
aaa(lp10371
(I1
F0.218
tp10372
a(lp10373
(I1
F0.1869
tp10374
a(F422.0
F357.0
tp10375
a(F423.0
F442.0
tp10376
aa(lp10377
(I3
F0.2306
tp10378
a(F651.0
F882.0
tp10379
a(F157.0
F903.0
tp10380
aaaaa(lp10381
(I0
F0.1416
tp10382
a(lp10383
(I1
F0.0719
tp10384
a(lp10385
(I2
F0.0548
tp10386
a(lp10387
(I0
F0.0199
tp10388
a(lp10389
(I3
F0.0264
tp10390
a(lp10391
(I0
F0.0103
tp10392
a(lp10393
(I1
F-0.0123
tp10394
a(lp10395
(I0
F-0.0172
tp10396
a(lp10397
(I1
F-0.041
tp10398
a(F1022.0
F25.0
tp10399
a(F859.0
F9.0
tp10400
aa(F864.0
F4.0
tp10401
aa(lp10402
(I2
F-0.0037
tp10403
a(F892.0
F36.0
tp10404
a(F997.0
F12.0
tp10405
aaa(F742.0
F36.0
tp10406
aa(lp10407
(I2
F-0.0138
tp10408
a(F932.0
F30.0
tp10409
a(lp10410
(I0
F0.0061
tp10411
a(F1238.0
F82.0
tp10412
a(F762.0
F28.0
tp10413
aaaa(lp10414
(I2
F0.044
tp10415
a(lp10416
(I1
F0.012
tp10417
a(F783.0
F27.0
tp10418
a(lp10419
(I0
F0.0431
tp10420
a(lp10421
(I3
F0.0252
tp10422
a(F911.0
F26.0
tp10423
a(F1066.0
F96.0
tp10424
aa(F934.0
F104.0
tp10425
aaa(F1062.0
F115.0
tp10426
aaa(lp10427
(I0
F0.0804
tp10428
a(lp10429
(I3
F0.0928
tp10430
a(lp10431
(I0
F0.0608
tp10432
a(lp10433
(I3
F0.045
tp10434
a(F763.0
F112.0
tp10435
a(F655.0
F135.0
tp10436
aa(F827.0
F108.0
tp10437
aa(F730.0
F179.0
tp10438
aa(F643.0
F175.0
tp10439
aaa(lp10440
(I2
F0.1108
tp10441
a(lp10442
(I3
F0.0699
tp10443
a(lp10444
(I0
F0.0936
tp10445
a(lp10446
(I1
F0.1351
tp10447
a(lp10448
(I0
F0.0726
tp10449
a(F1127.0
F106.0
tp10450
a(F744.0
F99.0
tp10451
aa(F685.0
F131.0
tp10452
aa(F1076.0
F223.0
tp10453
aa(lp10454
(I1
F0.0893
tp10455
a(F719.0
F161.0
tp10456
a(lp10457
(I2
F0.0923
tp10458
a(F553.0
F198.0
tp10459
a(F729.0
F220.0
tp10460
aaaa(lp10461
(I2
F0.1416
tp10462
a(lp10463
(I3
F0.1052
tp10464
a(F894.0
F306.0
tp10465
a(F875.0
F411.0
tp10466
aa(F479.0
F347.0
tp10467
aaaa(lp10468
(I3
F0.2092
tp10469
a(lp10470
(I2
F0.1786
tp10471
a(lp10472
(I1
F0.1817
tp10473
a(lp10474
(I2
F0.1133
tp10475
a(F620.0
F176.0
tp10476
a(lp10477
(I3
F0.1259
tp10478
a(F807.0
F342.0
tp10479
a(F672.0
F396.0
tp10480
aaa(F511.0
F441.0
tp10481
aa(lp10482
(I0
F0.2616
tp10483
a(lp10484
(I2
F0.2041
tp10485
a(F477.0
F404.0
tp10486
a(F327.0
F488.0
tp10487
aa(F439.0
F347.0
tp10488
aaa(lp10489
(I2
F0.2625
tp10490
a(F373.0
F461.0
tp10491
a(F175.0
F900.0
tp10492
aaaa.