(lp0
(lp1
(I6
F2.2405
tp2
a(lp3
(I1
F0.1115
tp4
a(lp5
(I5
F0.0588
tp6
a(lp7
(I1
F0.0256
tp8
a(lp9
(I5
F0.0164
tp10
a(lp11
(I0
F0.1681
tp12
a(lp13
(I5
F0.0041
tp14
a(lp15
(I6
F0.2332
tp16
a(lp17
(I3
F-0.0305
tp18
a(F979.0
F20.0
tp19
a(F1219.0
F40.0
tp20
aa(F804.0
F37.0
tp21
aa(F746.0
F43.0
tp22
aa(lp23
(I3
F0.0074
tp24
a(lp25
(I7
F0.0085
tp26
a(lp27
(I5
F-0.0126
tp28
a(F1184.0
F10.0
tp29
a(F825.0
F0.0
tp30
aa(F774.0
F21.0
tp31
aa(F921.0
F19.0
tp32
aaa(lp33
(I3
F-0.0006
tp34
a(F733.0
F55.0
tp35
a(lp36
(I3
F0.018
tp37
a(F788.0
F27.0
tp38
a(F1022.0
F66.0
tp39
aaaa(lp40
(I3
F0.0727
tp41
a(lp42
(I2
F0.5268
tp43
a(lp44
(I2
F0.1752
tp45
a(lp46
(I6
F0.0186
tp47
a(F1153.0
F76.0
tp48
a(F727.0
F79.0
tp49
aa(F702.0
F91.0
tp50
aa(lp51
(I0
F0.9765
tp52
a(F827.0
F62.0
tp53
a(F1265.0
F65.0
tp54
aaa(F777.0
F134.0
tp55
aaa(lp56
(I4
F0.0639
tp57
a(lp58
(I1
F0.0661
tp59
a(F784.0
F78.0
tp60
a(lp61
(I1
F0.0909
tp62
a(F757.0
F132.0
tp63
a(F715.0
F106.0
tp64
aaa(lp65
(I0
F0.9436
tp66
a(lp67
(I6
F0.3104
tp68
a(F1274.0
F246.0
tp69
a(lp70
(I1
F0.0754
tp71
a(F654.0
F178.0
tp72
a(F588.0
F234.0
tp73
aaa(lp74
(I5
F0.0826
tp75
a(F826.0
F117.0
tp76
a(F677.0
F203.0
tp77
aaaaa(lp78
(I6
F0.2306
tp79
a(lp80
(I0
F0.0014
tp81
a(lp82
(I7
F0.0809
tp83
a(F655.0
F124.0
tp84
a(lp85
(I1
F0.1606
tp86
a(F1044.0
F247.0
tp87
a(F898.0
F261.0
tp88
aaa(lp89
(I5
F0.1717
tp90
a(lp91
(I5
F0.1061
tp92
a(F704.0
F196.0
tp93
a(F680.0
F335.0
tp94
aa(F399.0
F469.0
tp95
aaa(lp96
(I4
F0.6442
tp97
a(lp98
(I0
F0.2632
tp99
a(F488.0
F310.0
tp100
a(F538.0
F495.0
tp101
aa(lp102
(I5
F0.2011
tp103
a(lp104
(I5
F0.1394
tp105
a(F498.0
F287.0
tp106
a(F425.0
F548.0
tp107
aa(F143.0
F740.0
tp108
aaaaa(lp109
(I3
F0.1226
tp110
a(F554.0
F222.0
tp111
a(F190.0
F1150.0
tp112
aaa(lp113
(I7
F0.1413
tp114
a(lp115
(I1
F0.0867
tp116
a(lp117
(I2
F1.8904
tp118
a(lp119
(I3
F0.0333
tp120
a(lp121
(I5
F0.0318
tp122
a(lp123
(I5
F0.0081
tp124
a(lp125
(I7
F0.0291
tp126
a(lp127
(I6
F0.4023
tp128
a(lp129
(I2
F0.2415
tp130
a(lp131
(I3
F-0.0123
tp132
a(F1278.0
F18.0
tp133
a(F762.0
F32.0
tp134
aa(F1053.0
F8.0
tp135
aa(lp136
(I6
F1.0459
tp137
a(F997.0
F4.0
tp138
a(F887.0
F10.0
tp139
aaa(F1101.0
F43.0
tp140
aa(lp141
(I4
F0.5561
tp142
a(lp143
(I5
F0.0176
tp144
a(F770.0
F52.0
tp145
a(F970.0
F48.0
tp146
aa(F1392.0
F42.0
tp147
aaa(lp148
(I2
F0.4984
tp149
a(F1417.0
F132.0
tp150
a(F665.0
F91.0
tp151
aaa(lp152
(I3
F0.0705
tp153
a(lp154
(I7
F0.0686
tp155
a(lp156
(I3
F0.0393
tp157
a(F719.0
F83.0
tp158
a(lp159
(I0
F0.2799
tp160
a(F1316.0
F88.0
tp161
a(lp162
(I3
F0.054
tp163
a(F963.0
F72.0
tp164
a(F721.0
F72.0
tp165
aaaa(F1022.0
F196.0
tp166
aa(lp167
(I2
F0.3079
tp168
a(F952.0
F172.0
tp169
a(F957.0
F225.0
tp170
aaaa(F747.0
F108.0
tp171
aa(lp172
(I3
F0.2209
tp173
a(lp174
(I2
F0.5552
tp175
a(lp176
(I6
F0.0161
tp177
a(lp178
(I7
F0.0571
tp179
a(F994.0
F154.0
tp180
a(lp181
(I5
F0.1181
tp182
a(F788.0
F116.0
tp183
a(F729.0
F187.0
tp184
aaa(lp185
(I3
F0.1118
tp186
a(F681.0
F175.0
tp187
a(F859.0
F343.0
tp188
aaa(lp189
(I4
F0.5941
tp190
a(F666.0
F197.0
tp191
a(lp192
(I2
F1.6205
tp193
a(F1024.0
F490.0
tp194
a(F509.0
F327.0
tp195
aaaa(F419.0
F448.0
tp196
aaa(lp197
(I6
F0.3247
tp198
a(lp199
(I5
F0.1348
tp200
a(F1105.0
F103.0
tp201
a(lp202
(I7
F0.212
tp203
a(F775.0
F403.0
tp204
a(F608.0
F197.0
tp205
aaa(lp206
(I7
F0.2255
tp207
a(lp208
(I4
F1.2062
tp209
a(F642.0
F617.0
tp210
a(F278.0
F686.0
tp211
aa(lp212
(I7
F0.3207
tp213
a(F138.0
F798.0
tp214
a(F52.0
F767.0
tp215
aaaaa(lp216
(I7
F0.1199
tp217
a(lp218
(I5
F0.0855
tp219
a(lp220
(I7
F0.0623
tp221
a(lp222
(I5
F0.0331
tp223
a(lp224
(I6
F0.1366
tp225
a(lp226
(I0
F0.2687
tp227
a(lp228
(I1
F0.0133
tp229
a(F2402.0
F77.0
tp230
a(F1112.0
F102.0
tp231
aa(lp232
(I0
F1.0478
tp233
a(F1041.0
F75.0
tp234
a(F728.0
F65.0
tp235
aaa(lp236
(I4
F1.0657
tp237
a(lp238
(I1
F-0.0002
tp239
a(lp240
(I0
F0.303
tp241
a(F873.0
F23.0
tp242
a(F818.0
F8.0
tp243
aa(lp244
(I7
F0.0171
tp245
a(F793.0
F29.0
tp246
a(F1055.0
F66.0
tp247
aaa(F1508.0
F16.0
tp248
aaa(lp249
(I6
F1.1069
tp250
a(lp251
(I3
F0.0918
tp252
a(lp253
(I5
F0.061
tp254
a(lp255
(I5
F0.0407
tp256
a(F693.0
F74.0
tp257
a(lp258
(I3
F0.0465
tp259
a(F771.0
F48.0
tp260
a(F779.0
F67.0
tp261
aaa(F964.0
F122.0
tp262
aa(F720.0
F165.0
tp263
aa(F1069.0
F60.0
tp264
aaa(lp265
(I4
F0.2745
tp266
a(lp267
(I3
F0.0664
tp268
a(F1088.0
F81.0
tp269
a(F701.0
F107.0
tp270
aa(lp271
(I6
F1.3052
tp272
a(F774.0
F172.0
tp273
a(F633.0
F110.0
tp274
aaaa(lp275
(I1
F0.1879
tp276
a(lp277
(I2
F0.2898
tp278
a(lp279
(I3
F0.1133
tp280
a(lp281
(I7
F0.0712
tp282
a(F700.0
F86.0
tp283
a(F744.0
F164.0
tp284
aa(F1108.0
F289.0
tp285
aa(lp286
(I1
F0.125
tp287
a(lp288
(I5
F0.1102
tp289
a(F927.0
F264.0
tp290
a(F541.0
F258.0
tp291
aa(F667.0
F350.0
tp292
aaa(F510.0
F489.0
tp293
aaa(lp294
(I0
F0.1663
tp295
a(lp296
(I1
F0.0778
tp297
a(F1077.0
F92.0
tp298
a(lp299
(I6
F0.0013
tp300
a(F1763.0
F371.0
tp301
a(F579.0
F406.0
tp302
aaa(lp303
(I5
F0.2011
tp304
a(lp305
(I5
F0.1329
tp306
a(F767.0
F367.0
tp307
a(lp308
(I5
F0.1635
tp309
a(F405.0
F483.0
tp310
a(F383.0
F585.0
tp311
aaa(lp312
(I6
F2.2705
tp313
a(F254.0
F866.0
tp314
a(F61.0
F915.0
tp315
aaaaa(lp316
(I3
F0.1133
tp317
a(lp318
(I4
F2.177
tp319
a(lp320
(I1
F0.0574
tp321
a(lp322
(I4
F1.5691
tp323
a(lp324
(I5
F0.0603
tp325
a(lp326
(I1
F0.0288
tp327
a(lp328
(I1
F-0.0436
tp329
a(lp330
(I3
F-0.0583
tp331
a(F806.0
F21.0
tp332
a(F781.0
F12.0
tp333
aa(lp334
(I0
F0.7862
tp335
a(lp336
(I2
F-0.1321
tp337
a(F734.0
F55.0
tp338
a(lp339
(I7
F0.0255
tp340
a(lp341
(I3
F0.0156
tp342
a(lp343
(I0
F0.1455
tp344
a(lp345
(I1
F-0.0085
tp346
a(F836.0
F32.0
tp347
a(F778.0
F23.0
tp348
aa(F1265.0
F9.0
tp349
aa(F735.0
F35.0
tp350
aa(lp351
(I6
F0.3603
tp352
a(F1148.0
F65.0
tp353
a(F765.0
F66.0
tp354
aaaa(lp355
(I4
F1.0732
tp356
a(F1169.0
F31.0
tp357
a(F892.0
F14.0
tp358
aaaa(lp359
(I3
F0.0501
tp360
a(lp361
(I0
F0.5222
tp362
a(F1475.0
F126.0
tp363
a(F1125.0
F56.0
tp364
aa(F812.0
F84.0
tp365
aaa(F1288.0
F224.0
tp366
aa(F892.0
F97.0
tp367
aa(lp368
(I7
F0.1127
tp369
a(lp370
(I4
F0.1429
tp371
a(lp372
(I2
F0.0084
tp373
a(F1402.0
F173.0
tp374
a(F707.0
F113.0
tp375
aa(lp376
(I1
F0.0808
tp377
a(lp378
(I3
F0.067
tp379
a(F746.0
F104.0
tp380
a(F784.0
F154.0
tp381
aa(lp382
(I4
F0.9632
tp383
a(F794.0
F228.0
tp384
a(F676.0
F148.0
tp385
aaaa(F1101.0
F411.0
tp386
aaa(F553.0
F201.0
tp387
aa(lp388
(I4
F0.4394
tp389
a(lp390
(I0
F0.0016
tp391
a(lp392
(I1
F0.1465
tp393
a(lp394
(I5
F0.1211
tp395
a(F685.0
F153.0
tp396
a(F662.0
F152.0
tp397
aa(lp398
(I5
F0.1698
tp399
a(F654.0
F228.0
tp400
a(F911.0
F256.0
tp401
aaa(lp402
(I5
F0.1419
tp403
a(F1095.0
F376.0
tp404
a(F587.0
F555.0
tp405
aaa(lp406
(I5
F0.2114
tp407
a(lp408
(I6
F0.925
tp409
a(lp410
(I5
F0.1387
tp411
a(F556.0
F284.0
tp412
a(F464.0
F425.0
tp413
aa(lp414
(I1
F0.1554
tp415
a(F453.0
F386.0
tp416
a(F271.0
F505.0
tp417
aaa(lp418
(I6
F1.3829
tp419
a(F200.0
F633.0
tp420
a(F92.0
F1131.0
tp421
aaaaa(lp422
(I5
F0.122
tp423
a(lp424
(I3
F0.0718
tp425
a(lp426
(I1
F0.0253
tp427
a(lp428
(I3
F0.0126
tp429
a(lp430
(I0
F0.6441
tp431
a(lp432
(I7
F0.0249
tp433
a(lp434
(I1
F-0.0396
tp435
a(F977.0
F11.0
tp436
a(lp437
(I0
F0.0016
tp438
a(F1456.0
F51.0
tp439
a(F1327.0
F22.0
tp440
aaa(lp441
(I6
F0.0348
tp442
a(F885.0
F44.0
tp443
a(F1106.0
F80.0
tp444
aaa(lp445
(I0
F0.9859
tp446
a(F789.0
F5.0
tp447
a(F1387.0
F45.0
tp448
aaa(lp449
(I3
F0.0267
tp450
a(lp451
(I5
F0.0191
tp452
a(F871.0
F28.0
tp453
a(F766.0
F54.0
tp454
aa(F752.0
F52.0
tp455
aaa(lp456
(I6
F0.0054
tp457
a(lp458
(I5
F0.0571
tp459
a(lp460
(I3
F0.0359
tp461
a(F771.0
F63.0
tp462
a(F1117.0
F71.0
tp463
aa(F901.0
F95.0
tp464
aa(lp465
(I5
F0.0691
tp466
a(lp467
(I6
F0.7446
tp468
a(lp469
(I3
F0.0409
tp470
a(F720.0
F69.0
tp471
a(F784.0
F111.0
tp472
aa(lp473
(I5
F0.0478
tp474
a(F1214.0
F86.0
tp475
a(F855.0
F89.0
tp476
aaa(F717.0
F166.0
tp477
aaaa(lp478
(I4
F0.075
tp479
a(lp480
(I4
F-0.0179
tp481
a(F621.0
F199.0
tp482
a(lp483
(I7
F0.0643
tp484
a(F940.0
F174.0
tp485
a(lp486
(I1
F0.1071
tp487
a(F753.0
F84.0
tp488
a(F629.0
F136.0
tp489
aaaa(lp490
(I5
F0.1055
tp491
a(lp492
(I3
F0.1133
tp493
a(lp494
(I7
F0.0679
tp495
a(F930.0
F150.0
tp496
a(F1014.0
F301.0
tp497
aa(F675.0
F263.0
tp498
aa(F700.0
F378.0
tp499
aaaa(lp500
(I6
F0.3526
tp501
a(lp502
(I3
F0.2142
tp503
a(lp504
(I6
F0.0261
tp505
a(lp506
(I0
F0.1739
tp507
a(lp508
(I3
F0.1461
tp509
a(F919.0
F173.0
tp510
a(F857.0
F201.0
tp511
aa(F523.0
F318.0
tp512
aa(F706.0
F420.0
tp513
aa(F666.0
F433.0
tp514
aa(lp515
(I1
F0.2165
tp516
a(lp517
(I1
F0.157
tp518
a(lp519
(I1
F0.1302
tp520
a(F422.0
F390.0
tp521
a(F394.0
F415.0
tp522
aa(F535.0
F848.0
tp523
aa(lp524
(I7
F0.2768
tp525
a(F159.0
F628.0
tp526
a(F72.0
F897.0
tp527
aaaaa(lp528
(I7
F0.1199
tp529
a(lp530
(I2
F2.4172
tp531
a(lp532
(I4
F1.5599
tp533
a(lp534
(I5
F0.0568
tp535
a(lp536
(I2
F1.4308
tp537
a(lp538
(I1
F0.0353
tp539
a(lp540
(I1
F0.0107
tp541
a(lp542
(I4
F0.2496
tp543
a(lp544
(I6
F0.4447
tp545
a(lp546
(I1
F-0.0378
tp547
a(F859.0
F18.0
tp548
a(lp549
(I1
F-0.0079
tp550
a(F1135.0
F80.0
tp551
a(F897.0
F38.0
tp552
aaa(F786.0
F23.0
tp553
aa(lp554
(I6
F0.9004
tp555
a(lp556
(I7
F-0.001
tp557
a(F948.0
F2.0
tp558
a(F776.0
F22.0
tp559
aa(F1005.0
F28.0
tp560
aaa(lp561
(I1
F0.0215
tp562
a(F1286.0
F86.0
tp563
a(lp564
(I1
F0.028
tp565
a(F848.0
F28.0
tp566
a(F894.0
F51.0
tp567
aaaa(lp568
(I0
F0.5126
tp569
a(lp570
(I5
F0.0418
tp571
a(F1260.0
F175.0
tp572
a(F858.0
F80.0
tp573
aa(F1327.0
F117.0
tp574
aaa(F793.0
F77.0
tp575
aa(lp576
(I3
F0.091
tp577
a(lp578
(I3
F0.0686
tp579
a(lp580
(I4
F0.2346
tp581
a(F942.0
F92.0
tp582
a(F1123.0
F201.0
tp583
aa(lp584
(I7
F0.0653
tp585
a(F718.0
F119.0
tp586
a(F816.0
F205.0
tp587
aaa(lp588
(I2
F0.0285
tp589
a(F1623.0
F350.0
tp590
a(lp591
(I3
F0.1697
tp592
a(lp593
(I4
F0.6054
tp594
a(F997.0
F294.0
tp595
a(F764.0
F323.0
tp596
aa(F495.0
F286.0
tp597
aaaaa(lp598
(I7
F0.0654
tp599
a(lp600
(I3
F0.0383
tp601
a(F758.0
F56.0
tp602
a(F633.0
F168.0
tp603
aa(F626.0
F230.0
tp604
aaa(F485.0
F330.0
tp605
aa(lp606
(I3
F0.1737
tp607
a(lp608
(I2
F0.1088
tp609
a(lp610
(I6
F0.0058
tp611
a(F1690.0
F223.0
tp612
a(F777.0
F378.0
tp613
aa(lp614
(I6
F0.533
tp615
a(F553.0
F233.0
tp616
a(lp617
(I0
F1.0405
tp618
a(F420.0
F360.0
tp619
a(F354.0
F535.0
tp620
aaaa(lp621
(I5
F0.2111
tp622
a(F729.0
F644.0
tp623
a(lp624
(I5
F0.261
tp625
a(F283.0
F489.0
tp626
a(lp627
(I7
F0.3575
tp628
a(F197.0
F631.0
tp629
a(F233.0
F600.0
tp630
aaaaaa(lp631
(I1
F0.1213
tp632
a(lp633
(I1
F0.0572
tp634
a(lp635
(I5
F0.0757
tp636
a(lp637
(I6
F1.8264
tp638
a(lp639
(I3
F0.0275
tp640
a(lp641
(I4
F0.5791
tp642
a(lp643
(I4
F-0.068
tp644
a(F1098.0
F30.0
tp645
a(lp646
(I5
F0.0069
tp647
a(lp648
(I1
F-0.0161
tp649
a(lp650
(I1
F-0.0357
tp651
a(F1008.0
F28.0
tp652
a(F795.0
F12.0
tp653
aa(lp654
(I2
F0.0004
tp655
a(F814.0
F37.0
tp656
a(F832.0
F21.0
tp657
aaa(lp658
(I1
F0.0056
tp659
a(F728.0
F65.0
tp660
a(F1306.0
F80.0
tp661
aaaa(lp662
(I5
F0.0255
tp663
a(lp664
(I0
F1.0503
tp665
a(F1514.0
F10.0
tp666
a(F1099.0
F20.0
tp667
aa(F729.0
F36.0
tp668
aaa(lp669
(I7
F0.029
tp670
a(lp671
(I1
F0.0352
tp672
a(F786.0
F40.0
tp673
a(F863.0
F62.0
tp674
aa(lp675
(I4
F0.6333
tp676
a(lp677
(I6
F0.1289
tp678
a(F842.0
F76.0
tp679
a(F670.0
F108.0
tp680
aa(F884.0
F78.0
tp681
aaaa(F717.0
F68.0
tp682
aa(F909.0
F215.0
tp683
aa(lp684
(I5
F0.0842
tp685
a(lp686
(I4
F0.2548
tp687
a(lp688
(I5
F0.0589
tp689
a(F988.0
F102.0
tp690
a(F930.0
F147.0
tp691
aa(lp692
(I0
F1.2013
tp693
a(F1143.0
F231.0
tp694
a(F753.0
F99.0
tp695
aaa(lp696
(I5
F0.1234
tp697
a(lp698
(I7
F0.068
tp699
a(F710.0
F134.0
tp700
a(lp701
(I0
F0.0173
tp702
a(F778.0
F167.0
tp703
a(lp704
(I6
F0.9648
tp705
a(F564.0
F233.0
tp706
a(F612.0
F211.0
tp707
aaaa(F801.0
F417.0
tp708
aaaa(lp709
(I2
F0.4627
tp710
a(lp711
(I7
F0.1228
tp712
a(lp713
(I0
F0.0011
tp714
a(F956.0
F216.0
tp715
a(F705.0
F258.0
tp716
aa(lp717
(I5
F0.1591
tp718
a(F847.0
F319.0
tp719
a(lp720
(I5
F0.1967
tp721
a(F572.0
F334.0
tp722
a(F688.0
F459.0
tp723
aaaa(lp724
(I3
F0.1784
tp725
a(lp726
(I7
F0.1274
tp727
a(F918.0
F444.0
tp728
a(F413.0
F600.0
tp729
aa(lp730
(I3
F0.27
tp731
a(lp732
(I1
F0.2099
tp733
a(F355.0
F493.0
tp734
a(F265.0
F608.0
tp735
aa(F192.0
F1218.0
tp736
aaaaa(lp737
(I5
F0.1267
tp738
a(lp739
(I1
F0.0615
tp740
a(lp741
(I4
F1.7572
tp742
a(lp743
(I0
F1.0215
tp744
a(lp745
(I1
F0.0254
tp746
a(lp747
(I7
F0.043
tp748
a(lp749
(I5
F0.0146
tp750
a(lp751
(I3
F0.0086
tp752
a(lp753
(I1
F-0.0377
tp754
a(F1169.0
F14.0
tp755
a(lp756
(I5
F-0.0106
tp757
a(F1429.0
F46.0
tp758
a(F1432.0
F21.0
tp759
aaa(F837.0
F39.0
tp760
aa(lp761
(I2
F0.1243
tp762
a(F746.0
F46.0
tp763
a(F764.0
F37.0
tp764
aaa(lp765
(I1
F-0.0159
tp766
a(F855.0
F53.0
tp767
a(F1176.0
F127.0
tp768
aaa(lp769
(I3
F0.0582
tp770
a(lp771
(I7
F0.0333
tp772
a(F1445.0
F84.0
tp773
a(lp774
(I6
F0.0656
tp775
a(F771.0
F59.0
tp776
a(F1136.0
F158.0
tp777
aaa(F702.0
F124.0
tp778
aaa(lp779
(I0
F1.4108
tp780
a(lp781
(I1
F0.0173
tp782
a(F887.0
F15.0
tp783
a(F846.0
F49.0
tp784
aa(F1013.0
F54.0
tp785
aaa(F725.0
F77.0
tp786
aa(lp787
(I3
F0.0831
tp788
a(lp789
(I7
F0.0629
tp790
a(F1405.0
F161.0
tp791
a(lp792
(I2
F0.2722
tp793
a(F748.0
F112.0
tp794
a(F689.0
F185.0
tp795
aaa(lp796
(I6
F0.4266
tp797
a(lp798
(I1
F0.1486
tp799
a(lp800
(I6
F0.0253
tp801
a(lp802
(I3
F0.1219
tp803
a(F1386.0
F230.0
tp804
a(F646.0
F165.0
tp805
aa(F696.0
F191.0
tp806
aa(F792.0
F302.0
tp807
aa(lp808
(I5
F0.0933
tp809
a(F667.0
F218.0
tp810
a(F916.0
F438.0
tp811
aaaaa(lp812
(I6
F0.3602
tp813
a(lp814
(I2
F0.8166
tp815
a(lp816
(I0
F0.0016
tp817
a(lp818
(I7
F0.1226
tp819
a(F760.0
F176.0
tp820
a(lp821
(I3
F0.1681
tp822
a(F615.0
F196.0
tp823
a(F784.0
F222.0
tp824
aaa(F909.0
F514.0
tp825
aa(F368.0
F435.0
tp826
aa(lp827
(I6
F2.1119
tp828
a(lp829
(I5
F0.2126
tp830
a(lp831
(I7
F0.1337
tp832
a(F488.0
F340.0
tp833
a(F576.0
F765.0
tp834
aa(F202.0
F761.0
tp835
aa(F224.0
F1242.0
tp836
aaaa(lp837
(I4
F2.1643
tp838
a(lp839
(I7
F0.0992
tp840
a(lp841
(I1
F0.0621
tp842
a(lp843
(I1
F0.0154
tp844
a(lp845
(I2
F0.1748
tp846
a(lp847
(I5
F0.0122
tp848
a(lp849
(I6
F0.0003
tp850
a(F1751.0
F58.0
tp851
a(F1286.0
F24.0
tp852
aa(F957.0
F85.0
tp853
aa(lp854
(I6
F0.7931
tp855
a(lp856
(I0
F0.5314
tp857
a(F1087.0
F29.0
tp858
a(F1371.0
F23.0
tp859
aa(lp860
(I1
F-0.0059
tp861
a(F768.0
F25.0
tp862
a(F776.0
F30.0
tp863
aaaa(lp864
(I3
F0.0621
tp865
a(lp866
(I5
F0.0588
tp867
a(lp868
(I7
F0.0249
tp869
a(lp870
(I1
F0.0352
tp871
a(F1480.0
F64.0
tp872
a(F761.0
F52.0
tp873
aa(lp874
(I3
F0.0249
tp875
a(F737.0
F45.0
tp876
a(lp877
(I4
F0.6078
tp878
a(F1162.0
F135.0
tp879
a(F1053.0
F77.0
tp880
aaaa(F878.0
F106.0
tp881
aa(F692.0
F118.0
tp882
aaa(lp883
(I1
F0.1596
tp884
a(lp885
(I3
F0.0726
tp886
a(lp887
(I2
F0.4449
tp888
a(F774.0
F90.0
tp889
a(F704.0
F121.0
tp890
aa(lp891
(I4
F0.1988
tp892
a(lp893
(I7
F0.0708
tp894
a(F1349.0
F214.0
tp895
a(F641.0
F149.0
tp896
aa(lp897
(I5
F0.0979
tp898
a(F1277.0
F290.0
tp899
a(F671.0
F315.0
tp900
aaaa(lp901
(I4
F0.1576
tp902
a(F636.0
F203.0
tp903
a(F457.0
F308.0
tp904
aaaa(lp905
(I0
F0.0753
tp906
a(lp907
(I6
F0.0005
tp908
a(lp909
(I5
F0.0849
tp910
a(F875.0
F37.0
tp911
a(lp912
(I1
F0.1376
tp913
a(F897.0
F139.0
tp914
a(F1184.0
F286.0
tp915
aaa(F1082.0
F494.0
tp916
aa(lp917
(I3
F0.1749
tp918
a(lp919
(I5
F0.1334
tp920
a(lp921
(I2
F0.7321
tp922
a(F893.0
F331.0
tp923
a(F561.0
F282.0
tp924
aa(F651.0
F714.0
tp925
aa(lp926
(I6
F0.7333
tp927
a(F324.0
F434.0
tp928
a(F207.0
F864.0
tp929
aaaaa(lp930
(I6
F3.1024
tp931
a(lp932
(I4
F2.6502
tp933
a(F456.0
F327.0
tp934
a(F310.0
F486.0
tp935
aa(F118.0
F679.0
tp936
aaa(lp937
(I5
F0.1329
tp938
a(lp939
(I5
F0.0654
tp940
a(lp941
(I7
F0.0246
tp942
a(lp943
(I3
F0.0737
tp944
a(lp945
(I5
F0.0039
tp946
a(lp947
(I4
F0.001
tp948
a(F1999.0
F56.0
tp949
a(lp950
(I5
F-0.0158
tp951
a(F1297.0
F17.0
tp952
a(F1363.0
F6.0
tp953
aaa(lp954
(I4
F0.4676
tp955
a(lp956
(I3
F0.0246
tp957
a(F1143.0
F61.0
tp958
a(F719.0
F48.0
tp959
aa(lp960
(I1
F0.0165
tp961
a(F896.0
F12.0
tp962
a(F940.0
F37.0
tp963
aaaa(F786.0
F181.0
tp964
aa(lp965
(I3
F0.0669
tp966
a(lp967
(I5
F0.0122
tp968
a(lp969
(I3
F-0.0143
tp970
a(F872.0
F16.0
tp971
a(F1023.0
F61.0
tp972
aa(lp973
(I0
F1.0175
tp974
a(lp975
(I0
F0.0778
tp976
a(lp977
(I7
F0.0649
tp978
a(F1024.0
F69.0
tp979
a(F770.0
F75.0
tp980
aa(lp981
(I3
F0.0293
tp982
a(F763.0
F63.0
tp983
a(F1173.0
F131.0
tp984
aaa(F1311.0
F90.0
tp985
aaa(F1185.0
F198.0
tp986
aaa(lp987
(I3
F0.1129
tp988
a(lp989
(I5
F0.0855
tp990
a(lp991
(I6
F0.0085
tp992
a(F981.0
F108.0
tp993
a(lp994
(I6
F0.9393
tp995
a(F654.0
F126.0
tp996
a(F701.0
F160.0
tp997
aaa(lp998
(I4
F0.1416
tp999
a(F1153.0
F178.0
tp1000
a(lp1001
(I2
F0.8835
tp1002
a(F908.0
F271.0
tp1003
a(F631.0
F242.0
tp1004
aaaa(lp1005
(I4
F0.0056
tp1006
a(F1017.0
F286.0
tp1007
a(lp1008
(I5
F0.111
tp1009
a(F595.0
F215.0
tp1010
a(F613.0
F376.0
tp1011
aaaaa(lp1012
(I2
F0.081
tp1013
a(lp1014
(I5
F0.2037
tp1015
a(lp1016
(I7
F0.1227
tp1017
a(F642.0
F165.0
tp1018
a(F1011.0
F393.0
tp1019
aa(F660.0
F299.0
tp1020
aa(lp1021
(I5
F0.2107
tp1022
a(lp1023
(I7
F0.1224
tp1024
a(F743.0
F498.0
tp1025
a(lp1026
(I4
F0.7495
tp1027
a(F401.0
F438.0
tp1028
a(F434.0
F823.0
tp1029
aaa(lp1030
(I7
F0.213
tp1031
a(F271.0
F563.0
tp1032
a(F171.0
F1348.0
tp1033
aaaaa(lp1034
(I6
F2.5999
tp1035
a(lp1036
(I7
F0.0786
tp1037
a(lp1038
(I2
F2.2264
tp1039
a(lp1040
(I7
F0.0273
tp1041
a(lp1042
(I0
F1.5571
tp1043
a(lp1044
(I1
F0.0572
tp1045
a(lp1046
(I3
F0.033
tp1047
a(lp1048
(I6
F0.3505
tp1049
a(lp1050
(I6
F0.0558
tp1051
a(lp1052
(I4
F0.3985
tp1053
a(lp1054
(I0
F0.0102
tp1055
a(lp1056
(I5
F-0.0027
tp1057
a(F1098.0
F34.0
tp1058
a(F773.0
F32.0
tp1059
aa(F946.0
F16.0
tp1060
aa(F777.0
F35.0
tp1061
aa(F844.0
F38.0
tp1062
aa(lp1063
(I6
F0.8014
tp1064
a(F1031.0
F10.0
tp1065
a(lp1066
(I0
F0.8089
tp1067
a(F758.0
F20.0
tp1068
a(F864.0
F15.0
tp1069
aaaa(F1230.0
F93.0
tp1070
aa(lp1071
(I2
F0.4133
tp1072
a(F1001.0
F122.0
tp1073
a(F620.0
F175.0
tp1074
aaa(F739.0
F128.0
tp1075
aa(lp1076
(I1
F0.1279
tp1077
a(lp1078
(I1
F0.0558
tp1079
a(lp1080
(I4
F0.035
tp1081
a(F1441.0
F78.0
tp1082
a(lp1083
(I0
F0.3679
tp1084
a(F928.0
F92.0
tp1085
a(lp1086
(I4
F1.2898
tp1087
a(F1444.0
F80.0
tp1088
a(F759.0
F54.0
tp1089
aaaa(lp1090
(I5
F0.0841
tp1091
a(lp1092
(I1
F0.0704
tp1093
a(F893.0
F142.0
tp1094
a(F1104.0
F128.0
tp1095
aa(F889.0
F196.0
tp1096
aaa(F804.0
F337.0
tp1097
aaa(F510.0
F277.0
tp1098
aa(lp1099
(I4
F0.1088
tp1100
a(lp1101
(I3
F0.0799
tp1102
a(F1750.0
F160.0
tp1103
a(lp1104
(I2
F0.0031
tp1105
a(lp1106
(I7
F0.1536
tp1107
a(lp1108
(I5
F0.1258
tp1109
a(F849.0
F168.0
tp1110
a(F697.0
F193.0
tp1111
aa(F1179.0
F325.0
tp1112
aa(F571.0
F282.0
tp1113
aaa(lp1114
(I3
F0.1353
tp1115
a(lp1116
(I7
F0.1217
tp1117
a(lp1118
(I5
F0.0847
tp1119
a(F674.0
F149.0
tp1120
a(F1091.0
F445.0
tp1121
aa(F826.0
F527.0
tp1122
aa(lp1123
(I5
F0.2105
tp1124
a(lp1125
(I5
F0.1489
tp1126
a(F479.0
F379.0
tp1127
a(F630.0
F790.0
tp1128
aa(F283.0
F1011.0
tp1129
aaaaa(F385.0
F1062.0
tp1130
aa(lp1131
(I3
F0.1219
tp1132
a(lp1133
(I3
F0.0684
tp1134
a(lp1135
(I3
F0.0327
tp1136
a(lp1137
(I3
F0.0079
tp1138
a(lp1139
(I5
F0.0436
tp1140
a(lp1141
(I5
F0.0146
tp1142
a(lp1143
(I2
F0.52
tp1144
a(lp1145
(I3
F-0.0143
tp1146
a(lp1147
(I5
F-0.0269
tp1148
a(F1368.0
F31.0
tp1149
a(F1344.0
F21.0
tp1150
aa(F1384.0
F67.0
tp1151
aa(lp1152
(I1
F-0.0137
tp1153
a(F885.0
F11.0
tp1154
a(F972.0
F7.0
tp1155
aaa(F1074.0
F58.0
tp1156
aa(F719.0
F106.0
tp1157
aa(lp1158
(I7
F0.053
tp1159
a(lp1160
(I2
F0.932
tp1161
a(lp1162
(I1
F0.0253
tp1163
a(F1409.0
F61.0
tp1164
a(F834.0
F73.0
tp1165
aa(F1022.0
F21.0
tp1166
aa(F859.0
F130.0
tp1167
aaa(lp1168
(I6
F0.464
tp1169
a(lp1170
(I1
F0.062
tp1171
a(lp1172
(I1
F0.0363
tp1173
a(F715.0
F76.0
tp1174
a(lp1175
(I4
F0.0543
tp1176
a(F816.0
F52.0
tp1177
a(F729.0
F58.0
tp1178
aaa(F807.0
F108.0
tp1179
aa(lp1180
(I7
F0.0705
tp1181
a(lp1182
(I4
F1.175
tp1183
a(F1013.0
F92.0
tp1184
a(F703.0
F78.0
tp1185
aa(F583.0
F203.0
tp1186
aaaa(lp1187
(I7
F0.115
tp1188
a(lp1189
(I6
F0.3568
tp1190
a(lp1191
(I0
F0.0464
tp1192
a(lp1193
(I3
F0.0931
tp1194
a(F683.0
F92.0
tp1195
a(F697.0
F107.0
tp1196
aa(lp1197
(I5
F0.0836
tp1198
a(F708.0
F131.0
tp1199
a(F603.0
F183.0
tp1200
aaa(lp1201
(I3
F0.0845
tp1202
a(F776.0
F151.0
tp1203
a(F961.0
F313.0
tp1204
aaa(lp1205
(I0
F0.0796
tp1206
a(F682.0
F152.0
tp1207
a(F525.0
F368.0
tp1208
aaaa(lp1209
(I6
F0.5796
tp1210
a(lp1211
(I4
F0.2465
tp1212
a(lp1213
(I1
F0.1382
tp1214
a(F1050.0
F231.0
tp1215
a(lp1216
(I2
F0.0063
tp1217
a(lp1218
(I1
F0.1782
tp1219
a(F819.0
F284.0
tp1220
a(F935.0
F243.0
tp1221
aa(F755.0
F373.0
tp1222
aaa(lp1223
(I2
F1.096
tp1224
a(F807.0
F514.0
tp1225
a(F379.0
F439.0
tp1226
aaa(lp1227
(I3
F0.2188
tp1228
a(lp1229
(I6
F1.7096
tp1230
a(lp1231
(I7
F0.1424
tp1232
a(F514.0
F277.0
tp1233
a(F304.0
F495.0
tp1234
aa(F264.0
F517.0
tp1235
aa(lp1236
(I6
F2.2246
tp1237
a(F139.0
F677.0
tp1238
a(F71.0
F752.0
tp1239
aaaaa(lp1240
(I3
F0.1221
tp1241
a(lp1242
(I1
F0.0612
tp1243
a(lp1244
(I6
F1.8242
tp1245
a(lp1246
(I5
F0.0757
tp1247
a(lp1248
(I5
F0.0122
tp1249
a(lp1250
(I4
F0.2964
tp1251
a(lp1252
(I3
F0.0081
tp1253
a(lp1254
(I6
F0.0776
tp1255
a(lp1256
(I7
F0.0043
tp1257
a(F1397.0
F17.0
tp1258
a(F843.0
F28.0
tp1259
aa(F1152.0
F35.0
tp1260
aa(F950.0
F63.0
tp1261
aa(lp1262
(I5
F0.0004
tp1263
a(lp1264
(I3
F-0.013
tp1265
a(F1101.0
F7.0
tp1266
a(F841.0
F12.0
tp1267
aa(F880.0
F28.0
tp1268
aaa(lp1269
(I3
F0.0334
tp1270
a(lp1271
(I4
F1.0246
tp1272
a(lp1273
(I7
F0.0214
tp1274
a(F1243.0
F49.0
tp1275
a(lp1276
(I7
F0.0573
tp1277
a(F1181.0
F74.0
tp1278
a(F736.0
F65.0
tp1279
aaa(F994.0
F26.0
tp1280
aa(lp1281
(I5
F0.0531
tp1282
a(lp1283
(I0
F0.8071
tp1284
a(lp1285
(I6
F0.0554
tp1286
a(F783.0
F35.0
tp1287
a(F710.0
F88.0
tp1288
aa(F723.0
F40.0
tp1289
aa(F951.0
F115.0
tp1290
aaaa(F984.0
F221.0
tp1291
aa(F793.0
F105.0
tp1292
aa(lp1293
(I0
F0.3384
tp1294
a(lp1295
(I6
F0.25
tp1296
a(lp1297
(I7
F0.0591
tp1298
a(F951.0
F120.0
tp1299
a(lp1300
(I7
F0.1006
tp1301
a(F760.0
F135.0
tp1302
a(F1012.0
F139.0
tp1303
aaa(F723.0
F257.0
tp1304
aa(lp1305
(I3
F0.0834
tp1306
a(lp1307
(I7
F0.0714
tp1308
a(F1023.0
F175.0
tp1309
a(F603.0
F223.0
tp1310
aa(lp1311
(I5
F0.1087
tp1312
a(F1160.0
F351.0
tp1313
a(F544.0
F365.0
tp1314
aaaaa(lp1315
(I5
F0.2114
tp1316
a(lp1317
(I0
F0.0014
tp1318
a(F2093.0
F554.0
tp1319
a(lp1320
(I5
F0.1348
tp1321
a(lp1322
(I4
F0.2657
tp1323
a(F775.0
F227.0
tp1324
a(F717.0
F397.0
tp1325
aa(lp1326
(I2
F0.5893
tp1327
a(F681.0
F536.0
tp1328
a(lp1329
(I5
F0.1671
tp1330
a(F391.0
F489.0
tp1331
a(F281.0
F521.0
tp1332
aaaaa(lp1333
(I6
F0.0116
tp1334
a(F602.0
F287.0
tp1335
a(lp1336
(I6
F2.261
tp1337
a(F264.0
F981.0
tp1338
a(F51.0
F802.0
tp1339
aaaaa(lp1340
(I1
F0.1304
tp1341
a(lp1342
(I5
F0.0792
tp1343
a(lp1344
(I1
F0.0369
tp1345
a(lp1346
(I0
F0.5173
tp1347
a(lp1348
(I3
F0.0154
tp1349
a(lp1350
(I1
F-0.0414
tp1351
a(F1407.0
F38.0
tp1352
a(lp1353
(I7
F0.0362
tp1354
a(lp1355
(I2
F0.17
tp1356
a(lp1357
(I3
F-0.0163
tp1358
a(F864.0
F20.0
tp1359
a(F1338.0
F72.0
tp1360
aa(F919.0
F19.0
tp1361
aa(F1140.0
F78.0
tp1362
aaa(lp1363
(I6
F0.0627
tp1364
a(F1203.0
F74.0
tp1365
a(F856.0
F86.0
tp1366
aaa(lp1367
(I5
F0.0139
tp1368
a(lp1369
(I1
F-0.001
tp1370
a(F1541.0
F13.0
tp1371
a(F1011.0
F16.0
tp1372
aa(lp1373
(I4
F1.1759
tp1374
a(F1071.0
F53.0
tp1375
a(F764.0
F49.0
tp1376
aaaa(lp1377
(I1
F0.0603
tp1378
a(lp1379
(I5
F0.0532
tp1380
a(lp1381
(I5
F0.0399
tp1382
a(F1195.0
F135.0
tp1383
a(F1116.0
F77.0
tp1384
aa(F951.0
F141.0
tp1385
aa(lp1386
(I3
F0.0716
tp1387
a(F1372.0
F177.0
tp1388
a(lp1389
(I2
F0.1807
tp1390
a(F697.0
F108.0
tp1391
a(F1013.0
F203.0
tp1392
aaaaa(lp1393
(I2
F0.3052
tp1394
a(lp1395
(I7
F0.1162
tp1396
a(lp1397
(I5
F0.1149
tp1398
a(lp1399
(I1
F0.0934
tp1400
a(F735.0
F105.0
tp1401
a(F708.0
F112.0
tp1402
aa(F771.0
F184.0
tp1403
aa(F951.0
F336.0
tp1404
aa(lp1405
(I1
F0.1137
tp1406
a(lp1407
(I6
F0.3775
tp1408
a(F608.0
F203.0
tp1409
a(lp1410
(I5
F0.0981
tp1411
a(F621.0
F199.0
tp1412
a(F517.0
F275.0
tp1413
aaa(F525.0
F307.0
tp1414
aaaa(lp1415
(I7
F0.2153
tp1416
a(lp1417
(I0
F0.4968
tp1418
a(lp1419
(I7
F0.0814
tp1420
a(F893.0
F211.0
tp1421
a(lp1422
(I2
F0.0311
tp1423
a(lp1424
(I7
F0.1454
tp1425
a(F572.0
F210.0
tp1426
a(F647.0
F205.0
tp1427
aa(F584.0
F423.0
tp1428
aaa(lp1429
(I4
F0.5825
tp1430
a(F605.0
F281.0
tp1431
a(lp1432
(I2
F1.793
tp1433
a(F718.0
F793.0
tp1434
a(F281.0
F638.0
tp1435
aaaa(lp1436
(I6
F0.3258
tp1437
a(F567.0
F207.0
tp1438
a(lp1439
(I2
F1.6633
tp1440
a(F121.0
F725.0
tp1441
a(F66.0
F739.0
tp1442
aaaaa(lp1443
(I4
F2.499
tp1444
a(lp1445
(I0
F0.0734
tp1446
a(lp1447
(I1
F0.0953
tp1448
a(lp1449
(I3
F0.0721
tp1450
a(lp1451
(I4
F0.0999
tp1452
a(lp1453
(I5
F0.0146
tp1454
a(lp1455
(I1
F-0.0397
tp1456
a(F828.0
F18.0
tp1457
a(lp1458
(I5
F-0.009
tp1459
a(F1177.0
F52.0
tp1460
a(F1052.0
F28.0
tp1461
aaa(lp1462
(I1
F0.0217
tp1463
a(F819.0
F82.0
tp1464
a(lp1465
(I7
F0.0622
tp1466
a(F1016.0
F58.0
tp1467
a(F772.0
F57.0
tp1468
aaaa(F1435.0
F134.0
tp1469
aa(F1115.0
F201.0
tp1470
aa(lp1471
(I4
F0.0002
tp1472
a(lp1473
(I5
F0.1392
tp1474
a(lp1475
(I5
F0.1126
tp1476
a(F1054.0
F183.0
tp1477
a(F678.0
F149.0
tp1478
aa(F1497.0
F432.0
tp1479
aa(F624.0
F281.0
tp1480
aaa(lp1481
(I5
F0.1073
tp1482
a(lp1483
(I2
F2.0028
tp1484
a(lp1485
(I0
F0.8497
tp1486
a(lp1487
(I1
F0.054
tp1488
a(lp1489
(I1
F0.0109
tp1490
a(lp1491
(I2
F0.3426
tp1492
a(F1137.0
F54.0
tp1493
a(F1348.0
F38.0
tp1494
aa(lp1495
(I6
F0.6578
tp1496
a(lp1497
(I5
F0.0305
tp1498
a(F764.0
F56.0
tp1499
a(F732.0
F77.0
tp1500
aa(F835.0
F100.0
tp1501
aaa(lp1502
(I7
F0.0784
tp1503
a(lp1504
(I0
F0.4255
tp1505
a(F730.0
F113.0
tp1506
a(F679.0
F139.0
tp1507
aa(F742.0
F242.0
tp1508
aaa(lp1509
(I0
F1.7466
tp1510
a(lp1511
(I7
F0.0594
tp1512
a(lp1513
(I7
F0.0403
tp1514
a(lp1515
(I4
F0.7846
tp1516
a(F887.0
F50.0
tp1517
a(lp1518
(I5
F0.027
tp1519
a(F1430.0
F14.0
tp1520
a(F743.0
F39.0
tp1521
aaa(F773.0
F79.0
tp1522
aa(F1096.0
F218.0
tp1523
aa(F781.0
F96.0
tp1524
aaa(F675.0
F149.0
tp1525
aa(lp1526
(I6
F0.3453
tp1527
a(lp1528
(I2
F0.5895
tp1529
a(F930.0
F406.0
tp1530
a(F518.0
F417.0
tp1531
aa(lp1532
(I7
F0.1456
tp1533
a(lp1534
(I7
F0.1171
tp1535
a(F589.0
F339.0
tp1536
a(F428.0
F398.0
tp1537
aa(lp1538
(I0
F0.8597
tp1539
a(F296.0
F583.0
tp1540
a(F255.0
F936.0
tp1541
aaaaaa(lp1542
(I6
F2.9928
tp1543
a(F403.0
F568.0
tp1544
a(F123.0
F713.0
tp1545
aaa(lp1546
(I0
F2.4019
tp1547
a(lp1548
(I1
F0.1141
tp1549
a(lp1550
(I5
F0.0567
tp1551
a(lp1552
(I1
F0.0598
tp1553
a(lp1554
(I3
F0.0074
tp1555
a(lp1556
(I7
F0.0179
tp1557
a(lp1558
(I4
F0.1948
tp1559
a(lp1560
(I7
F-0.0109
tp1561
a(F1284.0
F35.0
tp1562
a(F1012.0
F21.0
tp1563
aa(lp1564
(I6
F0.2468
tp1565
a(F879.0
F15.0
tp1566
a(F1479.0
F8.0
tp1567
aaa(lp1568
(I0
F0.0837
tp1569
a(F1438.0
F40.0
tp1570
a(F968.0
F55.0
tp1571
aaa(lp1572
(I5
F0.0317
tp1573
a(lp1574
(I4
F0.2226
tp1575
a(lp1576
(I1
F0.0273
tp1577
a(F1252.0
F76.0
tp1578
a(F772.0
F67.0
tp1579
aa(lp1580
(I7
F0.0256
tp1581
a(F1307.0
F40.0
tp1582
a(F833.0
F55.0
tp1583
aaa(lp1584
(I5
F0.0391
tp1585
a(F909.0
F92.0
tp1586
a(lp1587
(I0
F0.3376
tp1588
a(F825.0
F50.0
tp1589
a(F1049.0
F81.0
tp1590
aaaaa(F1157.0
F179.0
tp1591
aa(lp1592
(I0
F0.0012
tp1593
a(lp1594
(I5
F0.0888
tp1595
a(F1228.0
F118.0
tp1596
a(F1362.0
F231.0
tp1597
aa(lp1598
(I3
F0.0831
tp1599
a(lp1600
(I6
F0.0345
tp1601
a(F803.0
F112.0
tp1602
a(lp1603
(I5
F0.0792
tp1604
a(F1201.0
F213.0
tp1605
a(F626.0
F244.0
tp1606
aaa(lp1607
(I7
F0.0841
tp1608
a(F861.0
F239.0
tp1609
a(F794.0
F408.0
tp1610
aaaaa(lp1611
(I0
F0.0152
tp1612
a(lp1613
(I6
F0.0042
tp1614
a(lp1615
(I1
F0.1386
tp1616
a(F775.0
F130.0
tp1617
a(lp1618
(I5
F0.1628
tp1619
a(F660.0
F147.0
tp1620
a(F892.0
F171.0
tp1621
aaa(F544.0
F296.0
tp1622
aa(lp1623
(I5
F0.1729
tp1624
a(lp1625
(I7
F0.1243
tp1626
a(lp1627
(I4
F0.1614
tp1628
a(F741.0
F176.0
tp1629
a(lp1630
(I5
F0.1219
tp1631
a(F651.0
F242.0
tp1632
a(F479.0
F326.0
tp1633
aaa(F777.0
F702.0
tp1634
aa(lp1635
(I6
F0.5813
tp1636
a(F491.0
F506.0
tp1637
a(F289.0
F1190.0
tp1638
aaaaa(lp1639
(I7
F0.1364
tp1640
a(F469.0
F360.0
tp1641
a(F126.0
F902.0
tp1642
aaa(lp1643
(I5
F0.1342
tp1644
a(lp1645
(I7
F0.0592
tp1646
a(lp1647
(I1
F0.0673
tp1648
a(lp1649
(I5
F0.0448
tp1650
a(lp1651
(I5
F0.0165
tp1652
a(lp1653
(I7
F0.0273
tp1654
a(lp1655
(I1
F0.0115
tp1656
a(lp1657
(I6
F0.3509
tp1658
a(lp1659
(I5
F-0.0356
tp1660
a(F883.0
F9.0
tp1661
a(lp1662
(I7
F-0.0192
tp1663
a(F761.0
F30.0
tp1664
a(F1390.0
F33.0
tp1665
aaa(lp1666
(I3
F-0.0197
tp1667
a(F887.0
F4.0
tp1668
a(F1155.0
F10.0
tp1669
aaa(F1238.0
F52.0
tp1670
aa(F1031.0
F49.0
tp1671
aa(lp1672
(I6
F1.0094
tp1673
a(lp1674
(I2
F0.4672
tp1675
a(lp1676
(I1
F0.0241
tp1677
a(F733.0
F46.0
tp1678
a(F965.0
F49.0
tp1679
aa(F1089.0
F84.0
tp1680
aa(F1025.0
F40.0
tp1681
aaa(lp1682
(I4
F0.6353
tp1683
a(F1085.0
F133.0
tp1684
a(F1098.0
F99.0
tp1685
aaa(lp1686
(I0
F1.3498
tp1687
a(lp1688
(I2
F0.3201
tp1689
a(F1241.0
F199.0
tp1690
a(F924.0
F218.0
tp1691
aa(F612.0
F218.0
tp1692
aaa(lp1693
(I3
F0.0698
tp1694
a(lp1695
(I4
F0.3784
tp1696
a(lp1697
(I6
F0.0034
tp1698
a(F1307.0
F90.0
tp1699
a(F1111.0
F151.0
tp1700
aa(F1310.0
F264.0
tp1701
aa(lp1702
(I6
F0.004
tp1703
a(F1815.0
F298.0
tp1704
a(lp1705
(I7
F0.0845
tp1706
a(F917.0
F239.0
tp1707
a(lp1708
(I6
F0.5901
tp1709
a(F709.0
F297.0
tp1710
a(lp1711
(I1
F0.1107
tp1712
a(F588.0
F321.0
tp1713
a(F528.0
F261.0
tp1714
aaaaaaa(lp1715
(I6
F0.3233
tp1716
a(lp1717
(I6
F0.002
tp1718
a(lp1719
(I0
F0.1632
tp1720
a(lp1721
(I7
F0.1437
tp1722
a(F840.0
F169.0
tp1723
a(F1009.0
F274.0
tp1724
aa(F493.0
F408.0
tp1725
aa(F677.0
F544.0
tp1726
aa(lp1727
(I7
F0.2255
tp1728
a(lp1729
(I1
F0.1942
tp1730
a(lp1731
(I6
F0.9544
tp1732
a(F471.0
F472.0
tp1733
a(F447.0
F659.0
tp1734
aa(F239.0
F570.0
tp1735
aa(lp1736
(I5
F0.3147
tp1737
a(F115.0
F664.0
tp1738
a(F56.0
F757.0
tp1739
aaaaa(lp1740
(I7
F0.1199
tp1741
a(lp1742
(I5
F0.0897
tp1743
a(lp1744
(I3
F0.065
tp1745
a(lp1746
(I5
F0.0085
tp1747
a(lp1748
(I3
F0.0074
tp1749
a(lp1750
(I0
F0.1144
tp1751
a(lp1752
(I7
F0.0129
tp1753
a(F1695.0
F24.0
tp1754
a(F824.0
F42.0
tp1755
aa(lp1756
(I6
F0.0976
tp1757
a(F864.0
F15.0
tp1758
a(lp1759
(I4
F0.8652
tp1760
a(F986.0
F10.0
tp1761
a(F841.0
F4.0
tp1762
aaaa(F1317.0
F72.0
tp1763
aa(lp1764
(I5
F0.0594
tp1765
a(lp1766
(I4
F0.9244
tp1767
a(lp1768
(I6
F0.6583
tp1769
a(lp1770
(I4
F0.2496
tp1771
a(lp1772
(I7
F0.0403
tp1773
a(F1626.0
F111.0
tp1774
a(F798.0
F90.0
tp1775
aa(F1253.0
F56.0
tp1776
aa(F1208.0
F126.0
tp1777
aa(lp1778
(I0
F1.4344
tp1779
a(F1532.0
F39.0
tp1780
a(F734.0
F58.0
tp1781
aaa(F1431.0
F178.0
tp1782
aaa(lp1783
(I2
F0.0069
tp1784
a(F1212.0
F147.0
tp1785
a(lp1786
(I1
F0.0888
tp1787
a(lp1788
(I3
F0.0755
tp1789
a(F674.0
F150.0
tp1790
a(F966.0
F152.0
tp1791
aa(lp1792
(I3
F0.1277
tp1793
a(F654.0
F151.0
tp1794
a(F604.0
F168.0
tp1795
aaaaa(lp1796
(I1
F0.1867
tp1797
a(lp1798
(I5
F0.1349
tp1799
a(lp1800
(I4
F0.2484
tp1801
a(F1272.0
F267.0
tp1802
a(lp1803
(I2
F1.0225
tp1804
a(F987.0
F282.0
tp1805
a(F606.0
F250.0
tp1806
aaa(lp1807
(I1
F0.1301
tp1808
a(F583.0
F210.0
tp1809
a(F615.0
F305.0
tp1810
aaa(F467.0
F482.0
tp1811
aaa(lp1812
(I5
F0.1485
tp1813
a(lp1814
(I6
F0.3813
tp1815
a(lp1816
(I5
F0.0832
tp1817
a(F1060.0
F56.0
tp1818
a(F1104.0
F273.0
tp1819
aa(F858.0
F649.0
tp1820
aa(lp1821
(I2
F0.0555
tp1822
a(lp1823
(I7
F0.2066
tp1824
a(F607.0
F281.0
tp1825
a(F590.0
F217.0
tp1826
aa(lp1827
(I1
F0.2386
tp1828
a(lp1829
(I6
F1.4081
tp1830
a(F607.0
F743.0
tp1831
a(F201.0
F628.0
tp1832
aa(F169.0
F1279.0
tp1833
aaaaa(lp1834
(I5
F0.1303
tp1835
a(lp1836
(I3
F0.0706
tp1837
a(lp1838
(I7
F0.0606
tp1839
a(lp1840
(I1
F0.023
tp1841
a(lp1842
(I4
F0.3414
tp1843
a(lp1844
(I7
F-0.0263
tp1845
a(F970.0
F51.0
tp1846
a(lp1847
(I0
F0.0003
tp1848
a(lp1849
(I5
F0.0049
tp1850
a(F1363.0
F38.0
tp1851
a(F776.0
F45.0
tp1852
aa(F1325.0
F32.0
tp1853
aaa(lp1854
(I7
F0.0132
tp1855
a(lp1856
(I6
F0.0825
tp1857
a(F804.0
F15.0
tp1858
a(lp1859
(I2
F0.873
tp1860
a(F934.0
F4.0
tp1861
a(F923.0
F9.0
tp1862
aaa(F1374.0
F51.0
tp1863
aaa(lp1864
(I7
F0.027
tp1865
a(lp1866
(I2
F0.8702
tp1867
a(lp1868
(I5
F0.0314
tp1869
a(F731.0
F68.0
tp1870
a(F811.0
F48.0
tp1871
aa(F781.0
F34.0
tp1872
aa(lp1873
(I6
F0.7399
tp1874
a(lp1875
(I3
F0.0438
tp1876
a(F751.0
F71.0
tp1877
a(F776.0
F90.0
tp1878
aa(F1210.0
F84.0
tp1879
aaaa(lp1880
(I0
F0.0931
tp1881
a(lp1882
(I7
F0.1286
tp1883
a(F1221.0
F113.0
tp1884
a(F822.0
F49.0
tp1885
aa(lp1886
(I7
F0.0908
tp1887
a(F1047.0
F160.0
tp1888
a(F604.0
F170.0
tp1889
aaaa(lp1890
(I6
F0.0075
tp1891
a(lp1892
(I0
F0.657
tp1893
a(lp1894
(I2
F0.0013
tp1895
a(F1921.0
F280.0
tp1896
a(F819.0
F170.0
tp1897
aa(F710.0
F250.0
tp1898
aa(lp1899
(I3
F0.1007
tp1900
a(lp1901
(I2
F0.4013
tp1902
a(F630.0
F203.0
tp1903
a(F1159.0
F306.0
tp1904
aa(lp1905
(I6
F0.5375
tp1906
a(F927.0
F319.0
tp1907
a(F851.0
F447.0
tp1908
aaaaa(lp1909
(I0
F0.4772
tp1910
a(lp1911
(I4
F0.0265
tp1912
a(lp1913
(I1
F0.1466
tp1914
a(F779.0
F179.0
tp1915
a(lp1916
(I7
F0.1825
tp1917
a(F659.0
F236.0
tp1918
a(F672.0
F206.0
tp1919
aaa(lp1920
(I7
F0.1298
tp1921
a(F538.0
F241.0
tp1922
a(F506.0
F582.0
tp1923
aaa(lp1924
(I6
F1.4002
tp1925
a(lp1926
(I5
F0.1734
tp1927
a(F615.0
F406.0
tp1928
a(F380.0
F945.0
tp1929
aa(lp1930
(I5
F0.2007
tp1931
a(F270.0
F532.0
tp1932
a(F104.0
F1263.0
tp1933
aaaaa(lp1934
(I3
F0.1386
tp1935
a(lp1936
(I1
F0.0806
tp1937
a(lp1938
(I6
F2.0257
tp1939
a(lp1940
(I3
F0.0248
tp1941
a(lp1942
(I1
F0.028
tp1943
a(lp1944
(I2
F1.1298
tp1945
a(lp1946
(I1
F0.0114
tp1947
a(lp1948
(I5
F0.0335
tp1949
a(lp1950
(I3
F-0.0442
tp1951
a(F1355.0
F16.0
tp1952
a(lp1953
(I7
F0.0255
tp1954
a(lp1955
(I2
F0.0762
tp1956
a(lp1957
(I3
F-0.0141
tp1958
a(F774.0
F13.0
tp1959
a(F771.0
F28.0
tp1960
aa(lp1961
(I4
F0.6463
tp1962
a(F1068.0
F7.0
tp1963
a(F852.0
F13.0
tp1964
aaa(F1160.0
F75.0
tp1965
aaa(F763.0
F83.0
tp1966
aa(lp1967
(I0
F0.1893
tp1968
a(F733.0
F55.0
tp1969
a(F763.0
F41.0
tp1970
aaa(F1237.0
F25.0
tp1971
aa(F802.0
F79.0
tp1972
aa(lp1973
(I7
F0.0953
tp1974
a(lp1975
(I7
F0.0568
tp1976
a(lp1977
(I6
F0.7985
tp1978
a(lp1979
(I5
F0.063
tp1980
a(lp1981
(I2
F0.1892
tp1982
a(F1305.0
F127.0
tp1983
a(lp1984
(I7
F0.0215
tp1985
a(F888.0
F42.0
tp1986
a(F727.0
F64.0
tp1987
aaa(F686.0
F110.0
tp1988
aa(F1226.0
F70.0
tp1989
aa(lp1990
(I2
F0.2102
tp1991
a(F751.0
F81.0
tp1992
a(F1076.0
F183.0
tp1993
aaa(F972.0
F270.0
tp1994
aaa(F709.0
F127.0
tp1995
aa(lp1996
(I6
F0.2513
tp1997
a(lp1998
(I0
F0.3684
tp1999
a(lp2000
(I7
F0.0872
tp2001
a(F1090.0
F168.0
tp2002
a(lp2003
(I5
F0.1115
tp2004
a(F677.0
F122.0
tp2005
a(F720.0
F157.0
tp2006
aaa(F859.0
F265.0
tp2007
aa(lp2008
(I1
F0.1253
tp2009
a(lp2010
(I7
F0.1031
tp2011
a(F1093.0
F288.0
tp2012
a(F697.0
F414.0
tp2013
aa(F451.0
F385.0
tp2014
aaaa(lp2015
(I2
F0.3235
tp2016
a(lp2017
(I7
F0.1148
tp2018
a(F1040.0
F266.0
tp2019
a(lp2020
(I6
F0.0339
tp2021
a(F1233.0
F325.0
tp2022
a(F460.0
F514.0
tp2023
aaa(lp2024
(I6
F1.7474
tp2025
a(lp2026
(I0
F1.8776
tp2027
a(lp2028
(I4
F0.5628
tp2029
a(F704.0
F470.0
tp2030
a(lp2031
(I6
F0.7822
tp2032
a(F361.0
F418.0
tp2033
a(F294.0
F568.0
tp2034
aaa(F280.0
F519.0
tp2035
aa(F216.0
F1279.0
tp2036
aaaa(lp2037
(I1
F0.1152
tp2038
a(lp2039
(I5
F0.0594
tp2040
a(lp2041
(I5
F0.0125
tp2042
a(lp2043
(I7
F0.0124
tp2044
a(lp2045
(I1
F0.0133
tp2046
a(lp2047
(I1
F-0.0263
tp2048
a(lp2049
(I0
F0.0019
tp2050
a(F829.0
F9.0
tp2051
a(F857.0
F4.0
tp2052
aa(lp2053
(I7
F-0.0198
tp2054
a(F812.0
F28.0
tp2055
a(lp2056
(I5
F-0.0084
tp2057
a(F783.0
F22.0
tp2058
a(F985.0
F7.0
tp2059
aaaa(F792.0
F49.0
tp2060
aa(lp2061
(I4
F0.0356
tp2062
a(lp2063
(I1
F-0.0108
tp2064
a(F800.0
F27.0
tp2065
a(F750.0
F33.0
tp2066
aa(F1196.0
F75.0
tp2067
aaa(lp2068
(I5
F0.0222
tp2069
a(lp2070
(I2
F0.2015
tp2071
a(F776.0
F63.0
tp2072
a(F919.0
F38.0
tp2073
aa(lp2074
(I6
F1.4795
tp2075
a(lp2076
(I3
F0.0686
tp2077
a(lp2078
(I0
F0.9765
tp2079
a(lp2080
(I0
F0.3377
tp2081
a(lp2082
(I7
F0.0476
tp2083
a(F1485.0
F77.0
tp2084
a(F1024.0
F86.0
tp2085
aa(F1240.0
F108.0
tp2086
aa(F944.0
F51.0
tp2087
aa(F717.0
F98.0
tp2088
aa(F830.0
F89.0
tp2089
aaaa(lp2090
(I6
F0.01
tp2091
a(lp2092
(I4
F0.1982
tp2093
a(F2070.0
F255.0
tp2094
a(F839.0
F204.0
tp2095
aa(lp2096
(I5
F0.1051
tp2097
a(lp2098
(I7
F0.0918
tp2099
a(lp2100
(I6
F0.7161
tp2101
a(F822.0
F185.0
tp2102
a(F1273.0
F212.0
tp2103
aa(F760.0
F309.0
tp2104
aa(F917.0
F498.0
tp2105
aaaa(lp2106
(I0
F0.3607
tp2107
a(lp2108
(I6
F0.0339
tp2109
a(lp2110
(I3
F0.1446
tp2111
a(F1029.0
F206.0
tp2112
a(lp2113
(I3
F0.2016
tp2114
a(F1039.0
F279.0
tp2115
a(F744.0
F168.0
tp2116
aaa(lp2117
(I7
F0.1325
tp2118
a(F565.0
F218.0
tp2119
a(F436.0
F514.0
tp2120
aaa(lp2121
(I5
F0.2011
tp2122
a(lp2123
(I4
F0.5622
tp2124
a(F877.0
F485.0
tp2125
a(lp2126
(I3
F0.1454
tp2127
a(F672.0
F464.0
tp2128
a(F608.0
F796.0
tp2129
aaa(lp2130
(I7
F0.2255
tp2131
a(F254.0
F695.0
tp2132
a(F113.0
F1351.0
tp2133
aaaaa(lp2134
(I3
F0.1219
tp2135
a(lp2136
(I4
F2.177
tp2137
a(lp2138
(I1
F0.0678
tp2139
a(lp2140
(I5
F0.0567
tp2141
a(lp2142
(I2
F0.5364
tp2143
a(lp2144
(I7
F0.0272
tp2145
a(lp2146
(I3
F-0.0096
tp2147
a(lp2148
(I6
F0.1362
tp2149
a(lp2150
(I1
F-0.0322
tp2151
a(F757.0
F21.0
tp2152
a(F768.0
F17.0
tp2153
aa(F765.0
F10.0
tp2154
aa(lp2155
(I1
F0.0133
tp2156
a(F1381.0
F49.0
tp2157
a(lp2158
(I4
F0.0303
tp2159
a(F776.0
F41.0
tp2160
a(F751.0
F57.0
tp2161
aaaa(lp2162
(I5
F0.0173
tp2163
a(F1640.0
F95.0
tp2164
a(lp2165
(I4
F0.0935
tp2166
a(F1190.0
F98.0
tp2167
a(F848.0
F114.0
tp2168
aaaa(lp2169
(I0
F1.0009
tp2170
a(lp2171
(I5
F0.0186
tp2172
a(F1448.0
F33.0
tp2173
a(F1055.0
F87.0
tp2174
aa(lp2175
(I5
F0.0131
tp2176
a(F1316.0
F12.0
tp2177
a(F1497.0
F82.0
tp2178
aaaa(lp2179
(I6
F0.4919
tp2180
a(lp2181
(I4
F0.0923
tp2182
a(F792.0
F59.0
tp2183
a(F858.0
F142.0
tp2184
aa(F904.0
F234.0
tp2185
aaa(lp2186
(I4
F0.1416
tp2187
a(lp2188
(I3
F0.082
tp2189
a(F905.0
F128.0
tp2190
a(lp2191
(I1
F0.1019
tp2192
a(F767.0
F152.0
tp2193
a(F892.0
F221.0
tp2194
aaa(lp2195
(I5
F0.108
tp2196
a(lp2197
(I5
F0.0857
tp2198
a(lp2199
(I6
F0.6576
tp2200
a(F719.0
F113.0
tp2201
a(F737.0
F146.0
tp2202
aa(F879.0
F248.0
tp2203
aa(F665.0
F428.0
tp2204
aaaa(F641.0
F243.0
tp2205
aa(lp2206
(I6
F0.5818
tp2207
a(lp2208
(I2
F0.0322
tp2209
a(F2541.0
F694.0
tp2210
a(lp2211
(I3
F0.2249
tp2212
a(lp2213
(I1
F0.1614
tp2214
a(F998.0
F413.0
tp2215
a(F740.0
F517.0
tp2216
aa(F329.0
F474.0
tp2217
aaa(lp2218
(I4
F2.0686
tp2219
a(lp2220
(I6
F1.3323
tp2221
a(F678.0
F827.0
tp2222
a(F375.0
F748.0
tp2223
aa(F229.0
F1116.0
tp2224
aaaa(lp2225
(I5
F0.1342
tp2226
a(lp2227
(I3
F0.0716
tp2228
a(lp2229
(I1
F0.0369
tp2230
a(lp2231
(I7
F0.0312
tp2232
a(lp2233
(I4
F0.4624
tp2234
a(lp2235
(I5
F0.0032
tp2236
a(lp2237
(I7
F0.0043
tp2238
a(lp2239
(I3
F-0.0347
tp2240
a(F801.0
F8.0
tp2241
a(F1387.0
F38.0
tp2242
aa(F803.0
F25.0
tp2243
aa(lp2244
(I2
F0.0638
tp2245
a(F1029.0
F54.0
tp2246
a(F770.0
F58.0
tp2247
aaa(lp2248
(I5
F0.0045
tp2249
a(lp2250
(I2
F0.8121
tp2251
a(F785.0
F7.0
tp2252
a(F971.0
F4.0
tp2253
aa(lp2254
(I3
F0.0124
tp2255
a(F849.0
F33.0
tp2256
a(F1042.0
F32.0
tp2257
aaaa(lp2258
(I3
F0.008
tp2259
a(lp2260
(I4
F0.1744
tp2261
a(F1241.0
F59.0
tp2262
a(F754.0
F56.0
tp2263
aa(lp2264
(I0
F0.1073
tp2265
a(F797.0
F56.0
tp2266
a(F1048.0
F105.0
tp2267
aaaa(lp2268
(I2
F0.2327
tp2269
a(lp2270
(I5
F0.0567
tp2271
a(F1325.0
F89.0
tp2272
a(F918.0
F133.0
tp2273
aa(lp2274
(I5
F0.0655
tp2275
a(lp2276
(I2
F1.0866
tp2277
a(F1193.0
F102.0
tp2278
a(F918.0
F115.0
tp2279
aa(F783.0
F174.0
tp2280
aaaa(lp2281
(I4
F0.1979
tp2282
a(lp2283
(I5
F0.0797
tp2284
a(lp2285
(I7
F0.0571
tp2286
a(F1059.0
F199.0
tp2287
a(F717.0
F77.0
tp2288
aa(lp2289
(I5
F0.1023
tp2290
a(F903.0
F221.0
tp2291
a(F1264.0
F265.0
tp2292
aaa(lp2293
(I5
F0.1069
tp2294
a(lp2295
(I2
F0.6181
tp2296
a(F752.0
F231.0
tp2297
a(lp2298
(I6
F0.912
tp2299
a(F810.0
F179.0
tp2300
a(F731.0
F225.0
tp2301
aaa(F996.0
F568.0
tp2302
aaaa(lp2303
(I5
F0.211
tp2304
a(lp2305
(I4
F0.725
tp2306
a(lp2307
(I2
F0.0552
tp2308
a(lp2309
(I3
F0.1492
tp2310
a(F722.0
F156.0
tp2311
a(F836.0
F296.0
tp2312
aa(F890.0
F603.0
tp2313
aa(lp2314
(I7
F0.1457
tp2315
a(F478.0
F431.0
tp2316
a(F333.0
F657.0
tp2317
aaa(lp2318
(I4
F0.2402
tp2319
a(F611.0
F242.0
tp2320
a(lp2321
(I0
F1.1608
tp2322
a(F241.0
F555.0
tp2323
a(lp2324
(I6
F2.3013
tp2325
a(F137.0
F667.0
tp2326
a(F57.0
F789.0
tp2327
aaaaaa(lp2328
(I1
F0.1213
tp2329
a(lp2330
(I1
F0.0677
tp2331
a(lp2332
(I1
F0.0397
tp2333
a(lp2334
(I1
F0.0109
tp2335
a(lp2336
(I4
F0.3444
tp2337
a(lp2338
(I5
F0.0069
tp2339
a(lp2340
(I1
F-0.0381
tp2341
a(F1210.0
F18.0
tp2342
a(lp2343
(I1
F-0.0119
tp2344
a(F1215.0
F58.0
tp2345
a(F1073.0
F34.0
tp2346
aaa(F1280.0
F95.0
tp2347
aa(lp2348
(I1
F-0.0057
tp2349
a(lp2350
(I7
F0.0057
tp2351
a(F1290.0
F10.0
tp2352
a(F732.0
F37.0
tp2353
aa(F1267.0
F48.0
tp2354
aaa(lp2355
(I0
F1.001
tp2356
a(lp2357
(I4
F0.3225
tp2358
a(lp2359
(I5
F0.0164
tp2360
a(F789.0
F42.0
tp2361
a(F1498.0
F111.0
tp2362
aa(lp2363
(I4
F0.7545
tp2364
a(F710.0
F101.0
tp2365
a(F762.0
F68.0
tp2366
aaa(F1204.0
F31.0
tp2367
aaa(lp2368
(I3
F0.0671
tp2369
a(lp2370
(I5
F0.0655
tp2371
a(lp2372
(I6
F0.0029
tp2373
a(F1050.0
F70.0
tp2374
a(lp2375
(I7
F0.0524
tp2376
a(F1036.0
F79.0
tp2377
a(F726.0
F90.0
tp2378
aaa(F705.0
F138.0
tp2379
aa(F738.0
F148.0
tp2380
aaa(lp2381
(I6
F0.3107
tp2382
a(lp2383
(I4
F0.1578
tp2384
a(lp2385
(I7
F0.1054
tp2386
a(lp2387
(I3
F0.0913
tp2388
a(F735.0
F91.0
tp2389
a(F848.0
F170.0
tp2390
aa(F817.0
F114.0
tp2391
aa(F1034.0
F287.0
tp2392
aa(lp2393
(I1
F0.0936
tp2394
a(lp2395
(I7
F0.0811
tp2396
a(F766.0
F112.0
tp2397
a(F571.0
F252.0
tp2398
aa(F950.0
F444.0
tp2399
aaaa(lp2400
(I0
F0.4994
tp2401
a(lp2402
(I0
F0.0011
tp2403
a(F2582.0
F714.0
tp2404
a(lp2405
(I5
F0.141
tp2406
a(F586.0
F220.0
tp2407
a(F671.0
F640.0
tp2408
aaa(lp2409
(I5
F0.1704
tp2410
a(lp2411
(I4
F0.7494
tp2412
a(F762.0
F335.0
tp2413
a(F756.0
F668.0
tp2414
aa(lp2415
(I5
F0.2673
tp2416
a(F453.0
F1072.0
tp2417
a(F118.0
F1229.0
tp2418
aaaaa(lp2419
(I1
F0.1205
tp2420
a(lp2421
(I5
F0.0791
tp2422
a(lp2423
(I7
F0.0382
tp2424
a(lp2425
(I3
F0.0334
tp2426
a(lp2427
(I5
F0.031
tp2428
a(lp2429
(I4
F0.3301
tp2430
a(lp2431
(I5
F-0.0309
tp2432
a(F1097.0
F20.0
tp2433
a(lp2434
(I3
F0.0078
tp2435
a(lp2436
(I7
F-0.0018
tp2437
a(F1033.0
F27.0
tp2438
a(F860.0
F45.0
tp2439
aa(F915.0
F59.0
tp2440
aaa(lp2441
(I2
F0.9023
tp2442
a(lp2443
(I1
F-0.0011
tp2444
a(F1052.0
F10.0
tp2445
a(F903.0
F24.0
tp2446
aa(lp2447
(I6
F1.1422
tp2448
a(F948.0
F7.0
tp2449
a(F768.0
F8.0
tp2450
aaaa(F898.0
F58.0
tp2451
aa(lp2452
(I1
F0.0667
tp2453
a(lp2454
(I4
F0.6836
tp2455
a(F1356.0
F126.0
tp2456
a(F709.0
F36.0
tp2457
aa(F713.0
F98.0
tp2458
aaa(lp2459
(I2
F1.1732
tp2460
a(lp2461
(I2
F0.0004
tp2462
a(lp2463
(I1
F0.0083
tp2464
a(F1008.0
F42.0
tp2465
a(lp2466
(I3
F0.0411
tp2467
a(F743.0
F77.0
tp2468
a(F1142.0
F134.0
tp2469
aaa(lp2470
(I1
F0.0248
tp2471
a(F919.0
F73.0
tp2472
a(lp2473
(I7
F0.0739
tp2474
a(lp2475
(I3
F0.0544
tp2476
a(F756.0
F63.0
tp2477
a(F715.0
F94.0
tp2478
aa(F667.0
F129.0
tp2479
aaaa(F1093.0
F188.0
tp2480
aaa(lp2481
(I0
F0.1205
tp2482
a(F2286.0
F398.0
tp2483
a(lp2484
(I4
F1.5853
tp2485
a(lp2486
(I7
F0.1035
tp2487
a(lp2488
(I7
F0.0653
tp2489
a(F711.0
F147.0
tp2490
a(F666.0
F216.0
tp2491
aa(F501.0
F293.0
tp2492
aa(F567.0
F255.0
tp2493
aaaa(lp2494
(I0
F0.256
tp2495
a(lp2496
(I6
F0.0041
tp2497
a(lp2498
(I5
F0.1283
tp2499
a(F730.0
F125.0
tp2500
a(F1672.0
F410.0
tp2501
aa(F861.0
F565.0
tp2502
aa(lp2503
(I5
F0.1734
tp2504
a(lp2505
(I7
F0.1111
tp2506
a(lp2507
(I1
F0.1624
tp2508
a(F709.0
F250.0
tp2509
a(F521.0
F273.0
tp2510
aa(F743.0
F813.0
tp2511
aa(lp2512
(I4
F1.7346
tp2513
a(F491.0
F1078.0
tp2514
a(F188.0
F1378.0
tp2515
aaaaa(lp2516
(I0
F2.3889
tp2517
a(lp2518
(I7
F0.1048
tp2519
a(lp2520
(I1
F0.0852
tp2521
a(lp2522
(I1
F0.0446
tp2523
a(lp2524
(I0
F0.5329
tp2525
a(lp2526
(I7
F0.0276
tp2527
a(lp2528
(I2
F-0.0042
tp2529
a(F1203.0
F74.0
tp2530
a(lp2531
(I5
F0.0017
tp2532
a(lp2533
(I4
F0.0431
tp2534
a(F1302.0
F42.0
tp2535
a(F887.0
F11.0
tp2536
aa(lp2537
(I3
F0.0108
tp2538
a(F747.0
F44.0
tp2539
a(F1074.0
F40.0
tp2540
aaaa(lp2541
(I7
F0.0659
tp2542
a(lp2543
(I5
F0.0271
tp2544
a(F1052.0
F67.0
tp2545
a(F872.0
F89.0
tp2546
aa(F734.0
F86.0
tp2547
aaa(lp2548
(I1
F0.0174
tp2549
a(lp2550
(I5
F0.0041
tp2551
a(lp2552
(I4
F0.8313
tp2553
a(F785.0
F12.0
tp2554
a(F931.0
F1.0
tp2555
aa(F1115.0
F50.0
tp2556
aa(lp2557
(I3
F0.0327
tp2558
a(F1082.0
F57.0
tp2559
a(F842.0
F59.0
tp2560
aaaa(lp2561
(I1
F0.0609
tp2562
a(lp2563
(I7
F0.0556
tp2564
a(F1406.0
F115.0
tp2565
a(F681.0
F105.0
tp2566
aa(lp2567
(I1
F0.0733
tp2568
a(lp2569
(I7
F0.0555
tp2570
a(F695.0
F99.0
tp2571
a(F674.0
F145.0
tp2572
aa(F1162.0
F153.0
tp2573
aaaa(lp2574
(I3
F0.1347
tp2575
a(lp2576
(I2
F0.5219
tp2577
a(lp2578
(I5
F0.1022
tp2579
a(F1034.0
F165.0
tp2580
a(F692.0
F156.0
tp2581
aa(F1088.0
F352.0
tp2582
aa(lp2583
(I0
F0.4968
tp2584
a(F1036.0
F324.0
tp2585
a(F732.0
F481.0
tp2586
aaaa(lp2587
(I2
F0.0597
tp2588
a(lp2589
(I6
F0.0005
tp2590
a(lp2591
(I5
F0.1422
tp2592
a(lp2593
(I3
F0.0883
tp2594
a(F798.0
F35.0
tp2595
a(F803.0
F117.0
tp2596
aa(F1148.0
F299.0
tp2597
aa(lp2598
(I5
F0.1265
tp2599
a(F645.0
F160.0
tp2600
a(F416.0
F377.0
tp2601
aaa(lp2602
(I1
F0.1576
tp2603
a(lp2604
(I1
F0.1231
tp2605
a(lp2606
(I1
F0.0892
tp2607
a(F635.0
F224.0
tp2608
a(F545.0
F311.0
tp2609
aa(F586.0
F526.0
tp2610
aa(lp2611
(I4
F0.752
tp2612
a(F514.0
F569.0
tp2613
a(F316.0
F1013.0
tp2614
aaaaa(lp2615
(I1
F0.2108
tp2616
a(F480.0
F333.0
tp2617
a(F117.0
F940.0
tp2618
aaa(lp2619
(I4
F2.1809
tp2620
a(lp2621
(I6
F0.0025
tp2622
a(lp2623
(I3
F0.0856
tp2624
a(lp2625
(I5
F0.0511
tp2626
a(lp2627
(I7
F0.0129
tp2628
a(lp2629
(I3
F0.0163
tp2630
a(lp2631
(I2
F0.1455
tp2632
a(lp2633
(I3
F-0.0205
tp2634
a(F799.0
F10.0
tp2635
a(F757.0
F28.0
tp2636
aa(F816.0
F10.0
tp2637
aa(F1022.0
F56.0
tp2638
aa(lp2639
(I5
F0.0087
tp2640
a(F945.0
F34.0
tp2641
a(lp2642
(I5
F0.0304
tp2643
a(F725.0
F54.0
tp2644
a(F805.0
F50.0
tp2645
aaaa(lp2646
(I0
F0.1751
tp2647
a(lp2648
(I3
F0.06
tp2649
a(F755.0
F68.0
tp2650
a(F710.0
F72.0
tp2651
aa(F643.0
F124.0
tp2652
aaa(lp2653
(I3
F0.1443
tp2654
a(lp2655
(I2
F0.0246
tp2656
a(lp2657
(I7
F0.1079
tp2658
a(F850.0
F170.0
tp2659
a(F757.0
F95.0
tp2660
aa(F827.0
F240.0
tp2661
aa(lp2662
(I2
F0.5462
tp2663
a(F1856.0
F487.0
tp2664
a(F463.0
F336.0
tp2665
aaaa(lp2666
(I1
F0.1151
tp2667
a(lp2668
(I7
F0.0818
tp2669
a(lp2670
(I7
F0.0555
tp2671
a(lp2672
(I3
F0.0173
tp2673
a(lp2674
(I1
F0.0115
tp2675
a(lp2676
(I7
F0.0179
tp2677
a(lp2678
(I4
F0.3899
tp2679
a(F1008.0
F19.0
tp2680
a(F1520.0
F4.0
tp2681
aa(F935.0
F30.0
tp2682
aa(F753.0
F50.0
tp2683
aa(lp2684
(I1
F0.0632
tp2685
a(lp2686
(I5
F0.0461
tp2687
a(lp2688
(I1
F0.0259
tp2689
a(F788.0
F54.0
tp2690
a(F1393.0
F64.0
tp2691
aa(F789.0
F75.0
tp2692
aa(F718.0
F96.0
tp2693
aaa(lp2694
(I4
F0.3116
tp2695
a(F732.0
F79.0
tp2696
a(F1327.0
F236.0
tp2697
aaa(lp2698
(I4
F0.1545
tp2699
a(F954.0
F224.0
tp2700
a(lp2701
(I3
F0.0732
tp2702
a(F657.0
F207.0
tp2703
a(F863.0
F383.0
tp2704
aaaa(lp2705
(I7
F0.1377
tp2706
a(lp2707
(I5
F0.1219
tp2708
a(F921.0
F277.0
tp2709
a(F792.0
F565.0
tp2710
aa(lp2711
(I3
F0.215
tp2712
a(lp2713
(I7
F0.1793
tp2714
a(F541.0
F592.0
tp2715
a(F292.0
F543.0
tp2716
aa(F170.0
F771.0
tp2717
aaaaa(lp2718
(I7
F0.1484
tp2719
a(F767.0
F468.0
tp2720
a(F168.0
F1071.0
tp2721
aaa(lp2722
(I1
F0.1151
tp2723
a(lp2724
(I6
F2.1265
tp2725
a(lp2726
(I4
F0.0987
tp2727
a(lp2728
(I6
F0.0151
tp2729
a(lp2730
(I1
F0.0433
tp2731
a(lp2732
(I0
F0.0042
tp2733
a(lp2734
(I3
F0.0083
tp2735
a(lp2736
(I7
F0.0074
tp2737
a(F1033.0
F36.0
tp2738
a(F807.0
F18.0
tp2739
aa(F1194.0
F75.0
tp2740
aa(F933.0
F22.0
tp2741
aa(lp2742
(I5
F0.0973
tp2743
a(lp2744
(I7
F0.0695
tp2745
a(F1104.0
F157.0
tp2746
a(F799.0
F66.0
tp2747
aa(F699.0
F119.0
tp2748
aaa(lp2749
(I3
F0.0405
tp2750
a(lp2751
(I7
F0.0272
tp2752
a(F793.0
F29.0
tp2753
a(F996.0
F83.0
tp2754
aa(F959.0
F214.0
tp2755
aaa(lp2756
(I5
F0.0792
tp2757
a(lp2758
(I7
F0.0613
tp2759
a(lp2760
(I1
F0.0165
tp2761
a(lp2762
(I7
F0.0236
tp2763
a(lp2764
(I6
F0.1348
tp2765
a(F1141.0
F36.0
tp2766
a(lp2767
(I0
F1.0354
tp2768
a(F1468.0
F8.0
tp2769
a(F783.0
F7.0
tp2770
aaa(F756.0
F34.0
tp2771
aa(lp2772
(I5
F0.0568
tp2773
a(lp2774
(I4
F1.0878
tp2775
a(lp2776
(I6
F0.0961
tp2777
a(F731.0
F83.0
tp2778
a(F1410.0
F100.0
tp2779
aa(F1250.0
F53.0
tp2780
aa(F865.0
F102.0
tp2781
aaa(lp2782
(I5
F0.0582
tp2783
a(F844.0
F125.0
tp2784
a(F746.0
F164.0
tp2785
aaa(lp2786
(I7
F0.1036
tp2787
a(lp2788
(I0
F0.4215
tp2789
a(F662.0
F132.0
tp2790
a(F1121.0
F356.0
tp2791
aa(F540.0
F330.0
tp2792
aaaa(F678.0
F190.0
tp2793
aa(lp2794
(I5
F0.1813
tp2795
a(lp2796
(I7
F0.117
tp2797
a(lp2798
(I4
F0.3324
tp2799
a(lp2800
(I0
F0.0763
tp2801
a(F1014.0
F179.0
tp2802
a(F852.0
F255.0
tp2803
aa(F980.0
F523.0
tp2804
aa(lp2805
(I2
F0.0273
tp2806
a(F1078.0
F344.0
tp2807
a(lp2808
(I0
F0.8659
tp2809
a(F591.0
F482.0
tp2810
a(F373.0
F536.0
tp2811
aaaa(lp2812
(I4
F0.4463
tp2813
a(lp2814
(I7
F0.2127
tp2815
a(F525.0
F251.0
tp2816
a(F553.0
F271.0
tp2817
aa(lp2818
(I6
F2.2601
tp2819
a(lp2820
(I5
F0.238
tp2821
a(F282.0
F538.0
tp2822
a(F164.0
F741.0
tp2823
aa(F83.0
F994.0
tp2824
aaaaa(lp2825
(I5
F0.1222
tp2826
a(lp2827
(I7
F0.053
tp2828
a(lp2829
(I0
F1.9142
tp2830
a(lp2831
(I1
F0.0665
tp2832
a(lp2833
(I5
F0.0166
tp2834
a(lp2835
(I7
F0.013
tp2836
a(lp2837
(I3
F0.0142
tp2838
a(lp2839
(I6
F0.3832
tp2840
a(lp2841
(I4
F0.2948
tp2842
a(lp2843
(I5
F-0.0203
tp2844
a(F1016.0
F18.0
tp2845
a(F977.0
F37.0
tp2846
aa(F788.0
F4.0
tp2847
aa(F1563.0
F3.0
tp2848
aa(F800.0
F36.0
tp2849
aa(lp2850
(I5
F0.0002
tp2851
a(F980.0
F32.0
tp2852
a(F917.0
F58.0
tp2853
aaa(lp2854
(I4
F0.6627
tp2855
a(lp2856
(I5
F0.0458
tp2857
a(lp2858
(I6
F0.0041
tp2859
a(F1056.0
F83.0
tp2860
a(F1018.0
F67.0
tp2861
aa(F875.0
F99.0
tp2862
aa(lp2863
(I3
F0.0361
tp2864
a(F1374.0
F46.0
tp2865
a(F939.0
F61.0
tp2866
aaaa(lp2867
(I1
F0.1154
tp2868
a(lp2869
(I3
F0.0832
tp2870
a(F734.0
F83.0
tp2871
a(F669.0
F126.0
tp2872
aa(F751.0
F181.0
tp2873
aaa(F653.0
F146.0
tp2874
aa(lp2875
(I6
F0.0062
tp2876
a(lp2877
(I3
F0.1108
tp2878
a(lp2879
(I1
F0.0585
tp2880
a(F1361.0
F60.0
tp2881
a(F1246.0
F153.0
tp2882
aa(F721.0
F182.0
tp2883
aa(lp2884
(I5
F0.0847
tp2885
a(lp2886
(I1
F0.0565
tp2887
a(lp2888
(I5
F0.0225
tp2889
a(F740.0
F57.0
tp2890
a(F1175.0
F167.0
tp2891
aa(lp2892
(I3
F0.0795
tp2893
a(F997.0
F181.0
tp2894
a(F669.0
F167.0
tp2895
aaa(lp2896
(I1
F0.0987
tp2897
a(F847.0
F284.0
tp2898
a(F1021.0
F483.0
tp2899
aaaaa(lp2900
(I4
F0.1668
tp2901
a(lp2902
(I2
F0.0034
tp2903
a(F2231.0
F549.0
tp2904
a(F595.0
F300.0
tp2905
aa(lp2906
(I0
F1.9642
tp2907
a(lp2908
(I5
F0.2089
tp2909
a(lp2910
(I5
F0.1495
tp2911
a(F843.0
F530.0
tp2912
a(lp2913
(I1
F0.1593
tp2914
a(F387.0
F408.0
tp2915
a(F478.0
F600.0
tp2916
aaa(F320.0
F907.0
tp2917
aa(lp2918
(I5
F0.2571
tp2919
a(F230.0
F516.0
tp2920
a(F54.0
F811.0
tp2921
aaaaa(lp2922
(I5
F0.1371
tp2923
a(lp2924
(I1
F0.0679
tp2925
a(lp2926
(I6
F0.2396
tp2927
a(lp2928
(I5
F0.0173
tp2929
a(lp2930
(I5
F-0.0341
tp2931
a(F1233.0
F16.0
tp2932
a(lp2933
(I2
F0.0004
tp2934
a(F1884.0
F77.0
tp2935
a(lp2936
(I7
F-0.0021
tp2937
a(F919.0
F22.0
tp2938
a(F788.0
F36.0
tp2939
aaaa(lp2940
(I1
F0.0431
tp2941
a(lp2942
(I7
F0.0403
tp2943
a(lp2944
(I7
F0.0073
tp2945
a(F782.0
F60.0
tp2946
a(F874.0
F46.0
tp2947
aa(F939.0
F87.0
tp2948
aa(lp2949
(I5
F0.0548
tp2950
a(F753.0
F60.0
tp2951
a(F795.0
F99.0
tp2952
aaaa(lp2953
(I1
F0.0375
tp2954
a(lp2955
(I5
F0.0278
tp2956
a(lp2957
(I7
F0.0425
tp2958
a(lp2959
(I1
F0.0103
tp2960
a(lp2961
(I2
F0.3
tp2962
a(F922.0
F18.0
tp2963
a(lp2964
(I6
F1.0544
tp2965
a(F850.0
F6.0
tp2966
a(F807.0
F3.0
tp2967
aaa(F1055.0
F47.0
tp2968
aa(F768.0
F65.0
tp2969
aa(lp2970
(I7
F0.044
tp2971
a(F803.0
F38.0
tp2972
a(F712.0
F107.0
tp2973
aaa(lp2974
(I7
F0.065
tp2975
a(lp2976
(I4
F1.0122
tp2977
a(F871.0
F90.0
tp2978
a(F736.0
F85.0
tp2979
aa(F668.0
F189.0
tp2980
aaaa(lp2981
(I4
F0.1413
tp2982
a(lp2983
(I1
F0.1025
tp2984
a(lp2985
(I1
F0.0851
tp2986
a(F788.0
F108.0
tp2987
a(F784.0
F135.0
tp2988
aa(lp2989
(I0
F0.0007
tp2990
a(lp2991
(I5
F0.1119
tp2992
a(F803.0
F139.0
tp2993
a(F698.0
F151.0
tp2994
aa(F842.0
F241.0
tp2995
aaa(lp2996
(I2
F1.6413
tp2997
a(lp2998
(I5
F0.1099
tp2999
a(lp3000
(I7
F0.0682
tp3001
a(F1141.0
F218.0
tp3002
a(lp3003
(I5
F0.0891
tp3004
a(F595.0
F174.0
tp3005
a(F632.0
F201.0
tp3006
aaa(F831.0
F446.0
tp3007
aa(F626.0
F314.0
tp3008
aaaa(lp3009
(I0
F0.4951
tp3010
a(lp3011
(I6
F0.0025
tp3012
a(lp3013
(I1
F0.1687
tp3014
a(F985.0
F251.0
tp3015
a(F979.0
F210.0
tp3016
aa(lp3017
(I1
F0.1596
tp3018
a(F493.0
F308.0
tp3019
a(F423.0
F514.0
tp3020
aaa(lp3021
(I7
F0.1858
tp3022
a(lp3023
(I0
F1.3997
tp3024
a(F556.0
F583.0
tp3025
a(F355.0
F737.0
tp3026
aa(lp3027
(I6
F2.34
tp3028
a(F162.0
F777.0
tp3029
a(F59.0
F891.0
tp3030
aaaaa(lp3031
(I4
F2.6583
tp3032
a(lp3033
(I1
F0.1213
tp3034
a(lp3035
(I5
F0.0606
tp3036
a(lp3037
(I1
F0.043
tp3038
a(lp3039
(I5
F0.0069
tp3040
a(lp3041
(I7
F0.0215
tp3042
a(lp3043
(I1
F-0.0004
tp3044
a(lp3045
(I6
F0.2886
tp3046
a(lp3047
(I7
F-0.0247
tp3048
a(F973.0
F28.0
tp3049
a(F1174.0
F16.0
tp3050
aa(F1358.0
F5.0
tp3051
aa(F1201.0
F35.0
tp3052
aa(lp3053
(I1
F-0.0161
tp3054
a(F875.0
F19.0
tp3055
a(F899.0
F53.0
tp3056
aaa(lp3057
(I6
F0.0302
tp3058
a(lp3059
(I1
F0.0268
tp3060
a(lp3061
(I5
F0.0225
tp3062
a(F754.0
F34.0
tp3063
a(F721.0
F52.0
tp3064
aa(F834.0
F38.0
tp3065
aa(lp3066
(I7
F0.0468
tp3067
a(lp3068
(I4
F0.8625
tp3069
a(F1444.0
F116.0
tp3070
a(F1268.0
F26.0
tp3071
aa(F990.0
F112.0
tp3072
aaaa(lp3073
(I7
F0.0617
tp3074
a(lp3075
(I4
F0.2331
tp3076
a(F1180.0
F150.0
tp3077
a(F1354.0
F100.0
tp3078
aa(F856.0
F133.0
tp3079
aaa(lp3080
(I4
F0.0055
tp3081
a(lp3082
(I3
F0.0904
tp3083
a(F1326.0
F166.0
tp3084
a(F1044.0
F198.0
tp3085
aa(lp3086
(I1
F0.0839
tp3087
a(lp3088
(I7
F0.0845
tp3089
a(lp3090
(I6
F0.7161
tp3091
a(F1112.0
F217.0
tp3092
a(F820.0
F115.0
tp3093
aa(F602.0
F240.0
tp3094
aa(lp3095
(I7
F0.1043
tp3096
a(lp3097
(I2
F0.7607
tp3098
a(F720.0
F184.0
tp3099
a(F569.0
F207.0
tp3100
aa(F558.0
F352.0
tp3101
aaaaa(lp3102
(I4
F0.4466
tp3103
a(lp3104
(I6
F0.0015
tp3105
a(lp3106
(I0
F0.0112
tp3107
a(lp3108
(I1
F0.163
tp3109
a(F1032.0
F237.0
tp3110
a(F1099.0
F206.0
tp3111
aa(F719.0
F270.0
tp3112
aa(lp3113
(I6
F0.2443
tp3114
a(F648.0
F341.0
tp3115
a(F708.0
F512.0
tp3116
aaa(lp3117
(I6
F0.9522
tp3118
a(lp3119
(I5
F0.1517
tp3120
a(F525.0
F276.0
tp3121
a(F454.0
F683.0
tp3122
aa(lp3123
(I7
F0.179
tp3124
a(F461.0
F490.0
tp3125
a(F142.0
F808.0
tp3126
aaaaa(lp3127
(I5
F0.2595
tp3128
a(F363.0
F431.0
tp3129
a(F51.0
F776.0
tp3130
aaa(lp3131
(I4
F2.2538
tp3132
a(lp3133
(I1
F0.0875
tp3134
a(lp3135
(I3
F0.047
tp3136
a(lp3137
(I7
F0.0398
tp3138
a(lp3139
(I7
F0.0037
tp3140
a(lp3141
(I0
F0.991
tp3142
a(lp3143
(I5
F0.0166
tp3144
a(lp3145
(I5
F-0.0291
tp3146
a(F1129.0
F10.0
tp3147
a(lp3148
(I4
F0.2889
tp3149
a(F1329.0
F49.0
tp3150
a(F917.0
F9.0
tp3151
aaa(F759.0
F68.0
tp3152
aa(F1149.0
F16.0
tp3153
aa(lp3154
(I6
F0.0619
tp3155
a(lp3156
(I2
F0.0004
tp3157
a(F970.0
F81.0
tp3158
a(F769.0
F47.0
tp3159
aa(lp3160
(I3
F0.0024
tp3161
a(F1050.0
F16.0
tp3162
a(lp3163
(I6
F0.8502
tp3164
a(F1003.0
F60.0
tp3165
a(F993.0
F33.0
tp3166
aaaaa(lp3167
(I1
F0.0431
tp3168
a(lp3169
(I4
F0.0648
tp3170
a(lp3171
(I1
F-0.0013
tp3172
a(F884.0
F36.0
tp3173
a(F872.0
F70.0
tp3174
aa(lp3175
(I5
F0.032
tp3176
a(F718.0
F58.0
tp3177
a(F899.0
F121.0
tp3178
aaa(F704.0
F118.0
tp3179
aaa(lp3180
(I7
F0.0741
tp3181
a(lp3182
(I6
F0.9952
tp3183
a(lp3184
(I3
F0.0774
tp3185
a(lp3186
(I0
F0.1508
tp3187
a(F915.0
F75.0
tp3188
a(F1194.0
F152.0
tp3189
aa(F798.0
F191.0
tp3190
aa(F780.0
F69.0
tp3191
aa(lp3192
(I0
F0.0013
tp3193
a(F738.0
F113.0
tp3194
a(F867.0
F285.0
tp3195
aaaa(lp3196
(I0
F0.0264
tp3197
a(lp3198
(I0
F-0.0028
tp3199
a(F774.0
F346.0
tp3200
a(lp3201
(I5
F0.1388
tp3202
a(lp3203
(I7
F0.0993
tp3204
a(F723.0
F123.0
tp3205
a(F828.0
F174.0
tp3206
aa(lp3207
(I5
F0.1739
tp3208
a(F596.0
F186.0
tp3209
a(F867.0
F212.0
tp3210
aaaa(lp3211
(I5
F0.1549
tp3212
a(lp3213
(I5
F0.1055
tp3214
a(lp3215
(I5
F0.06
tp3216
a(F669.0
F165.0
tp3217
a(lp3218
(I0
F0.7425
tp3219
a(F618.0
F208.0
tp3220
a(F690.0
F262.0
tp3221
aaa(lp3222
(I6
F0.2535
tp3223
a(F621.0
F268.0
tp3224
a(lp3225
(I5
F0.13
tp3226
a(F544.0
F344.0
tp3227
a(F377.0
F428.0
tp3228
aaaa(lp3229
(I2
F0.7121
tp3230
a(F682.0
F787.0
tp3231
a(F404.0
F1186.0
tp3232
aaaaa(lp3233
(I5
F0.173
tp3234
a(F648.0
F297.0
tp3235
a(F145.0
F1174.0
tp3236
aaa(lp3237
(I1
F0.1213
tp3238
a(lp3239
(I5
F0.0839
tp3240
a(lp3241
(I1
F0.0431
tp3242
a(lp3243
(I1
F0.008
tp3244
a(lp3245
(I7
F0.0192
tp3246
a(lp3247
(I4
F0.3989
tp3248
a(lp3249
(I0
F0.0195
tp3250
a(F1772.0
F57.0
tp3251
a(F1033.0
F22.0
tp3252
aa(lp3253
(I0
F0.9859
tp3254
a(F1311.0
F2.0
tp3255
a(F855.0
F12.0
tp3256
aaa(lp3257
(I5
F0.008
tp3258
a(F1408.0
F38.0
tp3259
a(F993.0
F94.0
tp3260
aaa(lp3261
(I0
F1.0181
tp3262
a(lp3263
(I4
F0.0229
tp3264
a(lp3265
(I7
F0.0356
tp3266
a(F907.0
F39.0
tp3267
a(F837.0
F51.0
tp3268
aa(lp3269
(I2
F0.175
tp3270
a(F765.0
F79.0
tp3271
a(lp3272
(I7
F0.0322
tp3273
a(F1052.0
F51.0
tp3274
a(F736.0
F87.0
tp3275
aaaa(F1468.0
F51.0
tp3276
aaa(lp3277
(I5
F0.0598
tp3278
a(lp3279
(I6
F0.6936
tp3280
a(lp3281
(I3
F0.0727
tp3282
a(lp3283
(I7
F0.0396
tp3284
a(F824.0
F59.0
tp3285
a(F733.0
F66.0
tp3286
aa(F700.0
F113.0
tp3287
aa(F952.0
F134.0
tp3288
aa(lp3289
(I0
F0.0001
tp3290
a(F795.0
F101.0
tp3291
a(lp3292
(I7
F0.0682
tp3293
a(F1001.0
F155.0
tp3294
a(F772.0
F181.0
tp3295
aaaaa(lp3296
(I7
F0.1161
tp3297
a(lp3298
(I2
F0.4359
tp3299
a(lp3300
(I2
F0.0069
tp3301
a(F1207.0
F197.0
tp3302
a(F633.0
F158.0
tp3303
aa(lp3304
(I2
F1.0475
tp3305
a(F649.0
F199.0
tp3306
a(F597.0
F238.0
tp3307
aaa(F1019.0
F538.0
tp3308
aaa(lp3309
(I0
F0.6167
tp3310
a(lp3311
(I0
F0.0016
tp3312
a(lp3313
(I7
F0.0919
tp3314
a(F685.0
F145.0
tp3315
a(lp3316
(I7
F0.201
tp3317
a(lp3318
(I3
F0.1529
tp3319
a(F606.0
F171.0
tp3320
a(F578.0
F207.0
tp3321
aa(F633.0
F156.0
tp3322
aaa(lp3323
(I0
F0.1799
tp3324
a(F510.0
F312.0
tp3325
a(lp3326
(I4
F0.3485
tp3327
a(F548.0
F281.0
tp3328
a(F424.0
F454.0
tp3329
aaaa(lp3330
(I3
F0.2616
tp3331
a(lp3332
(I3
F0.1535
tp3333
a(F765.0
F617.0
tp3334
a(lp3335
(I4
F1.2096
tp3336
a(F559.0
F486.0
tp3337
a(F313.0
F843.0
tp3338
aaa(F191.0
F1235.0
tp3339
aaaa(lp3340
(I5
F0.1272
tp3341
a(lp3342
(I5
F0.0588
tp3343
a(lp3344
(I5
F0.0085
tp3345
a(lp3346
(I0
F1.2553
tp3347
a(lp3348
(I1
F0.0154
tp3349
a(lp3350
(I7
F0.013
tp3351
a(lp3352
(I3
F-0.0084
tp3353
a(lp3354
(I7
F-0.03
tp3355
a(F895.0
F5.0
tp3356
a(lp3357
(I6
F0.079
tp3358
a(F778.0
F22.0
tp3359
a(F941.0
F5.0
tp3360
aaa(F1122.0
F40.0
tp3361
aa(lp3362
(I6
F0.2381
tp3363
a(F924.0
F29.0
tp3364
a(F818.0
F33.0
tp3365
aaa(F1017.0
F78.0
tp3366
aa(F767.0
F34.0
tp3367
aa(lp3368
(I7
F0.0902
tp3369
a(lp3370
(I3
F0.0843
tp3371
a(lp3372
(I1
F0.0403
tp3373
a(lp3374
(I4
F1.0246
tp3375
a(lp3376
(I5
F0.0366
tp3377
a(lp3378
(I7
F0.0263
tp3379
a(lp3380
(I4
F0.1979
tp3381
a(F781.0
F44.0
tp3382
a(F821.0
F27.0
tp3383
aa(F1135.0
F82.0
tp3384
aa(F778.0
F71.0
tp3385
aa(F1454.0
F42.0
tp3386
aa(lp3387
(I6
F0.0278
tp3388
a(F932.0
F107.0
tp3389
a(lp3390
(I2
F0.8124
tp3391
a(F765.0
F41.0
tp3392
a(F751.0
F68.0
tp3393
aaaa(F820.0
F156.0
tp3394
aa(F918.0
F151.0
tp3395
aaa(lp3396
(I1
F0.0876
tp3397
a(lp3398
(I2
F1.1746
tp3399
a(lp3400
(I6
F0.2088
tp3401
a(lp3402
(I3
F0.0691
tp3403
a(F1046.0
F106.0
tp3404
a(F694.0
F112.0
tp3405
aa(lp3406
(I3
F0.0672
tp3407
a(F760.0
F147.0
tp3408
a(F618.0
F157.0
tp3409
aaa(F785.0
F190.0
tp3410
aa(lp3411
(I6
F0.0186
tp3412
a(lp3413
(I1
F0.1132
tp3414
a(F812.0
F122.0
tp3415
a(F953.0
F272.0
tp3416
aa(lp3417
(I6
F1.0825
tp3418
a(lp3419
(I5
F0.1058
tp3420
a(F859.0
F232.0
tp3421
a(F519.0
F270.0
tp3422
aa(F683.0
F303.0
tp3423
aaaaa(lp3424
(I0
F0.4947
tp3425
a(lp3426
(I4
F0.0373
tp3427
a(lp3428
(I7
F0.1484
tp3429
a(F1084.0
F265.0
tp3430
a(F1139.0
F380.0
tp3431
aa(lp3432
(I1
F0.149
tp3433
a(F529.0
F306.0
tp3434
a(F593.0
F559.0
tp3435
aaa(lp3436
(I6
F1.4342
tp3437
a(lp3438
(I1
F0.1749
tp3439
a(F604.0
F510.0
tp3440
a(F436.0
F900.0
tp3441
aa(lp3442
(I6
F2.7509
tp3443
a(F295.0
F846.0
tp3444
a(F95.0
F827.0
tp3445
aaaaa(lp3446
(I3
F0.1218
tp3447
a(lp3448
(I6
F2.2351
tp3449
a(lp3450
(I0
F0.0177
tp3451
a(lp3452
(I0
F-0.4168
tp3453
a(F764.0
F42.0
tp3454
a(lp3455
(I3
F0.0663
tp3456
a(lp3457
(I5
F0.0444
tp3458
a(lp3459
(I7
F0.027
tp3460
a(lp3461
(I1
F-0.0281
tp3462
a(F792.0
F12.0
tp3463
a(lp3464
(I3
F0.0005
tp3465
a(F827.0
F23.0
tp3466
a(F965.0
F22.0
tp3467
aaa(lp3468
(I5
F0.0136
tp3469
a(F922.0
F35.0
tp3470
a(F858.0
F65.0
tp3471
aaa(F1286.0
F146.0
tp3472
aa(lp3473
(I3
F0.1039
tp3474
a(F1367.0
F220.0
tp3475
a(F683.0
F132.0
tp3476
aaaa(lp3477
(I7
F0.0806
tp3478
a(lp3479
(I4
F1.5149
tp3480
a(lp3481
(I1
F0.0607
tp3482
a(lp3483
(I7
F0.0242
tp3484
a(lp3485
(I6
F0.1346
tp3486
a(lp3487
(I5
F0.005
tp3488
a(F1113.0
F21.0
tp3489
a(F1026.0
F75.0
tp3490
aa(lp3491
(I3
F0.0037
tp3492
a(lp3493
(I7
F-0.0063
tp3494
a(F877.0
F2.0
tp3495
a(F785.0
F5.0
tp3496
aa(F1162.0
F34.0
tp3497
aaa(lp3498
(I3
F0.0335
tp3499
a(lp3500
(I6
F0.8327
tp3501
a(F864.0
F57.0
tp3502
a(F802.0
F26.0
tp3503
aa(F1441.0
F136.0
tp3504
aaa(lp3505
(I5
F0.0694
tp3506
a(F1103.0
F142.0
tp3507
a(F1087.0
F261.0
tp3508
aaa(lp3509
(I4
F1.77
tp3510
a(F708.0
F89.0
tp3511
a(F780.0
F79.0
tp3512
aaa(lp3513
(I5
F0.112
tp3514
a(lp3515
(I5
F0.0799
tp3516
a(F867.0
F171.0
tp3517
a(F900.0
F327.0
tp3518
aa(F501.0
F342.0
tp3519
aaaa(F564.0
F246.0
tp3520
aa(lp3521
(I4
F0.481
tp3522
a(lp3523
(I5
F0.1525
tp3524
a(lp3525
(I3
F0.1493
tp3526
a(F1172.0
F307.0
tp3527
a(lp3528
(I0
F0.0839
tp3529
a(F601.0
F168.0
tp3530
a(F597.0
F263.0
tp3531
aaa(lp3532
(I6
F0.0652
tp3533
a(lp3534
(I1
F0.1944
tp3535
a(F682.0
F209.0
tp3536
a(F700.0
F188.0
tp3537
aa(F438.0
F494.0
tp3538
aaa(lp3539
(I3
F0.2441
tp3540
a(lp3541
(I5
F0.1639
tp3542
a(lp3543
(I0
F1.1386
tp3544
a(F524.0
F355.0
tp3545
a(F459.0
F384.0
tp3546
aa(lp3547
(I0
F1.317
tp3548
a(F306.0
F522.0
tp3549
a(F206.0
F620.0
tp3550
aaa(F204.0
F1307.0
tp3551
aaaa(lp3552
(I1
F0.1249
tp3553
a(lp3554
(I6
F2.2147
tp3555
a(lp3556
(I5
F0.0606
tp3557
a(lp3558
(I3
F0.0237
tp3559
a(lp3560
(I4
F1.2548
tp3561
a(lp3562
(I5
F0.0146
tp3563
a(lp3564
(I4
F0.3849
tp3565
a(lp3566
(I7
F0.013
tp3567
a(lp3568
(I3
F-0.0172
tp3569
a(F1337.0
F17.0
tp3570
a(F1179.0
F46.0
tp3571
aa(lp3572
(I1
F-0.0215
tp3573
a(F788.0
F22.0
tp3574
a(F965.0
F62.0
tp3575
aaa(lp3576
(I7
F0.0042
tp3577
a(F1217.0
F5.0
tp3578
a(F796.0
F18.0
tp3579
aaa(lp3580
(I7
F0.0394
tp3581
a(F1331.0
F85.0
tp3582
a(F746.0
F81.0
tp3583
aaa(F1131.0
F17.0
tp3584
aa(lp3585
(I1
F0.0493
tp3586
a(lp3587
(I6
F0.245
tp3588
a(lp3589
(I1
F0.0304
tp3590
a(F758.0
F62.0
tp3591
a(F1121.0
F64.0
tp3592
aa(lp3593
(I1
F0.0364
tp3594
a(F1068.0
F82.0
tp3595
a(F767.0
F84.0
tp3596
aaa(lp3597
(I3
F0.0717
tp3598
a(lp3599
(I6
F0.3265
tp3600
a(F883.0
F79.0
tp3601
a(F704.0
F83.0
tp3602
aa(F858.0
F122.0
tp3603
aaaa(lp3604
(I7
F0.0964
tp3605
a(lp3606
(I5
F0.112
tp3607
a(lp3608
(I7
F0.0568
tp3609
a(lp3610
(I2
F0.5719
tp3611
a(F945.0
F101.0
tp3612
a(F693.0
F126.0
tp3613
aa(lp3614
(I3
F0.0792
tp3615
a(F1085.0
F196.0
tp3616
a(F1032.0
F265.0
tp3617
aaa(F866.0
F302.0
tp3618
aa(lp3619
(I6
F0.001
tp3620
a(F1119.0
F142.0
tp3621
a(lp3622
(I1
F0.1009
tp3623
a(F694.0
F322.0
tp3624
a(F561.0
F349.0
tp3625
aaaaa(F561.0
F189.0
tp3626
aa(lp3627
(I4
F0.4604
tp3628
a(lp3629
(I6
F0.0023
tp3630
a(lp3631
(I5
F0.1336
tp3632
a(F1049.0
F207.0
tp3633
a(lp3634
(I3
F0.1723
tp3635
a(F734.0
F192.0
tp3636
a(F947.0
F281.0
tp3637
aaa(lp3638
(I1
F0.1627
tp3639
a(F626.0
F279.0
tp3640
a(F660.0
F547.0
tp3641
aaa(lp3642
(I7
F0.1547
tp3643
a(lp3644
(I3
F0.1795
tp3645
a(F849.0
F613.0
tp3646
a(F284.0
F500.0
tp3647
aa(lp3648
(I6
F1.3323
tp3649
a(F259.0
F613.0
tp3650
a(lp3651
(I7
F0.2693
tp3652
a(F167.0
F641.0
tp3653
a(F48.0
F838.0
tp3654
aaaaaa(lp3655
(I3
F0.1218
tp3656
a(lp3657
(I3
F0.0663
tp3658
a(lp3659
(I7
F0.0556
tp3660
a(lp3661
(I1
F0.0311
tp3662
a(lp3663
(I6
F0.1319
tp3664
a(lp3665
(I0
F-0.0236
tp3666
a(F839.0
F54.0
tp3667
a(lp3668
(I5
F0.0164
tp3669
a(lp3670
(I7
F0.0037
tp3671
a(lp3672
(I5
F-0.0124
tp3673
a(F1166.0
F31.0
tp3674
a(F819.0
F11.0
tp3675
aa(F838.0
F35.0
tp3676
aa(F967.0
F80.0
tp3677
aaa(lp3678
(I3
F0.0079
tp3679
a(lp3680
(I7
F0.0168
tp3681
a(lp3682
(I4
F0.4365
tp3683
a(F780.0
F12.0
tp3684
a(F1483.0
F5.0
tp3685
aa(F875.0
F33.0
tp3686
aa(lp3687
(I4
F0.835
tp3688
a(F839.0
F51.0
tp3689
a(F892.0
F25.0
tp3690
aaaa(lp3691
(I6
F1.0267
tp3692
a(lp3693
(I1
F0.058
tp3694
a(lp3695
(I7
F0.0291
tp3696
a(F1127.0
F68.0
tp3697
a(F892.0
F88.0
tp3698
aa(F727.0
F90.0
tp3699
aa(F800.0
F36.0
tp3700
aaa(lp3701
(I4
F0.1121
tp3702
a(lp3703
(I5
F0.0272
tp3704
a(F895.0
F49.0
tp3705
a(F1228.0
F123.0
tp3706
aa(lp3707
(I1
F0.0551
tp3708
a(F1314.0
F219.0
tp3709
a(F621.0
F196.0
tp3710
aaaa(lp3711
(I7
F0.0963
tp3712
a(lp3713
(I1
F0.0846
tp3714
a(lp3715
(I4
F0.2147
tp3716
a(F824.0
F81.0
tp3717
a(F1138.0
F210.0
tp3718
aa(lp3719
(I7
F0.077
tp3720
a(lp3721
(I1
F0.1038
tp3722
a(F691.0
F140.0
tp3723
a(F679.0
F150.0
tp3724
aa(F633.0
F166.0
tp3725
aaa(lp3726
(I7
F0.1149
tp3727
a(F767.0
F234.0
tp3728
a(lp3729
(I2
F0.0009
tp3730
a(F643.0
F147.0
tp3731
a(F593.0
F387.0
tp3732
aaaaa(lp3733
(I4
F0.4441
tp3734
a(lp3735
(I4
F0.0807
tp3736
a(lp3737
(I6
F0.0042
tp3738
a(lp3739
(I1
F0.1768
tp3740
a(lp3741
(I3
F0.1544
tp3742
a(F923.0
F200.0
tp3743
a(F673.0
F117.0
tp3744
aa(F992.0
F265.0
tp3745
aa(F667.0
F365.0
tp3746
aa(lp3747
(I6
F0.1902
tp3748
a(F542.0
F274.0
tp3749
a(F400.0
F370.0
tp3750
aaa(lp3751
(I1
F0.2074
tp3752
a(lp3753
(I7
F0.1267
tp3754
a(F846.0
F510.0
tp3755
a(F515.0
F910.0
tp3756
aa(lp3757
(I1
F0.2906
tp3758
a(F255.0
F771.0
tp3759
a(F93.0
F981.0
tp3760
aaaaa(lp3761
(I0
F2.3056
tp3762
a(lp3763
(I3
F0.1218
tp3764
a(lp3765
(I0
F0.0
tp3766
a(lp3767
(I1
F0.0421
tp3768
a(lp3769
(I6
F0.0787
tp3770
a(lp3771
(I0
F-0.0238
tp3772
a(F1175.0
F66.0
tp3773
a(lp3774
(I7
F0.0277
tp3775
a(F1465.0
F30.0
tp3776
a(F902.0
F38.0
tp3777
aaa(lp3778
(I3
F-0.0111
tp3779
a(F826.0
F29.0
tp3780
a(F808.0
F87.0
tp3781
aaa(lp3782
(I3
F0.0891
tp3783
a(lp3784
(I3
F0.0553
tp3785
a(F772.0
F81.0
tp3786
a(F1265.0
F163.0
tp3787
aa(F1197.0
F233.0
tp3788
aaa(lp3789
(I5
F0.0791
tp3790
a(lp3791
(I5
F0.0273
tp3792
a(lp3793
(I3
F0.0253
tp3794
a(lp3795
(I7
F0.0215
tp3796
a(lp3797
(I7
F-0.016
tp3798
a(F1440.0
F11.0
tp3799
a(lp3800
(I5
F0.0081
tp3801
a(lp3802
(I2
F0.658
tp3803
a(F843.0
F14.0
tp3804
a(F790.0
F7.0
tp3805
aa(F788.0
F33.0
tp3806
aaa(F1337.0
F60.0
tp3807
aa(F1158.0
F91.0
tp3808
aa(lp3809
(I1
F0.0553
tp3810
a(lp3811
(I2
F1.2504
tp3812
a(lp3813
(I5
F0.05
tp3814
a(lp3815
(I6
F0.6502
tp3816
a(F948.0
F70.0
tp3817
a(F707.0
F68.0
tp3818
aa(F798.0
F102.0
tp3819
aa(F744.0
F60.0
tp3820
aa(lp3821
(I6
F0.6441
tp3822
a(F1112.0
F125.0
tp3823
a(F950.0
F178.0
tp3824
aaaa(lp3825
(I1
F0.1145
tp3826
a(lp3827
(I4
F1.2215
tp3828
a(lp3829
(I6
F0.2246
tp3830
a(F734.0
F196.0
tp3831
a(F765.0
F302.0
tp3832
aa(F718.0
F270.0
tp3833
aa(F520.0
F295.0
tp3834
aaaa(lp3835
(I4
F0.2699
tp3836
a(lp3837
(I2
F0.0245
tp3838
a(lp3839
(I1
F0.1376
tp3840
a(F676.0
F133.0
tp3841
a(F1808.0
F524.0
tp3842
aa(lp3843
(I5
F0.1315
tp3844
a(F757.0
F194.0
tp3845
a(F446.0
F341.0
tp3846
aaa(lp3847
(I3
F0.2378
tp3848
a(lp3849
(I5
F0.1497
tp3850
a(F909.0
F548.0
tp3851
a(lp3852
(I4
F1.1077
tp3853
a(F509.0
F560.0
tp3854
a(F274.0
F561.0
tp3855
aaa(F190.0
F686.0
tp3856
aaaa(lp3857
(I0
F2.9105
tp3858
a(F432.0
F382.0
tp3859
a(F258.0
F901.0
tp3860
aaa(lp3861
(I6
F2.2756
tp3862
a(lp3863
(I1
F0.1213
tp3864
a(lp3865
(I7
F0.0563
tp3866
a(lp3867
(I7
F0.013
tp3868
a(lp3869
(I3
F0.0729
tp3870
a(lp3871
(I4
F0.8079
tp3872
a(lp3873
(I6
F0.2403
tp3874
a(lp3875
(I5
F0.0165
tp3876
a(lp3877
(I7
F-0.005
tp3878
a(lp3879
(I0
F0.098
tp3880
a(F1251.0
F20.0
tp3881
a(F817.0
F17.0
tp3882
aa(F776.0
F23.0
tp3883
aa(F1025.0
F76.0
tp3884
aa(F1329.0
F25.0
tp3885
aa(lp3886
(I5
F0.0103
tp3887
a(F1194.0
F5.0
tp3888
a(F745.0
F24.0
tp3889
aaa(F655.0
F131.0
tp3890
aa(lp3891
(I6
F0.9664
tp3892
a(lp3893
(I1
F0.0613
tp3894
a(lp3895
(I7
F0.0255
tp3896
a(F1441.0
F85.0
tp3897
a(lp3898
(I2
F0.4995
tp3899
a(lp3900
(I6
F0.0004
tp3901
a(F827.0
F81.0
tp3902
a(F913.0
F44.0
tp3903
aa(F777.0
F89.0
tp3904
aaa(F1305.0
F205.0
tp3905
aa(lp3906
(I2
F1.1284
tp3907
a(F1201.0
F47.0
tp3908
a(F809.0
F51.0
tp3909
aaaa(lp3910
(I6
F0.0059
tp3911
a(lp3912
(I5
F0.0824
tp3913
a(lp3914
(I3
F0.03
tp3915
a(F789.0
F30.0
tp3916
a(F1018.0
F90.0
tp3917
aa(F1203.0
F222.0
tp3918
aa(lp3919
(I7
F0.1088
tp3920
a(lp3921
(I3
F0.0694
tp3922
a(lp3923
(I4
F0.5503
tp3924
a(F886.0
F106.0
tp3925
a(F893.0
F153.0
tp3926
aa(lp3927
(I3
F0.0883
tp3928
a(F661.0
F160.0
tp3929
a(F862.0
F270.0
tp3930
aaa(lp3931
(I3
F0.0744
tp3932
a(F630.0
F197.0
tp3933
a(F581.0
F359.0
tp3934
aaaaa(lp3935
(I1
F0.2157
tp3936
a(lp3937
(I4
F0.2731
tp3938
a(lp3939
(I4
F0.0423
tp3940
a(lp3941
(I7
F0.0666
tp3942
a(F701.0
F136.0
tp3943
a(lp3944
(I7
F0.135
tp3945
a(F720.0
F211.0
tp3946
a(F856.0
F275.0
tp3947
aaa(F581.0
F269.0
tp3948
aa(lp3949
(I7
F0.1285
tp3950
a(F1014.0
F576.0
tp3951
a(F621.0
F871.0
tp3952
aaa(lp3953
(I4
F0.002
tp3954
a(F685.0
F222.0
tp3955
a(lp3956
(I3
F0.2694
tp3957
a(F300.0
F490.0
tp3958
a(F124.0
F712.0
tp3959
aaaaa(lp3960
(I7
F0.1591
tp3961
a(F567.0
F233.0
tp3962
a(F141.0
F1057.0
tp3963
aaa(lp3964
(I4
F2.6198
tp3965
a(lp3966
(I5
F0.1176
tp3967
a(lp3968
(I2
F1.8679
tp3969
a(lp3970
(I6
F1.8522
tp3971
a(lp3972
(I5
F0.0588
tp3973
a(lp3974
(I1
F0.0608
tp3975
a(lp3976
(I7
F0.0263
tp3977
a(lp3978
(I4
F0.3605
tp3979
a(lp3980
(I1
F-0.0314
tp3981
a(F1129.0
F27.0
tp3982
a(lp3983
(I6
F0.1542
tp3984
a(lp3985
(I2
F0.0228
tp3986
a(F1477.0
F87.0
tp3987
a(F1052.0
F52.0
tp3988
aa(F801.0
F25.0
tp3989
aaa(lp3990
(I1
F0.0174
tp3991
a(lp3992
(I4
F1.0246
tp3993
a(F1550.0
F21.0
tp3994
a(F1087.0
F8.0
tp3995
aa(F980.0
F34.0
tp3996
aaa(lp3997
(I1
F-0.002
tp3998
a(F1413.0
F49.0
tp3999
a(lp4000
(I0
F0.8595
tp4001
a(lp4002
(I5
F0.0354
tp4003
a(lp4004
(I6
F0.0548
tp4005
a(F736.0
F66.0
tp4006
a(F944.0
F102.0
tp4007
aa(F1354.0
F95.0
tp4008
aa(F933.0
F46.0
tp4009
aaaa(lp4010
(I0
F0.4003
tp4011
a(F909.0
F118.0
tp4012
a(F693.0
F128.0
tp4013
aaa(lp4014
(I1
F0.088
tp4015
a(lp4016
(I6
F0.0052
tp4017
a(lp4018
(I3
F0.066
tp4019
a(F795.0
F64.0
tp4020
a(F700.0
F94.0
tp4021
aa(lp4022
(I5
F0.0752
tp4023
a(F987.0
F169.0
tp4024
a(F856.0
F199.0
tp4025
aaa(lp4026
(I0
F0.0796
tp4027
a(F1300.0
F269.0
tp4028
a(lp4029
(I0
F0.76
tp4030
a(F739.0
F311.0
tp4031
a(F726.0
F207.0
tp4032
aaaaa(F857.0
F151.0
tp4033
aa(F1141.0
F238.0
tp4034
aa(lp4035
(I2
F0.1154
tp4036
a(lp4037
(I7
F0.1504
tp4038
a(lp4039
(I7
F0.0841
tp4040
a(F639.0
F149.0
tp4041
a(F1078.0
F338.0
tp4042
aa(F1285.0
F517.0
tp4043
aa(lp4044
(I1
F0.2489
tp4045
a(lp4046
(I7
F0.1274
tp4047
a(lp4048
(I2
F0.6419
tp4049
a(F532.0
F281.0
tp4050
a(F684.0
F455.0
tp4051
aa(lp4052
(I5
F0.1736
tp4053
a(F573.0
F608.0
tp4054
a(F389.0
F739.0
tp4055
aaa(F168.0
F705.0
tp4056
aaaa(lp4057
(I1
F0.2358
tp4058
a(F395.0
F428.0
tp4059
a(F60.0
F718.0
tp4060
aaa(lp4061
(I3
F0.122
tp4062
a(lp4063
(I7
F0.0669
tp4064
a(lp4065
(I6
F0.5275
tp4066
a(lp4067
(I5
F0.0567
tp4068
a(lp4069
(I3
F0.008
tp4070
a(lp4071
(I5
F0.008
tp4072
a(lp4073
(I2
F0.1733
tp4074
a(F2046.0
F56.0
tp4075
a(F1168.0
F12.0
tp4076
aa(F854.0
F41.0
tp4077
aa(lp4078
(I3
F0.0651
tp4079
a(lp4080
(I7
F0.0333
tp4081
a(lp4082
(I1
F0.0352
tp4083
a(lp4084
(I3
F0.0201
tp4085
a(F764.0
F47.0
tp4086
a(F970.0
F39.0
tp4087
aa(F871.0
F74.0
tp4088
aa(F905.0
F96.0
tp4089
aa(F714.0
F102.0
tp4090
aaa(lp4091
(I5
F0.0973
tp4092
a(lp4093
(I3
F0.0687
tp4094
a(F812.0
F86.0
tp4095
a(F722.0
F128.0
tp4096
aa(F748.0
F201.0
tp4097
aaa(lp4098
(I3
F0.0539
tp4099
a(lp4100
(I3
F0.03
tp4101
a(lp4102
(I7
F0.0183
tp4103
a(lp4104
(I0
F1.0007
tp4105
a(F1239.0
F5.0
tp4106
a(F801.0
F13.0
tp4107
aa(lp4108
(I4
F0.832
tp4109
a(F814.0
F41.0
tp4110
a(F786.0
F21.0
tp4111
aaa(F1254.0
F74.0
tp4112
aa(F930.0
F161.0
tp4113
aaa(lp4114
(I6
F0.001
tp4115
a(lp4116
(I3
F0.0606
tp4117
a(F1242.0
F85.0
tp4118
a(F1340.0
F199.0
tp4119
aa(lp4120
(I7
F0.1149
tp4121
a(lp4122
(I7
F0.0794
tp4123
a(F997.0
F165.0
tp4124
a(lp4125
(I3
F0.0726
tp4126
a(F829.0
F156.0
tp4127
a(F958.0
F327.0
tp4128
aaa(lp4129
(I4
F0.638
tp4130
a(F739.0
F264.0
tp4131
a(F397.0
F409.0
tp4132
aaaaa(lp4133
(I4
F0.5413
tp4134
a(lp4135
(I1
F0.2209
tp4136
a(lp4137
(I4
F0.0621
tp4138
a(lp4139
(I3
F0.1494
tp4140
a(F1091.0
F227.0
tp4141
a(lp4142
(I3
F0.1798
tp4143
a(F781.0
F281.0
tp4144
a(F656.0
F174.0
tp4145
aaa(lp4146
(I6
F0.2382
tp4147
a(F577.0
F270.0
tp4148
a(F465.0
F328.0
tp4149
aaa(F766.0
F478.0
tp4150
aa(lp4151
(I1
F0.1986
tp4152
a(lp4153
(I7
F0.1226
tp4154
a(F733.0
F429.0
tp4155
a(F461.0
F849.0
tp4156
aa(lp4157
(I5
F0.2696
tp4158
a(F278.0
F698.0
tp4159
a(F103.0
F1113.0
tp4160
aaaaa(lp4161
(I7
F0.1413
tp4162
a(lp4163
(I5
F0.1086
tp4164
a(lp4165
(I3
F0.0672
tp4166
a(lp4167
(I5
F0.0145
tp4168
a(lp4169
(I1
F0.0254
tp4170
a(lp4171
(I1
F-0.0015
tp4172
a(lp4173
(I7
F0.013
tp4174
a(lp4175
(I0
F0.4813
tp4176
a(lp4177
(I7
F-0.0265
tp4178
a(F826.0
F13.0
tp4179
a(F1340.0
F14.0
tp4180
aa(F1.274
F1.0
tp4181
aa(F1324.0
F41.0
tp4182
aa(lp4183
(I2
F0.4388
tp4184
a(F1193.0
F47.0
tp4185
a(F968.0
F24.0
tp4186
aaa(F741.0
F66.0
tp4187
aa(lp4188
(I7
F0.0565
tp4189
a(lp4190
(I2
F0.0641
tp4191
a(F1855.0
F153.0
tp4192
a(lp4193
(I3
F0.0236
tp4194
a(F1402.0
F58.0
tp4195
a(lp4196
(I2
F0.5193
tp4197
a(F817.0
F39.0
tp4198
a(lp4199
(I4
F1.0878
tp4200
a(F908.0
F86.0
tp4201
a(F990.0
F67.0
tp4202
aaaaa(lp4203
(I0
F0.2963
tp4204
a(F1238.0
F91.0
tp4205
a(F1061.0
F192.0
tp4206
aaaa(lp4207
(I2
F0.0069
tp4208
a(lp4209
(I1
F0.1007
tp4210
a(F906.0
F157.0
tp4211
a(F752.0
F111.0
tp4212
aa(lp4213
(I5
F0.0848
tp4214
a(lp4215
(I1
F0.1
tp4216
a(lp4217
(I0
F0.9502
tp4218
a(F931.0
F201.0
tp4219
a(F698.0
F97.0
tp4220
aa(F830.0
F234.0
tp4221
aa(lp4222
(I0
F0.842
tp4223
a(F637.0
F202.0
tp4224
a(F638.0
F164.0
tp4225
aaaaa(lp4226
(I0
F0.6958
tp4227
a(lp4228
(I0
F0.0106
tp4229
a(lp4230
(I1
F0.1375
tp4231
a(F1068.0
F239.0
tp4232
a(F591.0
F199.0
tp4233
aa(lp4234
(I6
F0.1326
tp4235
a(F606.0
F208.0
tp4236
a(F523.0
F291.0
tp4237
aaa(lp4238
(I4
F1.5273
tp4239
a(F697.0
F504.0
tp4240
a(F472.0
F546.0
tp4241
aaaa(lp4242
(I0
F0.1663
tp4243
a(lp4244
(I3
F0.0757
tp4245
a(F759.0
F79.0
tp4246
a(lp4247
(I1
F0.1495
tp4248
a(F622.0
F179.0
tp4249
a(F1114.0
F465.0
tp4250
aaa(lp4251
(I3
F0.2333
tp4252
a(lp4253
(I5
F0.1634
tp4254
a(F587.0
F502.0
tp4255
a(F437.0
F1034.0
tp4256
aa(F156.0
F1195.0
tp4257
aaaa(lp4258
(I3
F0.1219
tp4259
a(lp4260
(I7
F0.0645
tp4261
a(lp4262
(I7
F0.013
tp4263
a(lp4264
(I5
F0.0592
tp4265
a(lp4266
(I3
F0.033
tp4267
a(lp4268
(I6
F0.4439
tp4269
a(lp4270
(I7
F-0.0324
tp4271
a(F1043.0
F47.0
tp4272
a(lp4273
(I5
F0.0089
tp4274
a(lp4275
(I7
F-0.0093
tp4276
a(F1129.0
F22.0
tp4277
a(F915.0
F12.0
tp4278
aa(F853.0
F36.0
tp4279
aaa(lp4280
(I1
F-0.0149
tp4281
a(F784.0
F2.0
tp4282
a(F1112.0
F15.0
tp4283
aaa(F1070.0
F85.0
tp4284
aa(F726.0
F136.0
tp4285
aa(lp4286
(I5
F0.0649
tp4287
a(lp4288
(I3
F0.0539
tp4289
a(lp4290
(I5
F0.0131
tp4291
a(lp4292
(I6
F0.5115
tp4293
a(F1070.0
F50.0
tp4294
a(F814.0
F20.0
tp4295
aa(lp4296
(I1
F0.0166
tp4297
a(F911.0
F38.0
tp4298
a(lp4299
(I3
F0.0249
tp4300
a(F753.0
F42.0
tp4301
a(lp4302
(I5
F0.0361
tp4303
a(F890.0
F82.0
tp4304
a(F1235.0
F79.0
tp4305
aaaaa(F1155.0
F141.0
tp4306
aa(lp4307
(I2
F0.2666
tp4308
a(F768.0
F120.0
tp4309
a(F808.0
F183.0
tp4310
aaaa(lp4311
(I5
F0.0847
tp4312
a(lp4313
(I0
F0.0613
tp4314
a(lp4315
(I6
F0.0824
tp4316
a(F1315.0
F80.0
tp4317
a(F759.0
F94.0
tp4318
aa(lp4319
(I6
F0.6589
tp4320
a(F753.0
F118.0
tp4321
a(F1157.0
F262.0
tp4322
aaa(lp4323
(I5
F0.1306
tp4324
a(lp4325
(I6
F0.3423
tp4326
a(F1259.0
F225.0
tp4327
a(lp4328
(I4
F1.0598
tp4329
a(F528.0
F269.0
tp4330
a(F581.0
F253.0
tp4331
aaa(F534.0
F380.0
tp4332
aaaa(lp4333
(I7
F0.216
tp4334
a(lp4335
(I1
F0.1457
tp4336
a(lp4337
(I4
F0.2281
tp4338
a(F1296.0
F336.0
tp4339
a(F824.0
F499.0
tp4340
aa(lp4341
(I0
F0.5288
tp4342
a(lp4343
(I4
F0.0446
tp4344
a(lp4345
(I7
F0.1389
tp4346
a(F657.0
F152.0
tp4347
a(F572.0
F208.0
tp4348
aa(F650.0
F474.0
tp4349
aa(lp4350
(I5
F0.1416
tp4351
a(F506.0
F286.0
tp4352
a(lp4353
(I4
F1.261
tp4354
a(F336.0
F475.0
tp4355
a(F279.0
F741.0
tp4356
aaaaa(lp4357
(I2
F0.1884
tp4358
a(F593.0
F250.0
tp4359
a(lp4360
(I4
F1.9662
tp4361
a(F134.0
F632.0
tp4362
a(F60.0
F787.0
tp4363
aaaaa(lp4364
(I0
F2.3083
tp4365
a(lp4366
(I7
F0.0978
tp4367
a(lp4368
(I3
F0.0769
tp4369
a(lp4370
(I1
F0.0592
tp4371
a(lp4372
(I5
F0.0595
tp4373
a(lp4374
(I4
F1.0348
tp4375
a(lp4376
(I3
F0.0163
tp4377
a(lp4378
(I2
F0.0001
tp4379
a(lp4380
(I3
F-0.0211
tp4381
a(F1452.0
F38.0
tp4382
a(F1477.0
F79.0
tp4383
aa(lp4384
(I2
F0.7518
tp4385
a(lp4386
(I4
F0.3744
tp4387
a(F1332.0
F49.0
tp4388
a(F1047.0
F20.0
tp4389
aa(F924.0
F14.0
tp4390
aaa(lp4391
(I5
F0.0164
tp4392
a(F978.0
F47.0
tp4393
a(lp4394
(I5
F0.0347
tp4395
a(F1256.0
F110.0
tp4396
a(lp4397
(I6
F0.152
tp4398
a(F752.0
F47.0
tp4399
a(F704.0
F48.0
tp4400
aaaaa(lp4401
(I4
F1.5149
tp4402
a(lp4403
(I2
F1.143
tp4404
a(F1017.0
F6.0
tp4405
a(F876.0
F23.0
tp4406
aa(F1056.0
F53.0
tp4407
aaa(F1287.0
F167.0
tp4408
aa(lp4409
(I7
F0.0645
tp4410
a(F1337.0
F185.0
tp4411
a(F680.0
F144.0
tp4412
aaa(lp4413
(I0
F0.4801
tp4414
a(lp4415
(I5
F0.0972
tp4416
a(lp4417
(I5
F0.0623
tp4418
a(F710.0
F94.0
tp4419
a(F932.0
F159.0
tp4420
aa(lp4421
(I1
F0.1289
tp4422
a(F612.0
F170.0
tp4423
a(F656.0
F168.0
tp4424
aaa(lp4425
(I4
F0.3713
tp4426
a(F624.0
F172.0
tp4427
a(lp4428
(I3
F0.1254
tp4429
a(F976.0
F299.0
tp4430
a(F479.0
F330.0
tp4431
aaaaa(lp4432
(I4
F0.1022
tp4433
a(lp4434
(I3
F0.0811
tp4435
a(F1460.0
F115.0
tp4436
a(F2754.0
F863.0
tp4437
aa(lp4438
(I1
F0.1249
tp4439
a(lp4440
(I3
F0.076
tp4441
a(F622.0
F204.0
tp4442
a(F800.0
F489.0
tp4443
aa(lp4444
(I3
F0.2336
tp4445
a(lp4446
(I0
F0.5173
tp4447
a(F498.0
F492.0
tp4448
a(lp4449
(I6
F1.2669
tp4450
a(F409.0
F487.0
tp4451
a(F273.0
F566.0
tp4452
aaa(F140.0
F678.0
tp4453
aaaaa(lp4454
(I5
F0.1644
tp4455
a(F553.0
F279.0
tp4456
a(F135.0
F1057.0
tp4457
aaa(lp4458
(I5
F0.1271
tp4459
a(lp4460
(I1
F0.0614
tp4461
a(lp4462
(I0
F1.0013
tp4463
a(lp4464
(I3
F0.0275
tp4465
a(lp4466
(I5
F0.0487
tp4467
a(lp4468
(I3
F0.0078
tp4469
a(lp4470
(I5
F0.0093
tp4471
a(lp4472
(I0
F0.0004
tp4473
a(lp4474
(I6
F0.1125
tp4475
a(lp4476
(I1
F-0.0281
tp4477
a(F855.0
F13.0
tp4478
a(F832.0
F21.0
tp4479
aa(F748.0
F25.0
tp4480
aa(lp4481
(I5
F-0.0108
tp4482
a(F1313.0
F11.0
tp4483
a(F908.0
F14.0
tp4484
aaa(F1237.0
F56.0
tp4485
aa(lp4486
(I2
F0.0555
tp4487
a(F951.0
F64.0
tp4488
a(F1239.0
F49.0
tp4489
aaa(F749.0
F80.0
tp4490
aa(lp4491
(I7
F0.0565
tp4492
a(lp4493
(I7
F0.0268
tp4494
a(F1399.0
F73.0
tp4495
a(F1281.0
F144.0
tp4496
aa(F1266.0
F228.0
tp4497
aaa(lp4498
(I5
F0.0488
tp4499
a(lp4500
(I0
F1.3461
tp4501
a(F1431.0
F19.0
tp4502
a(F1372.0
F42.0
tp4503
aa(F688.0
F75.0
tp4504
aaa(lp4505
(I2
F0.0072
tp4506
a(lp4507
(I6
F0.0055
tp4508
a(lp4509
(I3
F0.1094
tp4510
a(F1251.0
F143.0
tp4511
a(F808.0
F150.0
tp4512
aa(F718.0
F179.0
tp4513
aa(lp4514
(I1
F0.0914
tp4515
a(lp4516
(I7
F0.0832
tp4517
a(lp4518
(I1
F0.0713
tp4519
a(F703.0
F128.0
tp4520
a(F1023.0
F159.0
tp4521
aa(F602.0
F191.0
tp4522
aa(lp4523
(I0
F1.6388
tp4524
a(lp4525
(I6
F0.359
tp4526
a(lp4527
(I5
F0.0859
tp4528
a(F668.0
F151.0
tp4529
a(F625.0
F236.0
tp4530
aa(F978.0
F401.0
tp4531
aa(F540.0
F275.0
tp4532
aaaaa(lp4533
(I4
F0.4527
tp4534
a(lp4535
(I4
F0.0535
tp4536
a(lp4537
(I3
F0.1507
tp4538
a(F949.0
F214.0
tp4539
a(lp4540
(I7
F0.1777
tp4541
a(F675.0
F251.0
tp4542
a(F709.0
F226.0
tp4543
aaa(F827.0
F599.0
tp4544
aa(lp4545
(I3
F0.2609
tp4546
a(lp4547
(I1
F0.1748
tp4548
a(lp4549
(I6
F0.9436
tp4550
a(F547.0
F451.0
tp4551
a(F417.0
F648.0
tp4552
aa(F470.0
F1095.0
tp4553
aa(F137.0
F1133.0
tp4554
aaaa(lp4555
(I4
F2.4472
tp4556
a(lp4557
(I7
F0.0978
tp4558
a(lp4559
(I3
F0.0694
tp4560
a(lp4561
(I5
F0.0588
tp4562
a(lp4563
(I7
F0.0101
tp4564
a(lp4565
(I3
F0.0196
tp4566
a(lp4567
(I6
F0.3845
tp4568
a(lp4569
(I5
F0.004
tp4570
a(lp4571
(I3
F-0.0113
tp4572
a(F1634.0
F18.0
tp4573
a(F766.0
F21.0
tp4574
aa(F897.0
F31.0
tp4575
aa(lp4576
(I2
F0.7455
tp4577
a(F912.0
F2.0
tp4578
a(F783.0
F8.0
tp4579
aaa(F1217.0
F60.0
tp4580
aa(lp4581
(I1
F0.0103
tp4582
a(lp4583
(I3
F-0.0256
tp4584
a(F796.0
F52.0
tp4585
a(lp4586
(I4
F0.2373
tp4587
a(F771.0
F34.0
tp4588
a(F812.0
F16.0
tp4589
aaa(lp4590
(I4
F0.7491
tp4591
a(lp4592
(I5
F0.022
tp4593
a(F923.0
F62.0
tp4594
a(lp4595
(I6
F0.1589
tp4596
a(F1009.0
F85.0
tp4597
a(F967.0
F104.0
tp4598
aaa(lp4599
(I2
F1.1017
tp4600
a(F878.0
F32.0
tp4601
a(F999.0
F74.0
tp4602
aaaaa(lp4603
(I0
F0.1383
tp4604
a(F836.0
F73.0
tp4605
a(F1256.0
F224.0
tp4606
aaa(lp4607
(I4
F0.2058
tp4608
a(lp4609
(I4
F-0.0086
tp4610
a(F649.0
F181.0
tp4611
a(lp4612
(I1
F0.1467
tp4613
a(lp4614
(I3
F0.1132
tp4615
a(F1117.0
F136.0
tp4616
a(F661.0
F129.0
tp4617
aa(F635.0
F177.0
tp4618
aaa(lp4619
(I6
F0.0873
tp4620
a(F959.0
F496.0
tp4621
a(lp4622
(I5
F0.1003
tp4623
a(lp4624
(I1
F0.0846
tp4625
a(F692.0
F134.0
tp4626
a(F597.0
F155.0
tp4627
aa(F539.0
F260.0
tp4628
aaaaa(lp4629
(I4
F0.0514
tp4630
a(lp4631
(I6
F0.0008
tp4632
a(lp4633
(I5
F0.1169
tp4634
a(F1369.0
F91.0
tp4635
a(lp4636
(I3
F0.1508
tp4637
a(F671.0
F129.0
tp4638
a(F952.0
F203.0
tp4639
aaa(F965.0
F398.0
tp4640
aa(lp4641
(I5
F0.1306
tp4642
a(lp4643
(I3
F0.093
tp4644
a(F774.0
F285.0
tp4645
a(F761.0
F434.0
tp4646
aa(lp4647
(I7
F0.2327
tp4648
a(lp4649
(I5
F0.1825
tp4650
a(lp4651
(I3
F0.1502
tp4652
a(F369.0
F433.0
tp4653
a(F457.0
F480.0
tp4654
aa(F387.0
F596.0
tp4655
aa(F141.0
F757.0
tp4656
aaaaa(lp4657
(I1
F0.1815
tp4658
a(F508.0
F280.0
tp4659
a(F116.0
F1035.0
tp4660
aaa(lp4661
(I6
F2.9558
tp4662
a(lp4663
(I5
F0.117
tp4664
a(lp4665
(I3
F0.0672
tp4666
a(lp4667
(I7
F0.0398
tp4668
a(lp4669
(I5
F0.0048
tp4670
a(lp4671
(I3
F0.0086
tp4672
a(lp4673
(I6
F0.3509
tp4674
a(lp4675
(I2
F0.1733
tp4676
a(F1818.0
F57.0
tp4677
a(F956.0
F12.0
tp4678
aa(lp4679
(I5
F-0.014
tp4680
a(F940.0
F3.0
tp4681
a(F770.0
F6.0
tp4682
aaa(F819.0
F31.0
tp4683
aa(lp4684
(I6
F0.0405
tp4685
a(lp4686
(I0
F0.2781
tp4687
a(lp4688
(I5
F0.0275
tp4689
a(F743.0
F47.0
tp4690
a(F856.0
F39.0
tp4691
aa(F937.0
F79.0
tp4692
aa(lp4693
(I3
F0.0334
tp4694
a(lp4695
(I2
F0.7246
tp4696
a(F1229.0
F24.0
tp4697
a(F1031.0
F31.0
tp4698
aa(F901.0
F54.0
tp4699
aaaa(lp4700
(I1
F0.0539
tp4701
a(lp4702
(I0
F0.0708
tp4703
a(lp4704
(I5
F0.0207
tp4705
a(F1092.0
F44.0
tp4706
a(F1225.0
F108.0
tp4707
aa(lp4708
(I7
F0.0674
tp4709
a(F1341.0
F106.0
tp4710
a(F770.0
F128.0
tp4711
aaa(lp4712
(I4
F0.4461
tp4713
a(F694.0
F85.0
tp4714
a(F651.0
F135.0
tp4715
aaaa(lp4716
(I2
F0.0239
tp4717
a(lp4718
(I3
F0.0931
tp4719
a(F910.0
F136.0
tp4720
a(F1295.0
F240.0
tp4721
aa(lp4722
(I5
F0.0852
tp4723
a(lp4724
(I0
F0.2798
tp4725
a(F699.0
F126.0
tp4726
a(lp4727
(I2
F1.5093
tp4728
a(F1237.0
F249.0
tp4729
a(F612.0
F180.0
tp4730
aaa(lp4731
(I2
F1.0013
tp4732
a(F1005.0
F348.0
tp4733
a(F659.0
F292.0
tp4734
aaaaa(lp4735
(I2
F0.0303
tp4736
a(lp4737
(I5
F0.1979
tp4738
a(lp4739
(I3
F0.1507
tp4740
a(lp4741
(I7
F0.1208
tp4742
a(F679.0
F142.0
tp4743
a(F606.0
F167.0
tp4744
aa(F743.0
F249.0
tp4745
aa(F655.0
F267.0
tp4746
aa(lp4747
(I1
F0.2342
tp4748
a(lp4749
(I6
F0.9458
tp4750
a(lp4751
(I1
F0.1458
tp4752
a(F918.0
F461.0
tp4753
a(lp4754
(I2
F0.5215
tp4755
a(F516.0
F371.0
tp4756
a(F412.0
F432.0
tp4757
aaa(lp4758
(I4
F1.4406
tp4759
a(F319.0
F495.0
tp4760
a(F378.0
F469.0
tp4761
aaa(F266.0
F1030.0
tp4762
aaaa(F196.0
F939.0
tp4763
aa(lp4764
(I1
F0.1136
tp4765
a(lp4766
(I1
F0.0533
tp4767
a(lp4768
(I3
F0.0334
tp4769
a(lp4770
(I5
F0.0625
tp4771
a(lp4772
(I7
F0.0277
tp4773
a(lp4774
(I2
F0.7785
tp4775
a(lp4776
(I4
F0.4822
tp4777
a(lp4778
(I0
F0.0729
tp4779
a(lp4780
(I1
F-0.015
tp4781
a(F1291.0
F28.0
tp4782
a(F1359.0
F44.0
tp4783
aa(F1395.0
F64.0
tp4784
aa(F1272.0
F17.0
tp4785
aa(lp4786
(I0
F1.0502
tp4787
a(F871.0
F2.0
tp4788
a(F1357.0
F24.0
tp4789
aaa(lp4790
(I4
F0.0605
tp4791
a(lp4792
(I5
F0.0134
tp4793
a(F1055.0
F37.0
tp4794
a(F766.0
F54.0
tp4795
aa(lp4796
(I0
F0.6318
tp4797
a(F1023.0
F106.0
tp4798
a(F805.0
F36.0
tp4799
aaaa(F693.0
F149.0
tp4800
aa(lp4801
(I5
F0.0541
tp4802
a(lp4803
(I2
F0.1079
tp4804
a(F866.0
F109.0
tp4805
a(lp4806
(I7
F0.036
tp4807
a(F916.0
F49.0
tp4808
a(F825.0
F75.0
tp4809
aaa(F841.0
F183.0
tp4810
aaa(lp4811
(I0
F0.0281
tp4812
a(lp4813
(I5
F0.0933
tp4814
a(lp4815
(I5
F0.0681
tp4816
a(F810.0
F114.0
tp4817
a(F733.0
F80.0
tp4818
aa(F865.0
F159.0
tp4819
aa(lp4820
(I7
F0.092
tp4821
a(lp4822
(I3
F0.0729
tp4823
a(lp4824
(I1
F0.0637
tp4825
a(F758.0
F127.0
tp4826
a(F911.0
F126.0
tp4827
aa(lp4828
(I7
F0.0653
tp4829
a(F1071.0
F213.0
tp4830
a(F679.0
F205.0
tp4831
aaa(F1010.0
F531.0
tp4832
aaaa(lp4833
(I2
F0.3251
tp4834
a(lp4835
(I0
F0.0016
tp4836
a(F2734.0
F730.0
tp4837
a(lp4838
(I4
F0.2329
tp4839
a(F770.0
F371.0
tp4840
a(F437.0
F384.0
tp4841
aaa(lp4842
(I4
F1.165
tp4843
a(lp4844
(I1
F0.1685
tp4845
a(F1029.0
F547.0
tp4846
a(F775.0
F836.0
tp4847
aa(lp4848
(I3
F0.1985
tp4849
a(lp4850
(I5
F0.1548
tp4851
a(F460.0
F316.0
tp4852
a(F244.0
F540.0
tp4853
aa(lp4854
(I6
F2.2293
tp4855
a(F131.0
F651.0
tp4856
a(F52.0
F749.0
tp4857
aaaaaa(lp4858
(I5
F0.1329
tp4859
a(lp4860
(I2
F2.2226
tp4861
a(lp4862
(I1
F0.0613
tp4863
a(lp4864
(I1
F0.0291
tp4865
a(lp4866
(I7
F0.0398
tp4867
a(lp4868
(I1
F0.0115
tp4869
a(lp4870
(I6
F0.253
tp4871
a(lp4872
(I3
F-0.0022
tp4873
a(lp4874
(I2
F0.0001
tp4875
a(F1450.0
F48.0
tp4876
a(F1098.0
F19.0
tp4877
aa(F1037.0
F53.0
tp4878
aa(lp4879
(I3
F-0.0042
tp4880
a(lp4881
(I2
F0.5861
tp4882
a(F999.0
F7.0
tp4883
a(F788.0
F2.0
tp4884
aa(F942.0
F19.0
tp4885
aaa(lp4886
(I3
F0.0163
tp4887
a(F826.0
F29.0
tp4888
a(F1243.0
F65.0
tp4889
aaa(lp4890
(I4
F0.3386
tp4891
a(lp4892
(I7
F0.1041
tp4893
a(F1014.0
F87.0
tp4894
a(F819.0
F49.0
tp4895
aa(F862.0
F99.0
tp4896
aaa(lp4897
(I7
F0.0696
tp4898
a(lp4899
(I7
F0.0268
tp4900
a(lp4901
(I5
F0.0341
tp4902
a(F782.0
F36.0
tp4903
a(F717.0
F44.0
tp4904
aa(lp4905
(I5
F0.0526
tp4906
a(lp4907
(I4
F0.6102
tp4908
a(F840.0
F85.0
tp4909
a(F772.0
F50.0
tp4910
aa(F747.0
F81.0
tp4911
aaa(F1018.0
F194.0
tp4912
aaa(lp4913
(I6
F0.0058
tp4914
a(lp4915
(I0
F0.657
tp4916
a(lp4917
(I4
F0.0016
tp4918
a(lp4919
(I1
F0.1131
tp4920
a(lp4921
(I7
F0.0819
tp4922
a(F662.0
F115.0
tp4923
a(F782.0
F73.0
tp4924
aa(F1003.0
F181.0
tp4925
aa(F688.0
F134.0
tp4926
aa(F750.0
F182.0
tp4927
aa(lp4928
(I5
F0.1059
tp4929
a(lp4930
(I5
F0.0693
tp4931
a(F1211.0
F194.0
tp4932
a(lp4933
(I4
F0.9023
tp4934
a(F1076.0
F346.0
tp4935
a(F806.0
F210.0
tp4936
aaa(lp4937
(I5
F0.1185
tp4938
a(F557.0
F232.0
tp4939
a(F514.0
F280.0
tp4940
aaaaa(F625.0
F236.0
tp4941
aa(lp4942
(I4
F0.4582
tp4943
a(lp4944
(I6
F0.002
tp4945
a(lp4946
(I5
F0.1564
tp4947
a(F632.0
F174.0
tp4948
a(lp4949
(I7
F0.1776
tp4950
a(F691.0
F186.0
tp4951
a(F653.0
F147.0
tp4952
aaa(F833.0
F715.0
tp4953
aa(lp4954
(I1
F0.2099
tp4955
a(lp4956
(I7
F0.1444
tp4957
a(F727.0
F629.0
tp4958
a(F395.0
F865.0
tp4959
aa(lp4960
(I5
F0.2835
tp4961
a(F203.0
F628.0
tp4962
a(F106.0
F1098.0
tp4963
aaaaa(lp4964
(I3
F0.1218
tp4965
a(lp4966
(I5
F0.0847
tp4967
a(lp4968
(I5
F0.0588
tp4969
a(lp4970
(I1
F0.0273
tp4971
a(lp4972
(I7
F0.0398
tp4973
a(lp4974
(I5
F0.0032
tp4975
a(lp4976
(I7
F0.0132
tp4977
a(lp4978
(I0
F0.2153
tp4979
a(F2001.0
F44.0
tp4980
a(lp4981
(I0
F0.6783
tp4982
a(F790.0
F8.0
tp4983
a(F1232.0
F5.0
tp4984
aaa(F795.0
F27.0
tp4985
aa(lp4986
(I1
F-0.0027
tp4987
a(F779.0
F42.0
tp4988
a(lp4989
(I4
F0.3179
tp4990
a(F911.0
F43.0
tp4991
a(F1516.0
F33.0
tp4992
aaaa(lp4993
(I1
F-0.0088
tp4994
a(F1064.0
F44.0
tp4995
a(F1175.0
F122.0
tp4996
aaa(lp4997
(I7
F0.0693
tp4998
a(lp4999
(I7
F0.0158
tp5000
a(F1340.0
F143.0
tp5001
a(lp5002
(I1
F0.0491
tp5003
a(lp5004
(I5
F0.0325
tp5005
a(F797.0
F44.0
tp5006
a(F1119.0
F79.0
tp5007
aa(F1283.0
F115.0
tp5008
aaa(F881.0
F136.0
tp5009
aaa(lp5010
(I6
F0.2486
tp5011
a(lp5012
(I2
F0.0062
tp5013
a(F798.0
F99.0
tp5014
a(F797.0
F105.0
tp5015
aa(lp5016
(I7
F0.0735
tp5017
a(F933.0
F126.0
tp5018
a(F631.0
F177.0
tp5019
aaaa(lp5020
(I0
F0.0072
tp5021
a(lp5022
(I7
F0.0957
tp5023
a(F791.0
F112.0
tp5024
a(F881.0
F219.0
tp5025
aa(lp5026
(I6
F0.2199
tp5027
a(F919.0
F300.0
tp5028
a(lp5029
(I6
F1.5417
tp5030
a(F1023.0
F480.0
tp5031
a(F500.0
F320.0
tp5032
aaaaa(lp5033
(I4
F0.4312
tp5034
a(lp5035
(I6
F0.034
tp5036
a(lp5037
(I7
F0.1863
tp5038
a(lp5039
(I0
F0.0007
tp5040
a(lp5041
(I3
F0.1496
tp5042
a(F744.0
F165.0
tp5043
a(F786.0
F206.0
tp5044
aa(F731.0
F277.0
tp5045
aa(F682.0
F141.0
tp5046
aa(lp5047
(I1
F0.1585
tp5048
a(F616.0
F248.0
tp5049
a(F565.0
F501.0
tp5050
aaa(lp5051
(I5
F0.2098
tp5052
a(lp5053
(I1
F0.1565
tp5054
a(F786.0
F628.0
tp5055
a(F694.0
F880.0
tp5056
aa(lp5057
(I1
F0.303
tp5058
a(F232.0
F840.0
tp5059
a(F71.0
F888.0
tp5060
aaaaa(lp5061
(I3
F0.1219
tp5062
a(lp5063
(I6
F2.2168
tp5064
a(lp5065
(I5
F0.0732
tp5066
a(lp5067
(I5
F0.0531
tp5068
a(lp5069
(I7
F0.0272
tp5070
a(lp5071
(I1
F0.0505
tp5072
a(lp5073
(I3
F0.0063
tp5074
a(lp5075
(I2
F0.2774
tp5076
a(lp5077
(I5
F-0.0047
tp5078
a(lp5079
(I5
F-0.0321
tp5080
a(F816.0
F22.0
tp5081
a(F994.0
F18.0
tp5082
aa(F903.0
F36.0
tp5083
aa(lp5084
(I1
F-0.0107
tp5085
a(F1302.0
F5.0
tp5086
a(F1038.0
F15.0
tp5087
aaa(lp5088
(I0
F0.0042
tp5089
a(F815.0
F48.0
tp5090
a(lp5091
(I3
F0.0212
tp5092
a(F1096.0
F48.0
tp5093
a(F1259.0
F31.0
tp5094
aaaa(F711.0
F78.0
tp5095
aa(lp5096
(I1
F0.0497
tp5097
a(lp5098
(I4
F0.7439
tp5099
a(lp5100
(I1
F0.0077
tp5101
a(lp5102
(I1
F-0.0228
tp5103
a(F746.0
F38.0
tp5104
a(F775.0
F52.0
tp5105
aa(lp5106
(I0
F0.0799
tp5107
a(F1063.0
F90.0
tp5108
a(F840.0
F103.0
tp5109
aaa(F1175.0
F59.0
tp5110
aa(F1068.0
F128.0
tp5111
aaa(lp5112
(I3
F0.0686
tp5113
a(lp5114
(I0
F0.2579
tp5115
a(F725.0
F49.0
tp5116
a(F1016.0
F154.0
tp5117
aa(F816.0
F154.0
tp5118
aaa(lp5119
(I7
F0.1035
tp5120
a(lp5121
(I0
F0.017
tp5122
a(F1217.0
F152.0
tp5123
a(lp5124
(I5
F0.1052
tp5125
a(lp5126
(I1
F0.085
tp5127
a(F880.0
F174.0
tp5128
a(F713.0
F192.0
tp5129
aa(F640.0
F244.0
tp5130
aaa(lp5131
(I4
F0.0583
tp5132
a(F891.0
F164.0
tp5133
a(F768.0
F486.0
tp5134
aaaa(F594.0
F235.0
tp5135
aa(lp5136
(I6
F0.5782
tp5137
a(lp5138
(I1
F0.2166
tp5139
a(lp5140
(I0
F0.0015
tp5141
a(lp5142
(I1
F0.1412
tp5143
a(F877.0
F190.0
tp5144
a(F1187.0
F310.0
tp5145
aa(lp5146
(I7
F0.1297
tp5147
a(lp5148
(I0
F0.7199
tp5149
a(F700.0
F263.0
tp5150
a(F555.0
F338.0
tp5151
aa(F420.0
F352.0
tp5152
aaa(F917.0
F619.0
tp5153
aa(lp5154
(I4
F1.7352
tp5155
a(lp5156
(I0
F0.6034
tp5157
a(F372.0
F412.0
tp5158
a(F613.0
F1018.0
tp5159
aa(lp5160
(I1
F0.2335
tp5161
a(F252.0
F538.0
tp5162
a(F57.0
F834.0
tp5163
aaaaa(lp5164
(I3
F0.1306
tp5165
a(lp5166
(I1
F0.061
tp5167
a(lp5168
(I6
F1.9128
tp5169
a(lp5170
(I5
F0.0594
tp5171
a(lp5172
(I1
F0.0159
tp5173
a(lp5174
(I3
F0.0055
tp5175
a(lp5176
(I5
F0.0092
tp5177
a(lp5178
(I3
F-0.0203
tp5179
a(lp5180
(I5
F-0.0341
tp5181
a(F1333.0
F25.0
tp5182
a(F1569.0
F15.0
tp5183
aa(lp5184
(I5
F-0.0145
tp5185
a(F762.0
F33.0
tp5186
a(F1461.0
F31.0
tp5187
aaa(F1139.0
F63.0
tp5188
aa(lp5189
(I7
F0.0148
tp5190
a(F976.0
F43.0
tp5191
a(F861.0
F53.0
tp5192
aaa(lp5193
(I4
F1.0735
tp5194
a(lp5195
(I7
F0.0268
tp5196
a(lp5197
(I7
F0.0009
tp5198
a(F726.0
F48.0
tp5199
a(F1143.0
F44.0
tp5200
aa(lp5201
(I0
F0.11
tp5202
a(F1201.0
F99.0
tp5203
a(F1304.0
F147.0
tp5204
aaa(F1222.0
F33.0
tp5205
aaa(lp5206
(I6
F0.0239
tp5207
a(F900.0
F112.0
tp5208
a(F842.0
F221.0
tp5209
aaa(F709.0
F93.0
tp5210
aa(lp5211
(I5
F0.1253
tp5212
a(lp5213
(I7
F0.0735
tp5214
a(lp5215
(I5
F0.0792
tp5216
a(lp5217
(I5
F0.0622
tp5218
a(F1202.0
F187.0
tp5219
a(F904.0
F103.0
tp5220
aa(F1087.0
F224.0
tp5221
aa(lp5222
(I6
F0.0003
tp5223
a(F1219.0
F169.0
tp5224
a(lp5225
(I1
F0.0932
tp5226
a(F991.0
F301.0
tp5227
a(F1060.0
F435.0
tp5228
aaaa(lp5229
(I2
F0.2177
tp5230
a(F555.0
F228.0
tp5231
a(F416.0
F394.0
tp5232
aaaa(lp5233
(I4
F0.4593
tp5234
a(lp5235
(I0
F0.0014
tp5236
a(lp5237
(I7
F0.0905
tp5238
a(F631.0
F130.0
tp5239
a(F1621.0
F463.0
tp5240
aa(lp5241
(I1
F0.1927
tp5242
a(F963.0
F478.0
tp5243
a(F452.0
F405.0
tp5244
aaa(lp5245
(I5
F0.2046
tp5246
a(lp5247
(I6
F0.5797
tp5248
a(F525.0
F372.0
tp5249
a(F672.0
F886.0
tp5250
aa(lp5251
(I2
F2.3478
tp5252
a(F270.0
F1040.0
tp5253
a(F74.0
F795.0
tp5254
aaaaa(lp5255
(I1
F0.1213
tp5256
a(lp5257
(I6
F2.2255
tp5258
a(lp5259
(I3
F0.0717
tp5260
a(lp5261
(I5
F0.0585
tp5262
a(lp5263
(I5
F0.01
tp5264
a(lp5265
(I5
F-0.0356
tp5266
a(lp5267
(I7
F-0.0151
tp5268
a(F871.0
F5.0
tp5269
a(F751.0
F14.0
tp5270
aa(lp5271
(I3
F0.0074
tp5272
a(lp5273
(I7
F0.0184
tp5274
a(lp5275
(I1
F-0.0248
tp5276
a(F879.0
F29.0
tp5277
a(lp5278
(I5
F-0.0126
tp5279
a(F796.0
F14.0
tp5280
a(F1310.0
F6.0
tp5281
aaa(F1112.0
F51.0
tp5282
aa(F1341.0
F80.0
tp5283
aaa(lp5284
(I7
F0.065
tp5285
a(lp5286
(I1
F0.04
tp5287
a(lp5288
(I4
F0.9143
tp5289
a(lp5290
(I7
F0.0249
tp5291
a(lp5292
(I4
F0.1831
tp5293
a(F778.0
F45.0
tp5294
a(F776.0
F25.0
tp5295
aa(F1303.0
F100.0
tp5296
aa(F1423.0
F40.0
tp5297
aa(lp5298
(I1
F0.0508
tp5299
a(F920.0
F90.0
tp5300
a(F898.0
F55.0
tp5301
aaa(F1217.0
F145.0
tp5302
aaa(lp5303
(I4
F0.6105
tp5304
a(lp5305
(I1
F0.0611
tp5306
a(F962.0
F103.0
tp5307
a(F716.0
F103.0
tp5308
aa(F1244.0
F267.0
tp5309
aaa(lp5310
(I7
F0.1161
tp5311
a(lp5312
(I6
F0.3477
tp5313
a(lp5314
(I5
F0.0991
tp5315
a(lp5316
(I2
F0.0072
tp5317
a(F812.0
F87.0
tp5318
a(F995.0
F183.0
tp5319
aa(F853.0
F179.0
tp5320
aa(lp5321
(I1
F0.0876
tp5322
a(F709.0
F169.0
tp5323
a(F757.0
F259.0
tp5324
aaa(F986.0
F370.0
tp5325
aaa(F623.0
F208.0
tp5326
aa(lp5327
(I7
F0.1685
tp5328
a(lp5329
(I0
F0.7058
tp5330
a(lp5331
(I5
F0.1338
tp5332
a(lp5333
(I0
F0.0012
tp5334
a(F793.0
F171.0
tp5335
a(F648.0
F205.0
tp5336
aa(lp5337
(I6
F0.1339
tp5338
a(F1105.0
F366.0
tp5339
a(F403.0
F363.0
tp5340
aaa(lp5341
(I5
F0.1267
tp5342
a(F711.0
F302.0
tp5343
a(lp5344
(I1
F0.1713
tp5345
a(F408.0
F454.0
tp5346
a(F295.0
F534.0
tp5347
aaaa(lp5348
(I0
F0.0147
tp5349
a(F910.0
F289.0
tp5350
a(lp5351
(I3
F0.2166
tp5352
a(F441.0
F826.0
tp5353
a(lp5354
(I6
F2.1049
tp5355
a(F157.0
F647.0
tp5356
a(F52.0
F721.0
tp5357
aaaaaa(lp5358
(I3
F0.1219
tp5359
a(lp5360
(I3
F0.073
tp5361
a(lp5362
(I7
F0.0563
tp5363
a(lp5364
(I1
F0.0133
tp5365
a(lp5366
(I6
F0.2525
tp5367
a(lp5368
(I1
F-0.0414
tp5369
a(F936.0
F25.0
tp5370
a(lp5371
(I2
F0.0638
tp5372
a(F1568.0
F53.0
tp5373
a(F1373.0
F68.0
tp5374
aaa(lp5375
(I5
F0.0077
tp5376
a(lp5377
(I0
F0.3267
tp5378
a(F775.0
F12.0
tp5379
a(F1493.0
F11.0
tp5380
aa(F924.0
F25.0
tp5381
aaa(lp5382
(I7
F0.013
tp5383
a(lp5384
(I0
F0.2994
tp5385
a(F990.0
F76.0
tp5386
a(F1130.0
F41.0
tp5387
aa(lp5388
(I3
F0.0539
tp5389
a(lp5390
(I2
F0.0008
tp5391
a(F914.0
F53.0
tp5392
a(lp5393
(I6
F0.8444
tp5394
a(F1293.0
F139.0
tp5395
a(F1193.0
F53.0
tp5396
aaa(F902.0
F104.0
tp5397
aaaa(lp5398
(I0
F0.0094
tp5399
a(lp5400
(I6
F0.1722
tp5401
a(lp5402
(I7
F0.1105
tp5403
a(F751.0
F57.0
tp5404
a(F802.0
F31.0
tp5405
aa(F682.0
F106.0
tp5406
aa(lp5407
(I0
F0.4819
tp5408
a(F932.0
F209.0
tp5409
a(lp5410
(I1
F0.0574
tp5411
a(F763.0
F105.0
tp5412
a(F608.0
F157.0
tp5413
aaaaa(lp5414
(I7
F0.1147
tp5415
a(lp5416
(I6
F0.0096
tp5417
a(lp5418
(I5
F0.0882
tp5419
a(F982.0
F140.0
tp5420
a(F837.0
F190.0
tp5421
aa(lp5422
(I7
F0.0681
tp5423
a(F797.0
F133.0
tp5424
a(lp5425
(I4
F0.897
tp5426
a(F715.0
F208.0
tp5427
a(F622.0
F207.0
tp5428
aaaa(F1010.0
F532.0
tp5429
aaa(lp5430
(I4
F0.4424
tp5431
a(lp5432
(I3
F0.1466
tp5433
a(lp5434
(I7
F0.1113
tp5435
a(F657.0
F153.0
tp5436
a(F617.0
F185.0
tp5437
aa(lp5438
(I0
F0.0015
tp5439
a(lp5440
(I1
F0.1819
tp5441
a(F916.0
F300.0
tp5442
a(F861.0
F227.0
tp5443
aa(lp5444
(I7
F0.1236
tp5445
a(F705.0
F299.0
tp5446
a(F399.0
F430.0
tp5447
aaaa(lp5448
(I1
F0.2078
tp5449
a(lp5450
(I7
F0.1268
tp5451
a(F859.0
F523.0
tp5452
a(F540.0
F925.0
tp5453
aa(lp5454
(I7
F0.2256
tp5455
a(F230.0
F630.0
tp5456
a(F112.0
F1165.0
tp5457
aaaaa(lp5458
(I6
F2.9002
tp5459
a(lp5460
(I3
F0.122
tp5461
a(lp5462
(I4
F2.1202
tp5463
a(lp5464
(I3
F0.0669
tp5465
a(lp5466
(I6
F1.8058
tp5467
a(lp5468
(I3
F0.0247
tp5469
a(lp5470
(I0
F0.5323
tp5471
a(lp5472
(I7
F0.0153
tp5473
a(lp5474
(I5
F0.0069
tp5475
a(lp5476
(I7
F-0.0074
tp5477
a(lp5478
(I3
F-0.0305
tp5479
a(F812.0
F12.0
tp5480
a(F964.0
F44.0
tp5481
aa(F1026.0
F13.0
tp5482
aa(F1013.0
F69.0
tp5483
aa(lp5484
(I0
F0.1186
tp5485
a(lp5486
(I3
F-0.0115
tp5487
a(F1055.0
F69.0
tp5488
a(F1288.0
F56.0
tp5489
aa(F793.0
F71.0
tp5490
aaa(lp5491
(I3
F0.0083
tp5492
a(lp5493
(I3
F-0.014
tp5494
a(F1127.0
F24.0
tp5495
a(F1085.0
F14.0
tp5496
aa(F1062.0
F48.0
tp5497
aaa(lp5498
(I1
F0.0612
tp5499
a(lp5500
(I0
F0.9936
tp5501
a(lp5502
(I2
F0.2845
tp5503
a(lp5504
(I4
F0.0713
tp5505
a(F1488.0
F113.0
tp5506
a(F739.0
F44.0
tp5507
aa(F1345.0
F153.0
tp5508
aa(F1131.0
F57.0
tp5509
aa(F1139.0
F185.0
tp5510
aaa(F697.0
F69.0
tp5511
aa(lp5512
(I5
F0.1122
tp5513
a(lp5514
(I6
F0.0096
tp5515
a(lp5516
(I5
F0.0646
tp5517
a(F703.0
F94.0
tp5518
a(F1386.0
F143.0
tp5519
aa(lp5520
(I1
F0.0932
tp5521
a(lp5522
(I7
F0.0734
tp5523
a(F864.0
F121.0
tp5524
a(F728.0
F179.0
tp5525
aa(F804.0
F260.0
tp5526
aaa(F1044.0
F445.0
tp5527
aaa(F650.0
F179.0
tp5528
aa(lp5529
(I0
F0.0016
tp5530
a(lp5531
(I5
F0.1215
tp5532
a(F722.0
F115.0
tp5533
a(lp5534
(I3
F0.192
tp5535
a(lp5536
(I1
F0.1501
tp5537
a(F630.0
F182.0
tp5538
a(F580.0
F220.0
tp5539
aa(F781.0
F187.0
tp5540
aaa(lp5541
(I3
F0.2627
tp5542
a(lp5543
(I6
F0.5797
tp5544
a(lp5545
(I3
F0.1457
tp5546
a(F549.0
F271.0
tp5547
a(lp5548
(I5
F0.1315
tp5549
a(F586.0
F215.0
tp5550
a(F773.0
F672.0
tp5551
aaa(lp5552
(I7
F0.1425
tp5553
a(F604.0
F391.0
tp5554
a(F428.0
F875.0
tp5555
aaa(F286.0
F829.0
tp5556
aaaa(F228.0
F931.0
tp5557
aa(lp5558
(I5
F0.1291
tp5559
a(lp5560
(I5
F0.0619
tp5561
a(lp5562
(I3
F0.0694
tp5563
a(lp5564
(I1
F0.0258
tp5565
a(lp5566
(I5
F0.0163
tp5567
a(lp5568
(I2
F0.7445
tp5569
a(lp5570
(I6
F0.9672
tp5571
a(lp5572
(I5
F-0.0389
tp5573
a(F980.0
F12.0
tp5574
a(lp5575
(I4
F0.3741
tp5576
a(lp5577
(I7
F0.0208
tp5578
a(F1925.0
F57.0
tp5579
a(F997.0
F49.0
tp5580
aa(F810.0
F16.0
tp5581
aaa(F821.0
F33.0
tp5582
aa(lp5583
(I3
F-0.0058
tp5584
a(F1032.0
F3.0
tp5585
a(F961.0
F11.0
tp5586
aaa(lp5587
(I7
F0.04
tp5588
a(lp5589
(I5
F0.0263
tp5590
a(F867.0
F31.0
tp5591
a(F778.0
F48.0
tp5592
aa(F829.0
F79.0
tp5593
aaa(lp5594
(I4
F0.9627
tp5595
a(lp5596
(I7
F0.0272
tp5597
a(F1325.0
F72.0
tp5598
a(lp5599
(I0
F0.0423
tp5600
a(F999.0
F86.0
tp5601
a(F1250.0
F148.0
tp5602
aaa(F1435.0
F92.0
tp5603
aaa(lp5604
(I4
F0.0357
tp5605
a(F973.0
F163.0
tp5606
a(F753.0
F162.0
tp5607
aaa(lp5608
(I0
F0.2963
tp5609
a(lp5610
(I1
F0.086
tp5611
a(lp5612
(I6
F0.0067
tp5613
a(F1043.0
F82.0
tp5614
a(F691.0
F138.0
tp5615
aa(lp5616
(I6
F0.0042
tp5617
a(lp5618
(I1
F0.1117
tp5619
a(F679.0
F106.0
tp5620
a(F727.0
F135.0
tp5621
aa(F707.0
F251.0
tp5622
aaa(lp5623
(I7
F0.1036
tp5624
a(lp5625
(I1
F0.0881
tp5626
a(lp5627
(I7
F0.0651
tp5628
a(F899.0
F131.0
tp5629
a(F704.0
F199.0
tp5630
aa(lp5631
(I5
F0.0962
tp5632
a(F612.0
F187.0
tp5633
a(F637.0
F222.0
tp5634
aaa(F833.0
F436.0
tp5635
aaaa(lp5636
(I6
F0.3725
tp5637
a(lp5638
(I2
F0.6419
tp5639
a(lp5640
(I1
F0.1252
tp5641
a(F681.0
F140.0
tp5642
a(lp5643
(I1
F0.2041
tp5644
a(lp5645
(I5
F0.1714
tp5646
a(F1000.0
F403.0
tp5647
a(F528.0
F271.0
tp5648
aa(F686.0
F237.0
tp5649
aaa(F373.0
F499.0
tp5650
aa(lp5651
(I7
F0.2016
tp5652
a(lp5653
(I4
F1.6543
tp5654
a(lp5655
(I5
F0.1604
tp5656
a(F417.0
F402.0
tp5657
a(F365.0
F501.0
tp5658
aa(F268.0
F577.0
tp5659
aa(lp5660
(I5
F0.2684
tp5661
a(F178.0
F635.0
tp5662
a(F81.0
F1002.0
tp5663
aaaaa(lp5664
(I4
F2.1643
tp5665
a(lp5666
(I3
F0.0808
tp5667
a(lp5668
(I3
F0.0534
tp5669
a(lp5670
(I7
F0.0634
tp5671
a(lp5672
(I3
F0.0078
tp5673
a(lp5674
(I5
F0.0255
tp5675
a(lp5676
(I7
F0.0185
tp5677
a(lp5678
(I0
F0.0116
tp5679
a(lp5680
(I1
F-0.0281
tp5681
a(F804.0
F15.0
tp5682
a(F938.0
F39.0
tp5683
aa(lp5684
(I0
F0.9426
tp5685
a(lp5686
(I4
F0.4825
tp5687
a(F972.0
F5.0
tp5688
a(F861.0
F0.0
tp5689
aa(F1035.0
F8.0
tp5690
aaa(F1131.0
F52.0
tp5691
aa(F776.0
F77.0
tp5692
aa(lp5693
(I5
F0.0451
tp5694
a(lp5695
(I3
F0.038
tp5696
a(lp5697
(I3
F0.0197
tp5698
a(lp5699
(I4
F0.3754
tp5700
a(F760.0
F68.0
tp5701
a(F788.0
F23.0
tp5702
aa(lp5703
(I3
F0.0267
tp5704
a(F884.0
F24.0
tp5705
a(F1251.0
F66.0
tp5706
aaa(F1033.0
F76.0
tp5707
aa(F1232.0
F119.0
tp5708
aaa(lp5709
(I6
F0.2493
tp5710
a(F1492.0
F119.0
tp5711
a(F1195.0
F228.0
tp5712
aaa(lp5713
(I6
F0.2849
tp5714
a(lp5715
(I7
F0.0604
tp5716
a(F1212.0
F123.0
tp5717
a(F708.0
F110.0
tp5718
aa(lp5719
(I0
F0.7869
tp5720
a(F723.0
F201.0
tp5721
a(F772.0
F139.0
tp5722
aaaa(lp5723
(I7
F0.1373
tp5724
a(lp5725
(I5
F0.1085
tp5726
a(lp5727
(I2
F0.0156
tp5728
a(F1230.0
F219.0
tp5729
a(lp5730
(I4
F0.0165
tp5731
a(F793.0
F159.0
tp5732
a(lp5733
(I3
F0.1118
tp5734
a(F1190.0
F288.0
tp5735
a(F648.0
F240.0
tp5736
aaaa(lp5737
(I0
F0.3674
tp5738
a(lp5739
(I2
F0.0081
tp5740
a(F1196.0
F285.0
tp5741
a(F610.0
F285.0
tp5742
aa(lp5743
(I5
F0.1362
tp5744
a(F596.0
F328.0
tp5745
a(F503.0
F467.0
tp5746
aaaa(lp5747
(I4
F0.2741
tp5748
a(F1837.0
F728.0
tp5749
a(lp5750
(I5
F0.2114
tp5751
a(F587.0
F827.0
tp5752
a(F153.0
F727.0
tp5753
aaaaa(lp5754
(I0
F3.0758
tp5755
a(lp5756
(I5
F0.1522
tp5757
a(F658.0
F212.0
tp5758
a(F145.0
F612.0
tp5759
aa(F143.0
F735.0
tp5760
aaa(lp5761
(I6
F2.2504
tp5762
a(lp5763
(I1
F0.1136
tp5764
a(lp5765
(I3
F0.0534
tp5766
a(lp5767
(I7
F0.0268
tp5768
a(lp5769
(I6
F0.5224
tp5770
a(lp5771
(I5
F0.0164
tp5772
a(lp5773
(I2
F0.658
tp5774
a(lp5775
(I1
F0.0053
tp5776
a(lp5777
(I2
F0.0751
tp5778
a(lp5779
(I5
F-0.0222
tp5780
a(F848.0
F23.0
tp5781
a(F849.0
F14.0
tp5782
aa(F812.0
F34.0
tp5783
aa(F742.0
F35.0
tp5784
aa(F858.0
F6.0
tp5785
aa(lp5786
(I7
F-0.0035
tp5787
a(F730.0
F62.0
tp5788
a(F1227.0
F63.0
tp5789
aaa(lp5790
(I1
F0.0095
tp5791
a(lp5792
(I1
F-0.0126
tp5793
a(F958.0
F4.0
tp5794
a(F855.0
F9.0
tp5795
aa(F890.0
F38.0
tp5796
aaa(lp5797
(I0
F0.155
tp5798
a(lp5799
(I5
F0.0133
tp5800
a(F1135.0
F40.0
tp5801
a(lp5802
(I7
F0.0634
tp5803
a(F966.0
F80.0
tp5804
a(F1062.0
F113.0
tp5805
aaa(lp5806
(I0
F0.4956
tp5807
a(F880.0
F144.0
tp5808
a(lp5809
(I6
F0.7195
tp5810
a(F704.0
F101.0
tp5811
a(lp5812
(I2
F1.0145
tp5813
a(F750.0
F53.0
tp5814
a(F782.0
F60.0
tp5815
aaaaaa(lp5816
(I3
F0.0847
tp5817
a(lp5818
(I6
F0.2671
tp5819
a(lp5820
(I3
F0.0669
tp5821
a(F987.0
F82.0
tp5822
a(F1172.0
F166.0
tp5823
aa(lp5824
(I5
F0.0706
tp5825
a(F997.0
F153.0
tp5826
a(F676.0
F241.0
tp5827
aaa(lp5828
(I0
F0.0082
tp5829
a(F1248.0
F208.0
tp5830
a(lp5831
(I7
F0.0967
tp5832
a(F1248.0
F308.0
tp5833
a(F549.0
F240.0
tp5834
aaaaa(lp5835
(I4
F0.4464
tp5836
a(lp5837
(I4
F0.0375
tp5838
a(lp5839
(I6
F0.0022
tp5840
a(lp5841
(I3
F0.1836
tp5842
a(lp5843
(I5
F0.1411
tp5844
a(F1065.0
F224.0
tp5845
a(F694.0
F189.0
tp5846
aa(F859.0
F237.0
tp5847
aa(F640.0
F265.0
tp5848
aa(lp5849
(I7
F0.1303
tp5850
a(F788.0
F303.0
tp5851
a(F410.0
F419.0
tp5852
aaa(lp5853
(I1
F0.216
tp5854
a(lp5855
(I3
F0.1539
tp5856
a(F962.0
F581.0
tp5857
a(F578.0
F743.0
tp5858
aa(F243.0
F973.0
tp5859
aaaa(lp5860
(I3
F0.1199
tp5861
a(F564.0
F208.0
tp5862
a(F209.0
F1104.0
tp5863
aaa(lp5864
(I5
F0.1329
tp5865
a(lp5866
(I1
F0.062
tp5867
a(lp5868
(I3
F0.0435
tp5869
a(lp5870
(I6
F1.6036
tp5871
a(lp5872
(I5
F0.0377
tp5873
a(lp5874
(I3
F0.0118
tp5875
a(lp5876
(I5
F0.0122
tp5877
a(lp5878
(I0
F0.0004
tp5879
a(lp5880
(I1
F-0.0396
tp5881
a(F818.0
F20.0
tp5882
a(lp5883
(I5
F-0.0127
tp5884
a(F823.0
F31.0
tp5885
a(F860.0
F26.0
tp5886
aaa(lp5887
(I7
F-0.0191
tp5888
a(F1005.0
F4.0
tp5889
a(lp5890
(I4
F0.3477
tp5891
a(F861.0
F20.0
tp5892
a(F1300.0
F16.0
tp5893
aaaa(F1131.0
F40.0
tp5894
aa(lp5895
(I0
F0.8075
tp5896
a(lp5897
(I7
F0.0225
tp5898
a(F1046.0
F41.0
tp5899
a(F1226.0
F99.0
tp5900
aa(F941.0
F27.0
tp5901
aaa(lp5902
(I7
F0.0558
tp5903
a(F1322.0
F106.0
tp5904
a(F724.0
F101.0
tp5905
aaa(F1042.0
F69.0
tp5906
aa(lp5907
(I5
F0.0585
tp5908
a(lp5909
(I1
F0.0448
tp5910
a(F786.0
F92.0
tp5911
a(F1270.0
F98.0
tp5912
aa(F1018.0
F197.0
tp5913
aaa(lp5914
(I5
F0.0999
tp5915
a(lp5916
(I3
F0.1351
tp5917
a(lp5918
(I2
F0.2673
tp5919
a(lp5920
(I6
F0.0134
tp5921
a(lp5922
(I7
F0.0653
tp5923
a(F729.0
F85.0
tp5924
a(F708.0
F84.0
tp5925
aa(F773.0
F175.0
tp5926
aa(lp5927
(I5
F0.0662
tp5928
a(F973.0
F149.0
tp5929
a(lp5930
(I7
F0.0787
tp5931
a(F898.0
F195.0
tp5932
a(F616.0
F202.0
tp5933
aaaa(F906.0
F278.0
tp5934
aa(lp5935
(I6
F0.0008
tp5936
a(F1193.0
F273.0
tp5937
a(lp5938
(I6
F0.5133
tp5939
a(F601.0
F247.0
tp5940
a(F807.0
F448.0
tp5941
aaaaa(lp5942
(I4
F0.4593
tp5943
a(lp5944
(I4
F0.001
tp5945
a(lp5946
(I3
F0.1504
tp5947
a(F750.0
F173.0
tp5948
a(lp5949
(I3
F0.1916
tp5950
a(F573.0
F238.0
tp5951
a(F682.0
F200.0
tp5952
aaa(F861.0
F622.0
tp5953
aa(lp5954
(I4
F2.5194
tp5955
a(lp5956
(I0
F0.9367
tp5957
a(F679.0
F805.0
tp5958
a(lp5959
(I3
F0.1818
tp5960
a(F411.0
F485.0
tp5961
a(F197.0
F780.0
tp5962
aaa(F238.0
F1266.0
tp5963
aaaa(lp5964
(I5
F0.1271
tp5965
a(lp5966
(I3
F0.0781
tp5967
a(lp5968
(I7
F0.039
tp5969
a(lp5970
(I1
F0.0174
tp5971
a(lp5972
(I5
F0.0043
tp5973
a(lp5974
(I5
F-0.0124
tp5975
a(lp5976
(I3
F-0.0148
tp5977
a(lp5978
(I0
F0.0016
tp5979
a(F1054.0
F23.0
tp5980
a(F1175.0
F6.0
tp5981
aa(F764.0
F36.0
tp5982
aa(lp5983
(I7
F-0.0018
tp5984
a(F783.0
F5.0
tp5985
a(F785.0
F13.0
tp5986
aaa(lp5987
(I0
F0.1122
tp5988
a(F882.0
F47.0
tp5989
a(F1447.0
F51.0
tp5990
aaa(lp5991
(I1
F0.05
tp5992
a(lp5993
(I5
F0.0219
tp5994
a(F1083.0
F50.0
tp5995
a(lp5996
(I5
F0.0334
tp5997
a(F741.0
F62.0
tp5998
a(F1200.0
F67.0
tp5999
aaa(F1233.0
F127.0
tp6000
aaa(lp6001
(I5
F0.0518
tp6002
a(lp6003
(I1
F0.0084
tp6004
a(F1413.0
F92.0
tp6005
a(lp6006
(I3
F0.0384
tp6007
a(F1284.0
F148.0
tp6008
a(F1154.0
F81.0
tp6009
aaa(lp6010
(I6
F0.3861
tp6011
a(F1392.0
F160.0
tp6012
a(lp6013
(I6
F1.422
tp6014
a(F940.0
F221.0
tp6015
a(F756.0
F140.0
tp6016
aaaaa(lp6017
(I4
F0.0545
tp6018
a(lp6019
(I6
F0.0004
tp6020
a(lp6021
(I5
F0.0866
tp6022
a(F1050.0
F147.0
tp6023
a(F1063.0
F214.0
tp6024
aa(F674.0
F200.0
tp6025
aa(lp6026
(I7
F0.1139
tp6027
a(lp6028
(I5
F0.0915
tp6029
a(lp6030
(I4
F0.6083
tp6031
a(F685.0
F168.0
tp6032
a(F746.0
F206.0
tp6033
aa(F1116.0
F409.0
tp6034
aa(F543.0
F306.0
tp6035
aaaa(lp6036
(I7
F0.187
tp6037
a(lp6038
(I2
F0.5186
tp6039
a(lp6040
(I4
F0.0653
tp6041
a(lp6042
(I1
F0.1381
tp6043
a(F674.0
F130.0
tp6044
a(F944.0
F308.0
tp6045
aa(F899.0
F579.0
tp6046
aa(lp6047
(I2
F1.737
tp6048
a(lp6049
(I5
F0.1635
tp6050
a(F460.0
F371.0
tp6051
a(F367.0
F422.0
tp6052
aa(F299.0
F586.0
tp6053
aaa(lp6054
(I2
F0.0457
tp6055
a(F784.0
F308.0
tp6056
a(lp6057
(I1
F0.2819
tp6058
a(F341.0
F1031.0
tp6059
a(F58.0
F957.0
tp6060
aaaaa(lp6061
(I4
F2.181
tp6062
a(lp6063
(I3
F0.0808
tp6064
a(lp6065
(I5
F0.0594
tp6066
a(lp6067
(I7
F0.0272
tp6068
a(lp6069
(I1
F0.0135
tp6070
a(lp6071
(I4
F0.204
tp6072
a(lp6073
(I1
F-0.0281
tp6074
a(F1118.0
F22.0
tp6075
a(lp6076
(I1
F-0.0071
tp6077
a(F777.0
F35.0
tp6078
a(F893.0
F20.0
tp6079
aaa(lp6080
(I1
F-0.0027
tp6081
a(lp6082
(I3
F-0.0183
tp6083
a(F1053.0
F10.0
tp6084
a(F866.0
F3.0
tp6085
aa(F1042.0
F16.0
tp6086
aaa(lp6087
(I5
F0.0326
tp6088
a(lp6089
(I4
F0.5766
tp6090
a(F1249.0
F63.0
tp6091
a(F783.0
F15.0
tp6092
aa(F849.0
F57.0
tp6093
aaa(lp6094
(I5
F0.0217
tp6095
a(lp6096
(I4
F0.2413
tp6097
a(lp6098
(I7
F0.0734
tp6099
a(F930.0
F49.0
tp6100
a(F798.0
F28.0
tp6101
aa(F732.0
F55.0
tp6102
aa(lp6103
(I4
F1.0735
tp6104
a(lp6105
(I2
F0.4721
tp6106
a(lp6107
(I3
F0.033
tp6108
a(F830.0
F55.0
tp6109
a(F1107.0
F114.0
tp6110
aa(F833.0
F112.0
tp6111
aa(F908.0
F59.0
tp6112
aaaa(lp6113
(I6
F0.1173
tp6114
a(lp6115
(I1
F0.0666
tp6116
a(F1103.0
F115.0
tp6117
a(F751.0
F132.0
tp6118
aa(lp6119
(I7
F0.0857
tp6120
a(F1214.0
F173.0
tp6121
a(F551.0
F254.0
tp6122
aaaa(lp6123
(I7
F0.1364
tp6124
a(lp6125
(I6
F0.0239
tp6126
a(lp6127
(I2
F0.965
tp6128
a(lp6129
(I1
F0.1116
tp6130
a(F1202.0
F198.0
tp6131
a(lp6132
(I2
F0.044
tp6133
a(F1258.0
F275.0
tp6134
a(F594.0
F210.0
tp6135
aaa(F700.0
F338.0
tp6136
aa(lp6137
(I3
F0.1351
tp6138
a(lp6139
(I1
F0.0975
tp6140
a(F868.0
F243.0
tp6141
a(lp6142
(I4
F0.6416
tp6143
a(F663.0
F221.0
tp6144
a(F576.0
F265.0
tp6145
aaa(F976.0
F577.0
tp6146
aaa(lp6147
(I4
F0.0292
tp6148
a(F1599.0
F504.0
tp6149
a(lp6150
(I2
F0.5695
tp6151
a(F581.0
F685.0
tp6152
a(lp6153
(I5
F0.1987
tp6154
a(F324.0
F513.0
tp6155
a(F128.0
F710.0
tp6156
aaaaaa(lp6157
(I1
F0.1655
tp6158
a(F769.0
F376.0
tp6159
a(F147.0
F1186.0
tp6160
aaa(lp6161
(I3
F0.1306
tp6162
a(lp6163
(I1
F0.0823
tp6164
a(lp6165
(I1
F0.0427
tp6166
a(lp6167
(I2
F-0.0074
tp6168
a(lp6169
(I1
F-0.0129
tp6170
a(F1214.0
F45.0
tp6171
a(F1141.0
F117.0
tp6172
aa(lp6173
(I1
F0.0159
tp6174
a(lp6175
(I4
F0.467
tp6176
a(lp6177
(I5
F0.0164
tp6178
a(lp6179
(I3
F-0.036
tp6180
a(F892.0
F6.0
tp6181
a(lp6182
(I6
F0.106
tp6183
a(lp6184
(I7
F-0.0033
tp6185
a(F876.0
F20.0
tp6186
a(F743.0
F21.0
tp6187
aa(F842.0
F35.0
tp6188
aaa(F719.0
F71.0
tp6189
aa(lp6190
(I7
F0.0186
tp6191
a(lp6192
(I1
F-0.0027
tp6193
a(F1349.0
F5.0
tp6194
a(F821.0
F21.0
tp6195
aa(F825.0
F49.0
tp6196
aaa(lp6197
(I7
F0.0458
tp6198
a(lp6199
(I5
F0.038
tp6200
a(lp6201
(I0
F0.8478
tp6202
a(F1347.0
F80.0
tp6203
a(F878.0
F27.0
tp6204
aa(F774.0
F64.0
tp6205
aa(F1142.0
F135.0
tp6206
aaaa(lp6207
(I7
F0.1038
tp6208
a(lp6209
(I5
F0.0566
tp6210
a(lp6211
(I7
F0.0341
tp6212
a(F1016.0
F72.0
tp6213
a(F1225.0
F148.0
tp6214
aa(lp6215
(I4
F0.6124
tp6216
a(F1227.0
F154.0
tp6217
a(F1147.0
F209.0
tp6218
aaa(F719.0
F227.0
tp6219
aaa(lp6220
(I7
F0.116
tp6221
a(lp6222
(I4
F0.4012
tp6223
a(lp6224
(I0
F0.0754
tp6225
a(F1287.0
F193.0
tp6226
a(F767.0
F177.0
tp6227
aa(lp6228
(I0
F1.2512
tp6229
a(F900.0
F266.0
tp6230
a(F588.0
F223.0
tp6231
aaa(lp6232
(I2
F0.1628
tp6233
a(F733.0
F271.0
tp6234
a(F503.0
F426.0
tp6235
aaaa(lp6236
(I6
F0.5942
tp6237
a(lp6238
(I2
F0.0317
tp6239
a(F2226.0
F598.0
tp6240
a(lp6241
(I4
F0.8121
tp6242
a(lp6243
(I1
F0.1899
tp6244
a(F1061.0
F475.0
tp6245
a(F502.0
F393.0
tp6246
aa(F342.0
F509.0
tp6247
aaa(lp6248
(I1
F0.2082
tp6249
a(lp6250
(I6
F1.4707
tp6251
a(F587.0
F507.0
tp6252
a(F284.0
F514.0
tp6253
aa(lp6254
(I1
F0.2929
tp6255
a(F164.0
F660.0
tp6256
a(F72.0
F829.0
tp6257
aaaaa(lp6258
(I7
F0.1414
tp6259
a(lp6260
(I2
F2.3973
tp6261
a(lp6262
(I3
F0.0774
tp6263
a(lp6264
(I3
F0.0273
tp6265
a(lp6266
(I0
F-0.0305
tp6267
a(lp6268
(I7
F0.0258
tp6269
a(F979.0
F43.0
tp6270
a(F752.0
F64.0
tp6271
aa(lp6272
(I5
F0.0487
tp6273
a(lp6274
(I2
F0.589
tp6275
a(lp6276
(I5
F0.0074
tp6277
a(lp6278
(I7
F0.0187
tp6279
a(lp6280
(I5
F-0.0095
tp6281
a(F1592.0
F38.0
tp6282
a(F814.0
F6.0
tp6283
aa(F775.0
F30.0
tp6284
aa(lp6285
(I7
F0.0214
tp6286
a(F903.0
F37.0
tp6287
a(F957.0
F64.0
tp6288
aaa(lp6289
(I5
F0.0133
tp6290
a(lp6291
(I2
F0.9383
tp6292
a(F797.0
F10.0
tp6293
a(F1339.0
F6.0
tp6294
aa(F970.0
F42.0
tp6295
aaa(F728.0
F98.0
tp6296
aaa(lp6297
(I0
F0.0519
tp6298
a(lp6299
(I1
F0.0523
tp6300
a(F1262.0
F98.0
tp6301
a(F964.0
F115.0
tp6302
aa(lp6303
(I3
F0.0605
tp6304
a(lp6305
(I2
F0.5885
tp6306
a(F1249.0
F168.0
tp6307
a(lp6308
(I7
F0.0386
tp6309
a(F994.0
F66.0
tp6310
a(F988.0
F143.0
tp6311
aaa(F1341.0
F239.0
tp6312
aaaa(lp6313
(I3
F0.1296
tp6314
a(lp6315
(I6
F0.0201
tp6316
a(lp6317
(I0
F0.0296
tp6318
a(F1305.0
F180.0
tp6319
a(F771.0
F192.0
tp6320
aa(lp6321
(I6
F0.7703
tp6322
a(F1134.0
F417.0
tp6323
a(F1146.0
F344.0
tp6324
aaa(lp6325
(I0
F0.0264
tp6326
a(F1243.0
F331.0
tp6327
a(lp6328
(I4
F0.8354
tp6329
a(lp6330
(I7
F0.074
tp6331
a(F676.0
F232.0
tp6332
a(F581.0
F327.0
tp6333
aa(F470.0
F471.0
tp6334
aaaaa(F532.0
F430.0
tp6335
aa(lp6336
(I6
F0.3322
tp6337
a(lp6338
(I4
F0.039
tp6339
a(F1936.0
F414.0
tp6340
a(F517.0
F286.0
tp6341
aa(lp6342
(I7
F0.2255
tp6343
a(lp6344
(I0
F0.8547
tp6345
a(F561.0
F518.0
tp6346
a(F325.0
F785.0
tp6347
aa(lp6348
(I6
F2.2827
tp6349
a(F139.0
F678.0
tp6350
a(F48.0
F800.0
tp6351
aaaaa(lp6352
(I5
F0.1272
tp6353
a(lp6354
(I3
F0.0671
tp6355
a(lp6356
(I1
F0.037
tp6357
a(lp6358
(I5
F0.0326
tp6359
a(lp6360
(I5
F0.0035
tp6361
a(lp6362
(I5
F-0.0031
tp6363
a(lp6364
(I0
F0.6853
tp6365
a(lp6366
(I1
F-0.0314
tp6367
a(lp6368
(I7
F-0.0084
tp6369
a(F795.0
F8.0
tp6370
a(F767.0
F27.0
tp6371
aa(lp6372
(I3
F-0.0143
tp6373
a(F1009.0
F25.0
tp6374
a(F1174.0
F54.0
tp6375
aaa(F1252.0
F9.0
tp6376
aa(F968.0
F13.0
tp6377
aa(lp6378
(I4
F0.1512
tp6379
a(lp6380
(I3
F0.012
tp6381
a(F817.0
F39.0
tp6382
a(F752.0
F51.0
tp6383
aa(lp6384
(I6
F0.6821
tp6385
a(F1208.0
F34.0
tp6386
a(F1349.0
F53.0
tp6387
aaaa(lp6388
(I1
F0.004
tp6389
a(F653.0
F102.0
tp6390
a(lp6391
(I5
F0.0463
tp6392
a(F825.0
F58.0
tp6393
a(F749.0
F74.0
tp6394
aaaa(lp6395
(I7
F0.0729
tp6396
a(lp6397
(I7
F0.0268
tp6398
a(F1217.0
F79.0
tp6399
a(lp6400
(I7
F0.0443
tp6401
a(F852.0
F105.0
tp6402
a(F1457.0
F137.0
tp6403
aaa(F1085.0
F208.0
tp6404
aaa(lp6405
(I5
F0.092
tp6406
a(lp6407
(I3
F0.1118
tp6408
a(lp6409
(I0
F0.2177
tp6410
a(F1277.0
F184.0
tp6411
a(lp6412
(I0
F0.8499
tp6413
a(F638.0
F144.0
tp6414
a(F989.0
F176.0
tp6415
aaa(lp6416
(I1
F0.141
tp6417
a(F711.0
F164.0
tp6418
a(F658.0
F184.0
tp6419
aaa(lp6420
(I0
F0.0143
tp6421
a(F1181.0
F255.0
tp6422
a(lp6423
(I7
F0.106
tp6424
a(F1130.0
F403.0
tp6425
a(F555.0
F335.0
tp6426
aaaaa(lp6427
(I6
F0.5344
tp6428
a(lp6429
(I2
F0.0001
tp6430
a(lp6431
(I1
F0.1513
tp6432
a(F945.0
F212.0
tp6433
a(lp6434
(I3
F0.1938
tp6435
a(F603.0
F235.0
tp6436
a(F685.0
F170.0
tp6437
aaa(lp6438
(I4
F0.4634
tp6439
a(F869.0
F545.0
tp6440
a(F605.0
F718.0
tp6441
aaa(lp6442
(I3
F0.2146
tp6443
a(lp6444
(I1
F0.1669
tp6445
a(F623.0
F798.0
tp6446
a(F265.0
F669.0
tp6447
aa(F176.0
F1353.0
tp6448
aaaa(lp6449
(I3
F0.122
tp6450
a(lp6451
(I3
F0.0669
tp6452
a(lp6453
(I3
F0.0264
tp6454
a(lp6455
(I2
F0.9212
tp6456
a(lp6457
(I3
F0.0086
tp6458
a(lp6459
(I7
F0.0527
tp6460
a(lp6461
(I5
F0.0069
tp6462
a(lp6463
(I0
F0.3122
tp6464
a(lp6465
(I0
F-0.0002
tp6466
a(F819.0
F25.0
tp6467
a(lp6468
(I7
F-0.0121
tp6469
a(F845.0
F20.0
tp6470
a(F922.0
F17.0
tp6471
aaa(F1188.0
F12.0
tp6472
aa(F1264.0
F89.0
tp6473
aa(F1427.0
F125.0
tp6474
aa(lp6475
(I7
F0.0348
tp6476
a(F1378.0
F73.0
tp6477
a(F795.0
F120.0
tp6478
aaa(lp6479
(I5
F0.0131
tp6480
a(F1376.0
F13.0
tp6481
a(F788.0
F56.0
tp6482
aaa(lp6483
(I7
F0.0831
tp6484
a(lp6485
(I5
F0.0692
tp6486
a(lp6487
(I3
F0.0327
tp6488
a(F830.0
F52.0
tp6489
a(lp6490
(I1
F0.0538
tp6491
a(lp6492
(I7
F0.0256
tp6493
a(F953.0
F50.0
tp6494
a(lp6495
(I7
F0.0463
tp6496
a(F796.0
F89.0
tp6497
a(F778.0
F60.0
tp6498
aaa(F1178.0
F116.0
tp6499
aaa(F691.0
F111.0
tp6500
aa(F978.0
F269.0
tp6501
aaa(lp6502
(I6
F0.2477
tp6503
a(lp6504
(I6
F0.0134
tp6505
a(lp6506
(I7
F0.0606
tp6507
a(F1256.0
F233.0
tp6508
a(lp6509
(I7
F0.1046
tp6510
a(F717.0
F89.0
tp6511
a(F760.0
F67.0
tp6512
aaa(F676.0
F164.0
tp6513
aa(lp6514
(I7
F0.1051
tp6515
a(lp6516
(I1
F0.0888
tp6517
a(F1071.0
F202.0
tp6518
a(F764.0
F259.0
tp6519
aa(F712.0
F534.0
tp6520
aaaa(lp6521
(I1
F0.2166
tp6522
a(lp6523
(I2
F0.0607
tp6524
a(lp6525
(I3
F0.1631
tp6526
a(lp6527
(I5
F0.1382
tp6528
a(F681.0
F185.0
tp6529
a(F556.0
F214.0
tp6530
aa(F919.0
F203.0
tp6531
aa(lp6532
(I6
F0.6541
tp6533
a(lp6534
(I4
F0.1007
tp6535
a(F609.0
F197.0
tp6536
a(lp6537
(I5
F0.1394
tp6538
a(F561.0
F227.0
tp6539
a(F590.0
F503.0
tp6540
aaa(lp6541
(I7
F0.164
tp6542
a(F645.0
F563.0
tp6543
a(F205.0
F639.0
tp6544
aaaa(lp6545
(I5
F0.2261
tp6546
a(F443.0
F389.0
tp6547
a(lp6548
(I6
F0.3165
tp6549
a(F508.0
F291.0
tp6550
a(F161.0
F1364.0
tp6551
aaaaa(lp6552
(I6
F2.6047
tp6553
a(lp6554
(I5
F0.111
tp6555
a(lp6556
(I3
F0.0672
tp6557
a(lp6558
(I1
F0.029
tp6559
a(lp6560
(I3
F0.0192
tp6561
a(lp6562
(I2
F0.1818
tp6563
a(lp6564
(I5
F0.0147
tp6565
a(lp6566
(I1
F-0.0396
tp6567
a(F1102.0
F16.0
tp6568
a(lp6569
(I3
F-0.0142
tp6570
a(F1079.0
F32.0
tp6571
a(F1333.0
F70.0
tp6572
aaa(F1195.0
F86.0
tp6573
aa(lp6574
(I5
F0.0201
tp6575
a(lp6576
(I7
F0.0141
tp6577
a(lp6578
(I3
F-0.0058
tp6579
a(lp6580
(I2
F0.7523
tp6581
a(F775.0
F7.0
tp6582
a(F807.0
F3.0
tp6583
aa(F949.0
F15.0
tp6584
aa(F929.0
F38.0
tp6585
aa(F775.0
F49.0
tp6586
aaa(lp6587
(I4
F0.3866
tp6588
a(F976.0
F54.0
tp6589
a(F854.0
F64.0
tp6590
aaa(lp6591
(I2
F0.3764
tp6592
a(lp6593
(I5
F0.0531
tp6594
a(lp6595
(I5
F0.0363
tp6596
a(F1039.0
F102.0
tp6597
a(F787.0
F49.0
tp6598
aa(F996.0
F109.0
tp6599
aa(lp6600
(I5
F0.0566
tp6601
a(lp6602
(I4
F0.7407
tp6603
a(F750.0
F89.0
tp6604
a(F1243.0
F76.0
tp6605
aa(F831.0
F159.0
tp6606
aaaa(lp6607
(I5
F0.0858
tp6608
a(lp6609
(I0
F0.1047
tp6610
a(F1485.0
F229.0
tp6611
a(lp6612
(I2
F1.4119
tp6613
a(lp6614
(I0
F0.7578
tp6615
a(F940.0
F222.0
tp6616
a(F739.0
F127.0
tp6617
aa(F697.0
F197.0
tp6618
aaa(lp6619
(I6
F0.2539
tp6620
a(F1153.0
F303.0
tp6621
a(F947.0
F374.0
tp6622
aaaa(lp6623
(I3
F0.2143
tp6624
a(lp6625
(I4
F0.2311
tp6626
a(lp6627
(I2
F0.0024
tp6628
a(lp6629
(I3
F0.1227
tp6630
a(F640.0
F139.0
tp6631
a(lp6632
(I3
F0.1616
tp6633
a(F882.0
F245.0
tp6634
a(F647.0
F148.0
tp6635
aaa(F748.0
F342.0
tp6636
aa(lp6637
(I5
F0.1559
tp6638
a(lp6639
(I6
F0.5907
tp6640
a(F693.0
F300.0
tp6641
a(F738.0
F552.0
tp6642
aa(lp6643
(I7
F0.1535
tp6644
a(F536.0
F455.0
tp6645
a(F307.0
F610.0
tp6646
aaaa(lp6647
(I2
F0.1362
tp6648
a(F558.0
F238.0
tp6649
a(F356.0
F1088.0
tp6650
aaaa(F368.0
F1019.0
tp6651
aa(lp6652
(I0
F2.3481
tp6653
a(lp6654
(I5
F0.1281
tp6655
a(lp6656
(I5
F0.0598
tp6657
a(lp6658
(I7
F0.0268
tp6659
a(lp6660
(I4
F0.3832
tp6661
a(lp6662
(I3
F0.0608
tp6663
a(lp6664
(I3
F0.0035
tp6665
a(lp6666
(I1
F-0.0414
tp6667
a(F817.0
F9.0
tp6668
a(lp6669
(I7
F-0.0115
tp6670
a(F921.0
F27.0
tp6671
a(F1021.0
F13.0
tp6672
aaa(lp6673
(I1
F0.0268
tp6674
a(F1105.0
F67.0
tp6675
a(F775.0
F31.0
tp6676
aaa(F677.0
F118.0
tp6677
aa(lp6678
(I5
F0.0136
tp6679
a(lp6680
(I1
F0.0032
tp6681
a(lp6682
(I7
F-0.0116
tp6683
a(F892.0
F3.0
tp6684
a(F901.0
F8.0
tp6685
aa(F777.0
F25.0
tp6686
aa(lp6687
(I5
F0.0282
tp6688
a(F802.0
F31.0
tp6689
a(F741.0
F45.0
tp6690
aaaa(lp6691
(I6
F0.9939
tp6692
a(lp6693
(I5
F-0.0074
tp6694
a(F807.0
F37.0
tp6695
a(lp6696
(I3
F0.0535
tp6697
a(lp6698
(I4
F0.0231
tp6699
a(F1396.0
F96.0
tp6700
a(F1486.0
F140.0
tp6701
aa(F1154.0
F181.0
tp6702
aaa(lp6703
(I6
F1.6318
tp6704
a(F1353.0
F61.0
tp6705
a(F728.0
F80.0
tp6706
aaaa(lp6707
(I4
F0.099
tp6708
a(lp6709
(I1
F0.0865
tp6710
a(F1188.0
F133.0
tp6711
a(lp6712
(I3
F0.1128
tp6713
a(F884.0
F146.0
tp6714
a(F1031.0
F247.0
tp6715
aaa(lp6716
(I7
F0.0989
tp6717
a(lp6718
(I3
F0.0898
tp6719
a(lp6720
(I7
F0.0696
tp6721
a(lp6722
(I2
F0.6842
tp6723
a(F736.0
F75.0
tp6724
a(F703.0
F104.0
tp6725
aa(F764.0
F173.0
tp6726
aa(F1150.0
F347.0
tp6727
aa(lp6728
(I5
F0.1062
tp6729
a(F538.0
F251.0
tp6730
a(F497.0
F293.0
tp6731
aaaaa(lp6732
(I4
F0.2725
tp6733
a(lp6734
(I6
F0.0135
tp6735
a(lp6736
(I7
F0.1789
tp6737
a(lp6738
(I7
F0.1107
tp6739
a(F660.0
F149.0
tp6740
a(F717.0
F213.0
tp6741
aa(F747.0
F147.0
tp6742
aa(F689.0
F512.0
tp6743
aa(lp6744
(I6
F0.58
tp6745
a(lp6746
(I7
F0.0925
tp6747
a(F511.0
F325.0
tp6748
a(F386.0
F388.0
tp6749
aa(lp6750
(I3
F0.2134
tp6751
a(lp6752
(I0
F0.9938
tp6753
a(F350.0
F489.0
tp6754
a(F326.0
F549.0
tp6755
aa(F120.0
F678.0
tp6756
aaaaa(lp6757
(I1
F0.1972
tp6758
a(F497.0
F302.0
tp6759
a(F142.0
F978.0
tp6760
aaa(lp6761
(I5
F0.1336
tp6762
a(lp6763
(I1
F0.0617
tp6764
a(lp6765
(I7
F0.0268
tp6766
a(lp6767
(I1
F0.0399
tp6768
a(lp6769
(I3
F0.0329
tp6770
a(lp6771
(I5
F0.0069
tp6772
a(lp6773
(I0
F0.3034
tp6774
a(lp6775
(I1
F-0.0288
tp6776
a(F1057.0
F16.0
tp6777
a(F1460.0
F43.0
tp6778
aa(lp6779
(I5
F-0.0126
tp6780
a(F1215.0
F13.0
tp6781
a(F1003.0
F2.0
tp6782
aaa(lp6783
(I1
F0.0024
tp6784
a(F769.0
F44.0
tp6785
a(lp6786
(I5
F0.0228
tp6787
a(F1052.0
F28.0
tp6788
a(F817.0
F28.0
tp6789
aaaa(F749.0
F54.0
tp6790
aa(F886.0
F71.0
tp6791
aa(lp6792
(I5
F0.0532
tp6793
a(lp6794
(I1
F0.0255
tp6795
a(lp6796
(I2
F0.3313
tp6797
a(lp6798
(I5
F0.0074
tp6799
a(F1057.0
F29.0
tp6800
a(F936.0
F65.0
tp6801
aa(F928.0
F66.0
tp6802
aa(lp6803
(I5
F0.0353
tp6804
a(F1043.0
F118.0
tp6805
a(F1404.0
F102.0
tp6806
aaa(lp6807
(I7
F0.0697
tp6808
a(F946.0
F115.0
tp6809
a(F886.0
F153.0
tp6810
aaaa(lp6811
(I5
F0.0867
tp6812
a(lp6813
(I3
F0.123
tp6814
a(lp6815
(I6
F0.0005
tp6816
a(lp6817
(I7
F0.0502
tp6818
a(F828.0
F101.0
tp6819
a(F768.0
F65.0
tp6820
aa(lp6821
(I3
F0.0699
tp6822
a(F761.0
F90.0
tp6823
a(F1198.0
F261.0
tp6824
aaa(F941.0
F262.0
tp6825
aa(lp6826
(I6
F0.0131
tp6827
a(lp6828
(I5
F0.111
tp6829
a(F979.0
F204.0
tp6830
a(F791.0
F197.0
tp6831
aa(lp6832
(I7
F0.1196
tp6833
a(lp6834
(I3
F0.1177
tp6835
a(F1091.0
F378.0
tp6836
a(F549.0
F251.0
tp6837
aa(F538.0
F362.0
tp6838
aaaaa(lp6839
(I6
F0.3455
tp6840
a(lp6841
(I4
F0.0612
tp6842
a(lp6843
(I7
F0.1188
tp6844
a(F665.0
F130.0
tp6845
a(lp6846
(I7
F0.1745
tp6847
a(F572.0
F223.0
tp6848
a(F794.0
F238.0
tp6849
aaa(lp6850
(I0
F0.5663
tp6851
a(F675.0
F378.0
tp6852
a(F359.0
F438.0
tp6853
aaa(lp6854
(I7
F0.2131
tp6855
a(lp6856
(I5
F0.1735
tp6857
a(F649.0
F703.0
tp6858
a(F373.0
F783.0
tp6859
aa(lp6860
(I6
F2.2269
tp6861
a(F137.0
F642.0
tp6862
a(F55.0
F876.0
tp6863
aaaaa(lp6864
(I1
F0.1116
tp6865
a(lp6866
(I6
F1.9442
tp6867
a(lp6868
(I3
F0.0538
tp6869
a(lp6870
(I1
F0.0189
tp6871
a(lp6872
(I2
F-0.0139
tp6873
a(lp6874
(I0
F-0.0978
tp6875
a(F1020.0
F46.0
tp6876
a(F743.0
F65.0
tp6877
aa(lp6878
(I6
F0.1347
tp6879
a(lp6880
(I3
F0.008
tp6881
a(lp6882
(I1
F-0.0214
tp6883
a(F1309.0
F60.0
tp6884
a(F1494.0
F34.0
tp6885
aa(F775.0
F36.0
tp6886
aa(lp6887
(I7
F0.0343
tp6888
a(lp6889
(I3
F-0.0197
tp6890
a(F939.0
F1.0
tp6891
a(lp6892
(I7
F0.0065
tp6893
a(F1003.0
F22.0
tp6894
a(F982.0
F13.0
tp6895
aaa(F733.0
F59.0
tp6896
aaaa(lp6897
(I5
F0.0669
tp6898
a(lp6899
(I7
F0.0694
tp6900
a(lp6901
(I6
F0.8427
tp6902
a(lp6903
(I7
F0.0129
tp6904
a(F1096.0
F50.0
tp6905
a(lp6906
(I6
F0.1362
tp6907
a(F977.0
F62.0
tp6908
a(F857.0
F96.0
tp6909
aaa(F1316.0
F44.0
tp6910
aa(F701.0
F85.0
tp6911
aa(F773.0
F149.0
tp6912
aaa(lp6913
(I2
F0.0078
tp6914
a(lp6915
(I3
F0.0774
tp6916
a(F1010.0
F105.0
tp6917
a(F1242.0
F256.0
tp6918
aa(lp6919
(I1
F0.0878
tp6920
a(lp6921
(I7
F0.0806
tp6922
a(lp6923
(I7
F0.0579
tp6924
a(lp6925
(I5
F0.0619
tp6926
a(F882.0
F105.0
tp6927
a(F676.0
F132.0
tp6928
aa(F705.0
F137.0
tp6929
aa(F568.0
F221.0
tp6930
aa(lp6931
(I5
F0.0946
tp6932
a(F641.0
F150.0
tp6933
a(F609.0
F288.0
tp6934
aaaaa(F988.0
F213.0
tp6935
aa(lp6936
(I5
F0.2207
tp6937
a(lp6938
(I5
F0.1271
tp6939
a(lp6940
(I2
F0.9277
tp6941
a(lp6942
(I1
F0.1236
tp6943
a(F689.0
F190.0
tp6944
a(lp6945
(I0
F0.0772
tp6946
a(F712.0
F106.0
tp6947
a(F665.0
F188.0
tp6948
aaa(F756.0
F353.0
tp6949
aa(lp6950
(I6
F0.3633
tp6951
a(lp6952
(I0
F0.1107
tp6953
a(lp6954
(I3
F0.1674
tp6955
a(F909.0
F305.0
tp6956
a(F647.0
F176.0
tp6957
aa(F693.0
F476.0
tp6958
aa(lp6959
(I6
F1.3323
tp6960
a(F637.0
F701.0
tp6961
a(F354.0
F671.0
tp6962
aaaa(lp6963
(I4
F0.4463
tp6964
a(F528.0
F273.0
tp6965
a(lp6966
(I5
F0.3344
tp6967
a(F215.0
F898.0
tp6968
a(F62.0
F788.0
tp6969
aaaaa(lp6970
(I3
F0.1219
tp6971
a(lp6972
(I1
F0.0619
tp6973
a(lp6974
(I1
F0.028
tp6975
a(lp6976
(I7
F0.0438
tp6977
a(lp6978
(I3
F0.0124
tp6979
a(lp6980
(I0
F-0.0002
tp6981
a(F1069.0
F49.0
tp6982
a(lp6983
(I7
F0.0037
tp6984
a(lp6985
(I0
F0.3081
tp6986
a(F1456.0
F32.0
tp6987
a(lp6988
(I2
F0.8741
tp6989
a(F939.0
F5.0
tp6990
a(F894.0
F7.0
tp6991
aaa(lp6992
(I5
F0.0016
tp6993
a(F897.0
F14.0
tp6994
a(F1116.0
F49.0
tp6995
aaaa(lp6996
(I7
F0.0112
tp6997
a(F918.0
F37.0
tp6998
a(F1162.0
F68.0
tp6999
aaa(lp7000
(I3
F0.0075
tp7001
a(lp7002
(I3
F-0.0249
tp7003
a(F762.0
F64.0
tp7004
a(F736.0
F52.0
tp7005
aa(F921.0
F115.0
tp7006
aaa(lp7007
(I7
F0.0894
tp7008
a(lp7009
(I2
F1.069
tp7010
a(lp7011
(I7
F0.0256
tp7012
a(F1220.0
F78.0
tp7013
a(lp7014
(I5
F0.0533
tp7015
a(lp7016
(I3
F0.0393
tp7017
a(F764.0
F65.0
tp7018
a(F760.0
F50.0
tp7019
aa(F746.0
F96.0
tp7020
aaa(F1235.0
F138.0
tp7021
aa(F669.0
F166.0
tp7022
aaa(lp7023
(I4
F0.1556
tp7024
a(lp7025
(I5
F0.0855
tp7026
a(lp7027
(I7
F0.0563
tp7028
a(F683.0
F111.0
tp7029
a(F808.0
F110.0
tp7030
aa(lp7031
(I1
F0.1025
tp7032
a(F672.0
F135.0
tp7033
a(F782.0
F180.0
tp7034
aaa(lp7035
(I3
F0.0899
tp7036
a(lp7037
(I6
F1.3924
tp7038
a(lp7039
(I0
F0.8582
tp7040
a(F913.0
F249.0
tp7041
a(F670.0
F124.0
tp7042
aa(F560.0
F184.0
tp7043
aa(lp7044
(I4
F1.151
tp7045
a(F931.0
F333.0
tp7046
a(F530.0
F261.0
tp7047
aaaaa(lp7048
(I2
F0.3235
tp7049
a(lp7050
(I0
F0.002
tp7051
a(lp7052
(I1
F0.1443
tp7053
a(F898.0
F201.0
tp7054
a(F1663.0
F511.0
tp7055
aa(F919.0
F644.0
tp7056
aa(lp7057
(I1
F0.2191
tp7058
a(lp7059
(I4
F0.4853
tp7060
a(F809.0
F377.0
tp7061
a(lp7062
(I4
F1.6565
tp7063
a(lp7064
(I3
F0.1602
tp7065
a(F482.0
F379.0
tp7066
a(F399.0
F513.0
tp7067
aa(F316.0
F593.0
tp7068
aaa(lp7069
(I1
F0.3043
tp7070
a(F316.0
F739.0
tp7071
a(F123.0
F993.0
tp7072
aaaaa(lp7073
(I1
F0.1149
tp7074
a(lp7075
(I3
F0.0379
tp7076
a(lp7077
(I7
F0.0249
tp7078
a(lp7079
(I3
F0.0158
tp7080
a(lp7081
(I1
F0.0129
tp7082
a(lp7083
(I4
F0.4822
tp7084
a(lp7085
(I1
F-0.0377
tp7086
a(F926.0
F11.0
tp7087
a(lp7088
(I4
F0.0002
tp7089
a(F1376.0
F48.0
tp7090
a(F966.0
F22.0
tp7091
aaa(lp7092
(I3
F-0.0201
tp7093
a(F807.0
F7.0
tp7094
a(F1319.0
F22.0
tp7095
aaa(F759.0
F44.0
tp7096
aa(lp7097
(I4
F0.3347
tp7098
a(F761.0
F49.0
tp7099
a(F842.0
F32.0
tp7100
aaa(lp7101
(I2
F0.7966
tp7102
a(lp7103
(I0
F0.1209
tp7104
a(lp7105
(I3
F0.0175
tp7106
a(lp7107
(I0
F-0.013
tp7108
a(F878.0
F54.0
tp7109
a(F999.0
F40.0
tp7110
aa(F734.0
F70.0
tp7111
aa(lp7112
(I7
F0.0481
tp7113
a(F758.0
F50.0
tp7114
a(F726.0
F83.0
tp7115
aaa(F1077.0
F128.0
tp7116
aaa(lp7117
(I4
F0.0148
tp7118
a(lp7119
(I3
F0.093
tp7120
a(lp7121
(I7
F0.0594
tp7122
a(F1159.0
F96.0
tp7123
a(F1262.0
F154.0
tp7124
aa(F1059.0
F186.0
tp7125
aa(lp7126
(I6
F0.2572
tp7127
a(lp7128
(I3
F0.0785
tp7129
a(F1317.0
F153.0
tp7130
a(F856.0
F226.0
tp7131
aa(lp7132
(I3
F0.0823
tp7133
a(lp7134
(I0
F0.545
tp7135
a(F688.0
F215.0
tp7136
a(lp7137
(I7
F0.065
tp7138
a(F1229.0
F103.0
tp7139
a(F697.0
F181.0
tp7140
aaa(lp7141
(I5
F0.0984
tp7142
a(F738.0
F198.0
tp7143
a(F510.0
F283.0
tp7144
aaaaaa(lp7145
(I5
F0.1954
tp7146
a(lp7147
(I0
F0.0562
tp7148
a(lp7149
(I7
F0.0859
tp7150
a(F731.0
F131.0
tp7151
a(lp7152
(I1
F0.1453
tp7153
a(F773.0
F184.0
tp7154
a(F790.0
F278.0
tp7155
aaa(lp7156
(I4
F0.3488
tp7157
a(lp7158
(I3
F0.1613
tp7159
a(F671.0
F226.0
tp7160
a(F575.0
F305.0
tp7161
aa(lp7162
(I6
F0.5725
tp7163
a(F756.0
F505.0
tp7164
a(lp7165
(I5
F0.1391
tp7166
a(F505.0
F318.0
tp7167
a(F441.0
F706.0
tp7168
aaaaa(lp7169
(I4
F0.0363
tp7170
a(F645.0
F183.0
tp7171
a(lp7172
(I6
F0.7538
tp7173
a(F379.0
F628.0
tp7174
a(lp7175
(I7
F0.2742
tp7176
a(F179.0
F695.0
tp7177
a(F64.0
F894.0
tp7178
aaaaaa(lp7179
(I5
F0.1345
tp7180
a(lp7181
(I1
F0.0609
tp7182
a(lp7183
(I6
F1.8428
tp7184
a(lp7185
(I4
F-0.1509
tp7186
a(F1033.0
F37.0
tp7187
a(lp7188
(I6
F0.0038
tp7189
a(lp7190
(I7
F0.013
tp7191
a(lp7192
(I0
F0.2687
tp7193
a(lp7194
(I1
F0.0065
tp7195
a(F1471.0
F41.0
tp7196
a(F741.0
F40.0
tp7197
aa(F1157.0
F58.0
tp7198
aa(lp7199
(I0
F0.023
tp7200
a(lp7201
(I3
F0.0154
tp7202
a(F808.0
F48.0
tp7203
a(F988.0
F68.0
tp7204
aa(F888.0
F70.0
tp7205
aaa(lp7206
(I3
F0.0541
tp7207
a(lp7208
(I7
F0.0565
tp7209
a(lp7210
(I7
F0.0186
tp7211
a(lp7212
(I3
F0.0055
tp7213
a(lp7214
(I2
F0.3
tp7215
a(F821.0
F17.0
tp7216
a(F1350.0
F6.0
tp7217
aa(F1174.0
F44.0
tp7218
aa(lp7219
(I6
F0.8442
tp7220
a(F1353.0
F105.0
tp7221
a(F1423.0
F53.0
tp7222
aaa(F1232.0
F174.0
tp7223
aa(F758.0
F146.0
tp7224
aaaa(F763.0
F87.0
tp7225
aa(lp7226
(I3
F0.0799
tp7227
a(lp7228
(I4
F0.1446
tp7229
a(F1092.0
F122.0
tp7230
a(lp7231
(I1
F0.0725
tp7232
a(F791.0
F178.0
tp7233
a(F789.0
F143.0
tp7234
aaa(lp7235
(I6
F0.5214
tp7236
a(lp7237
(I4
F0.2239
tp7238
a(lp7239
(I3
F0.1386
tp7240
a(lp7241
(I5
F0.0992
tp7242
a(F1199.0
F166.0
tp7243
a(F1049.0
F204.0
tp7244
aa(F952.0
F261.0
tp7245
aa(F1130.0
F410.0
tp7246
aa(lp7247
(I3
F0.1188
tp7248
a(F1120.0
F436.0
tp7249
a(F535.0
F288.0
tp7250
aaaaa(lp7251
(I5
F0.2027
tp7252
a(lp7253
(I0
F0.006
tp7254
a(lp7255
(I3
F0.1502
tp7256
a(F708.0
F137.0
tp7257
a(F664.0
F207.0
tp7258
aa(lp7259
(I7
F0.1444
tp7260
a(lp7261
(I6
F0.3386
tp7262
a(F604.0
F347.0
tp7263
a(F420.0
F376.0
tp7264
aa(F658.0
F935.0
tp7265
aaa(lp7266
(I1
F0.2162
tp7267
a(F412.0
F509.0
tp7268
a(lp7269
(I0
F0.4293
tp7270
a(F557.0
F276.0
tp7271
a(lp7272
(I6
F1.9265
tp7273
a(F177.0
F679.0
tp7274
a(F62.0
F913.0
tp7275
aaaaaa(lp7276
(I5
F0.1196
tp7277
a(lp7278
(I1
F0.0673
tp7279
a(lp7280
(I3
F0.0176
tp7281
a(lp7282
(I0
F0.4788
tp7283
a(lp7284
(I6
F0.9672
tp7285
a(lp7286
(I1
F0.0087
tp7287
a(lp7288
(I3
F-0.0379
tp7289
a(F1246.0
F22.0
tp7290
a(lp7291
(I6
F0.056
tp7292
a(lp7293
(I7
F0.0041
tp7294
a(F1037.0
F41.0
tp7295
a(F772.0
F44.0
tp7296
aa(F976.0
F26.0
tp7297
aaa(F980.0
F69.0
tp7298
aa(F929.0
F55.0
tp7299
aa(lp7300
(I4
F1.3381
tp7301
a(lp7302
(I2
F0.9409
tp7303
a(F1436.0
F35.0
tp7304
a(F1008.0
F18.0
tp7305
aa(F770.0
F28.0
tp7306
aaa(lp7307
(I1
F0.0365
tp7308
a(lp7309
(I7
F0.0528
tp7310
a(lp7311
(I1
F0.0202
tp7312
a(F841.0
F77.0
tp7313
a(lp7314
(I5
F0.0303
tp7315
a(F929.0
F50.0
tp7316
a(F762.0
F55.0
tp7317
aaa(F738.0
F95.0
tp7318
aa(lp7319
(I3
F0.0678
tp7320
a(lp7321
(I6
F0.2049
tp7322
a(lp7323
(I1
F0.051
tp7324
a(F889.0
F86.0
tp7325
a(F729.0
F55.0
tp7326
aa(lp7327
(I2
F1.0301
tp7328
a(F1137.0
F137.0
tp7329
a(F810.0
F76.0
tp7330
aaa(F687.0
F133.0
tp7331
aaaa(lp7332
(I6
F0.0087
tp7333
a(lp7334
(I3
F0.1219
tp7335
a(lp7336
(I5
F0.0832
tp7337
a(F1236.0
F132.0
tp7338
a(F981.0
F162.0
tp7339
aa(F965.0
F290.0
tp7340
aa(lp7341
(I1
F0.0913
tp7342
a(lp7343
(I0
F0.8016
tp7344
a(F809.0
F190.0
tp7345
a(F797.0
F141.0
tp7346
aa(lp7347
(I5
F0.1055
tp7348
a(lp7349
(I0
F0.5863
tp7350
a(F608.0
F155.0
tp7351
a(F674.0
F242.0
tp7352
aa(F563.0
F308.0
tp7353
aaaaa(lp7354
(I6
F0.3033
tp7355
a(lp7356
(I0
F0.608
tp7357
a(lp7358
(I6
F0.0033
tp7359
a(lp7360
(I7
F0.1275
tp7361
a(F1196.0
F326.0
tp7362
a(lp7363
(I5
F0.1876
tp7364
a(F824.0
F146.0
tp7365
a(F612.0
F155.0
tp7366
aaa(F696.0
F406.0
tp7367
aa(F472.0
F498.0
tp7368
aa(lp7369
(I7
F0.2076
tp7370
a(lp7371
(I4
F1.6575
tp7372
a(lp7373
(I5
F0.1597
tp7374
a(F711.0
F512.0
tp7375
a(F444.0
F558.0
tp7376
aa(F351.0
F657.0
tp7377
aa(lp7378
(I3
F0.267
tp7379
a(F175.0
F735.0
tp7380
a(F66.0
F889.0
tp7381
aaaaa(lp7382
(I7
F0.1471
tp7383
a(lp7384
(I7
F0.0864
tp7385
a(lp7386
(I1
F0.0801
tp7387
a(lp7388
(I1
F0.0398
tp7389
a(lp7390
(I7
F0.0569
tp7391
a(lp7392
(I5
F0.0197
tp7393
a(lp7394
(I4
F0.2959
tp7395
a(lp7396
(I3
F-0.0172
tp7397
a(lp7398
(I7
F-0.0134
tp7399
a(F933.0
F19.0
tp7400
a(F910.0
F14.0
tp7401
aa(lp7402
(I7
F-0.0096
tp7403
a(F743.0
F50.0
tp7404
a(F1451.0
F61.0
tp7405
aaa(lp7406
(I1
F0.0077
tp7407
a(lp7408
(I2
F0.9915
tp7409
a(lp7410
(I0
F0.5335
tp7411
a(F781.0
F10.0
tp7412
a(F768.0
F7.0
tp7413
aa(F828.0
F2.0
tp7414
aa(F929.0
F25.0
tp7415
aaa(lp7416
(I4
F0.8543
tp7417
a(lp7418
(I2
F0.3112
tp7419
a(F1357.0
F81.0
tp7420
a(F725.0
F67.0
tp7421
aa(F1321.0
F61.0
tp7422
aaa(F933.0
F104.0
tp7423
aa(lp7424
(I6
F0.7564
tp7425
a(lp7426
(I3
F0.068
tp7427
a(lp7428
(I7
F0.0268
tp7429
a(F867.0
F66.0
tp7430
a(F1266.0
F148.0
tp7431
aa(F914.0
F191.0
tp7432
aa(lp7433
(I5
F0.0574
tp7434
a(F934.0
F69.0
tp7435
a(F797.0
F101.0
tp7436
aaaa(lp7437
(I7
F0.0659
tp7438
a(lp7439
(I2
F1.6414
tp7440
a(lp7441
(I5
F0.1124
tp7442
a(lp7443
(I0
F0.4006
tp7444
a(F1016.0
F152.0
tp7445
a(F761.0
F170.0
tp7446
aa(F761.0
F315.0
tp7447
aa(F463.0
F342.0
tp7448
aa(F1054.0
F282.0
tp7449
aaa(lp7450
(I5
F0.0891
tp7451
a(lp7452
(I4
F0.1741
tp7453
a(F1242.0
F126.0
tp7454
a(F651.0
F136.0
tp7455
aa(lp7456
(I4
F0.1272
tp7457
a(lp7458
(I1
F0.1215
tp7459
a(F737.0
F137.0
tp7460
a(F876.0
F291.0
tp7461
aa(lp7462
(I0
F1.3654
tp7463
a(lp7464
(I7
F0.1214
tp7465
a(F803.0
F441.0
tp7466
a(F439.0
F362.0
tp7467
aa(F454.0
F398.0
tp7468
aaaaa(lp7469
(I6
F0.1557
tp7470
a(lp7471
(I7
F0.2414
tp7472
a(F1341.0
F323.0
tp7473
a(F669.0
F128.0
tp7474
aa(lp7475
(I4
F0.9009
tp7476
a(lp7477
(I2
F0.2784
tp7478
a(F442.0
F388.0
tp7479
a(F328.0
F523.0
tp7480
aa(lp7481
(I7
F0.2195
tp7482
a(F323.0
F708.0
tp7483
a(F110.0
F1235.0
tp7484
aaaaa(lp7485
(I3
F0.1225
tp7486
a(lp7487
(I5
F0.0665
tp7488
a(lp7489
(I3
F0.0437
tp7490
a(lp7491
(I1
F0.014
tp7492
a(lp7493
(I5
F0.0136
tp7494
a(lp7495
(I2
F0.5101
tp7496
a(lp7497
(I3
F-0.0305
tp7498
a(F1704.0
F28.0
tp7499
a(lp7500
(I4
F0.1518
tp7501
a(lp7502
(I7
F0.0064
tp7503
a(F940.0
F41.0
tp7504
a(F830.0
F28.0
tp7505
aa(F863.0
F17.0
tp7506
aaa(lp7507
(I1
F-0.0107
tp7508
a(F1080.0
F12.0
tp7509
a(F972.0
F2.0
tp7510
aaa(lp7511
(I1
F-0.0029
tp7512
a(F829.0
F64.0
tp7513
a(F913.0
F40.0
tp7514
aaa(lp7515
(I7
F0.0634
tp7516
a(lp7517
(I7
F0.0227
tp7518
a(lp7519
(I2
F0.4683
tp7520
a(F1002.0
F64.0
tp7521
a(F885.0
F16.0
tp7522
aa(lp7523
(I4
F0.8137
tp7524
a(F1272.0
F98.0
tp7525
a(F860.0
F40.0
tp7526
aaa(F702.0
F78.0
tp7527
aaa(lp7528
(I1
F0.0674
tp7529
a(lp7530
(I2
F0.3944
tp7531
a(F1293.0
F114.0
tp7532
a(F1374.0
F177.0
tp7533
aa(F1157.0
F176.0
tp7534
aaa(lp7535
(I4
F0.0237
tp7536
a(lp7537
(I3
F0.0787
tp7538
a(F872.0
F92.0
tp7539
a(F1325.0
F238.0
tp7540
aa(lp7541
(I1
F0.1145
tp7542
a(lp7543
(I7
F0.1036
tp7544
a(lp7545
(I3
F0.0788
tp7546
a(lp7547
(I5
F0.0834
tp7548
a(F871.0
F147.0
tp7549
a(F661.0
F148.0
tp7550
aa(lp7551
(I0
F0.8311
tp7552
a(F662.0
F167.0
tp7553
a(F624.0
F205.0
tp7554
aaa(F723.0
F420.0
tp7555
aa(F550.0
F358.0
tp7556
aaaa(lp7557
(I5
F0.2038
tp7558
a(lp7559
(I4
F0.2472
tp7560
a(lp7561
(I5
F0.1422
tp7562
a(lp7563
(I2
F0.2898
tp7564
a(F1310.0
F287.0
tp7565
a(F578.0
F202.0
tp7566
aa(F1205.0
F458.0
tp7567
aa(lp7568
(I2
F1.1297
tp7569
a(lp7570
(I7
F0.1286
tp7571
a(F648.0
F360.0
tp7572
a(F433.0
F491.0
tp7573
aa(F679.0
F812.0
tp7574
aaa(lp7575
(I4
F0.1688
tp7576
a(F607.0
F254.0
tp7577
a(lp7578
(I3
F0.2607
tp7579
a(F296.0
F786.0
tp7580
a(F129.0
F1191.0
tp7581
aaaaa(lp7582
(I1
F0.1137
tp7583
a(lp7584
(I6
F2.1519
tp7585
a(lp7586
(I3
F0.0684
tp7587
a(lp7588
(I4
F0.0987
tp7589
a(lp7590
(I7
F0.0241
tp7591
a(lp7592
(I1
F-0.0214
tp7593
a(F1245.0
F17.0
tp7594
a(lp7595
(I5
F0.0047
tp7596
a(F1233.0
F32.0
tp7597
a(F1036.0
F66.0
tp7598
aaa(lp7599
(I5
F0.0126
tp7600
a(F1195.0
F59.0
tp7601
a(F2235.0
F210.0
tp7602
aaa(lp7603
(I5
F0.065
tp7604
a(lp7605
(I3
F0.019
tp7606
a(lp7607
(I5
F0.0069
tp7608
a(lp7609
(I4
F0.7802
tp7610
a(lp7611
(I2
F0.3338
tp7612
a(F805.0
F25.0
tp7613
a(F821.0
F10.0
tp7614
aa(F1386.0
F6.0
tp7615
aa(lp7616
(I4
F0.8351
tp7617
a(F1044.0
F64.0
tp7618
a(F945.0
F40.0
tp7619
aaa(lp7620
(I1
F0.0364
tp7621
a(lp7622
(I7
F0.0239
tp7623
a(F764.0
F30.0
tp7624
a(F903.0
F77.0
tp7625
aa(lp7626
(I0
F1.0394
tp7627
a(F1184.0
F140.0
tp7628
a(F886.0
F71.0
tp7629
aaaa(F1109.0
F313.0
tp7630
aaa(lp7631
(I2
F0.0042
tp7632
a(lp7633
(I1
F0.0833
tp7634
a(F711.0
F101.0
tp7635
a(F1037.0
F222.0
tp7636
aa(lp7637
(I5
F0.1068
tp7638
a(lp7639
(I7
F0.0893
tp7640
a(lp7641
(I1
F0.0775
tp7642
a(F805.0
F201.0
tp7643
a(F1081.0
F196.0
tp7644
aa(F592.0
F202.0
tp7645
aa(F583.0
F295.0
tp7646
aaaa(F632.0
F180.0
tp7647
aa(lp7648
(I4
F0.4587
tp7649
a(lp7650
(I4
F0.0002
tp7651
a(lp7652
(I2
F0.0001
tp7653
a(F2582.0
F581.0
tp7654
a(F682.0
F228.0
tp7655
aa(lp7656
(I1
F0.1484
tp7657
a(F585.0
F255.0
tp7658
a(F811.0
F585.0
tp7659
aaa(lp7660
(I6
F2.127
tp7661
a(lp7662
(I5
F0.1814
tp7663
a(lp7664
(I7
F0.1301
tp7665
a(F925.0
F586.0
tp7666
a(F354.0
F444.0
tp7667
aa(lp7668
(I6
F0.779
tp7669
a(F268.0
F532.0
tp7670
a(F155.0
F693.0
tp7671
aaa(F211.0
F1194.0
tp7672
aaaa(lp7673
(I1
F0.1127
tp7674
a(lp7675
(I3
F0.0538
tp7676
a(lp7677
(I5
F0.0594
tp7678
a(lp7679
(I3
F0.0164
tp7680
a(lp7681
(I7
F0.0565
tp7682
a(lp7683
(I2
F0.4792
tp7684
a(lp7685
(I1
F0.0094
tp7686
a(lp7687
(I0
F0.0003
tp7688
a(lp7689
(I7
F0.0056
tp7690
a(F1456.0
F37.0
tp7691
a(F873.0
F35.0
tp7692
aa(F1467.0
F21.0
tp7693
aa(F746.0
F36.0
tp7694
aa(lp7695
(I5
F0.0041
tp7696
a(lp7697
(I0
F0.9369
tp7698
a(F773.0
F6.0
tp7699
a(F972.0
F2.0
tp7700
aa(F999.0
F19.0
tp7701
aaa(F1282.0
F103.0
tp7702
aa(lp7703
(I1
F0.0491
tp7704
a(lp7705
(I7
F0.0272
tp7706
a(lp7707
(I4
F0.1928
tp7708
a(F794.0
F57.0
tp7709
a(F1157.0
F37.0
tp7710
aa(lp7711
(I3
F0.0283
tp7712
a(F761.0
F50.0
tp7713
a(lp7714
(I5
F0.0373
tp7715
a(F735.0
F94.0
tp7716
a(F870.0
F55.0
tp7717
aaaa(F761.0
F83.0
tp7718
aaa(lp7719
(I2
F0.1691
tp7720
a(F919.0
F124.0
tp7721
a(F791.0
F185.0
tp7722
aaa(lp7723
(I5
F0.092
tp7724
a(lp7725
(I4
F0.5848
tp7726
a(lp7727
(I6
F0.2546
tp7728
a(lp7729
(I4
F0.0162
tp7730
a(lp7731
(I5
F0.0574
tp7732
a(F796.0
F76.0
tp7733
a(F864.0
F116.0
tp7734
aa(F676.0
F92.0
tp7735
aa(F793.0
F120.0
tp7736
aa(lp7737
(I7
F0.0651
tp7738
a(F999.0
F133.0
tp7739
a(F739.0
F231.0
tp7740
aaa(lp7741
(I4
F0.0713
tp7742
a(F834.0
F163.0
tp7743
a(lp7744
(I3
F0.0955
tp7745
a(F527.0
F256.0
tp7746
a(F640.0
F257.0
tp7747
aaaaa(lp7748
(I6
F0.5626
tp7749
a(lp7750
(I2
F1.6191
tp7751
a(lp7752
(I4
F0.0638
tp7753
a(lp7754
(I0
F0.0007
tp7755
a(lp7756
(I3
F0.1885
tp7757
a(lp7758
(I1
F0.1407
tp7759
a(F889.0
F192.0
tp7760
a(F864.0
F286.0
tp7761
aa(F713.0
F164.0
tp7762
aa(F691.0
F237.0
tp7763
aa(lp7764
(I1
F0.158
tp7765
a(F799.0
F382.0
tp7766
a(F818.0
F553.0
tp7767
aaa(F364.0
F453.0
tp7768
aa(lp7769
(I4
F2.5369
tp7770
a(lp7771
(I6
F1.7465
tp7772
a(lp7773
(I4
F0.7513
tp7774
a(F491.0
F481.0
tp7775
a(F598.0
F830.0
tp7776
aa(F273.0
F635.0
tp7777
aa(F163.0
F972.0
tp7778
aaaa(lp7779
(I7
F0.111
tp7780
a(lp7781
(I4
F2.1803
tp7782
a(lp7783
(I2
F1.8833
tp7784
a(lp7785
(I7
F0.0648
tp7786
a(lp7787
(I5
F0.0772
tp7788
a(lp7789
(I7
F0.013
tp7790
a(lp7791
(I6
F0.2525
tp7792
a(lp7793
(I1
F0.0484
tp7794
a(lp7795
(I5
F0.0191
tp7796
a(lp7797
(I3
F0.0047
tp7798
a(lp7799
(I3
F-0.0347
tp7800
a(F833.0
F11.0
tp7801
a(F1453.0
F37.0
tp7802
aa(F854.0
F44.0
tp7803
aa(F731.0
F48.0
tp7804
aa(F685.0
F116.0
tp7805
aa(lp7806
(I4
F0.6213
tp7807
a(F983.0
F26.0
tp7808
a(F1389.0
F12.0
tp7809
aaa(lp7810
(I0
F1.2306
tp7811
a(lp7812
(I5
F0.0532
tp7813
a(lp7814
(I6
F0.8501
tp7815
a(lp7816
(I3
F0.0326
tp7817
a(lp7818
(I3
F0.0078
tp7819
a(F1064.0
F58.0
tp7820
a(F1022.0
F84.0
tp7821
aa(lp7822
(I1
F0.0478
tp7823
a(F770.0
F74.0
tp7824
a(F713.0
F96.0
tp7825
aaa(F1462.0
F76.0
tp7826
aa(F1200.0
F182.0
tp7827
aa(F1153.0
F70.0
tp7828
aaa(lp7829
(I5
F0.1223
tp7830
a(F1260.0
F237.0
tp7831
a(F849.0
F353.0
tp7832
aaa(lp7833
(I6
F0.0128
tp7834
a(F1656.0
F315.0
tp7835
a(lp7836
(I7
F0.0822
tp7837
a(lp7838
(I4
F0.6029
tp7839
a(F708.0
F119.0
tp7840
a(F688.0
F157.0
tp7841
aa(lp7842
(I1
F0.1082
tp7843
a(F1132.0
F308.0
tp7844
a(F517.0
F280.0
tp7845
aaaaa(F883.0
F292.0
tp7846
aa(F681.0
F316.0
tp7847
aa(lp7848
(I1
F0.159
tp7849
a(lp7850
(I3
F0.0753
tp7851
a(lp7852
(I4
F0.0022
tp7853
a(F1043.0
F78.0
tp7854
a(F594.0
F201.0
tp7855
aa(lp7856
(I0
F0.0121
tp7857
a(lp7858
(I1
F0.1264
tp7859
a(F650.0
F175.0
tp7860
a(F636.0
F160.0
tp7861
aa(lp7862
(I7
F0.1456
tp7863
a(F804.0
F512.0
tp7864
a(F366.0
F438.0
tp7865
aaaa(lp7866
(I2
F0.0457
tp7867
a(F1006.0
F436.0
tp7868
a(lp7869
(I6
F0.5614
tp7870
a(F387.0
F428.0
tp7871
a(lp7872
(I3
F0.217
tp7873
a(F302.0
F729.0
tp7874
a(F171.0
F1347.0
tp7875
aaaaaa(lp7876
(I4
F2.4082
tp7877
a(lp7878
(I1
F0.1116
tp7879
a(lp7880
(I5
F0.0791
tp7881
a(lp7882
(I2
F1.5824
tp7883
a(lp7884
(I7
F0.0317
tp7885
a(lp7886
(I1
F0.0399
tp7887
a(lp7888
(I3
F0.0078
tp7889
a(lp7890
(I6
F0.2526
tp7891
a(lp7892
(I3
F-0.0359
tp7893
a(F974.0
F17.0
tp7894
a(lp7895
(I0
F0.0842
tp7896
a(F1224.0
F49.0
tp7897
a(F837.0
F21.0
tp7898
aaa(lp7899
(I0
F0.8209
tp7900
a(F1351.0
F5.0
tp7901
a(F802.0
F6.0
tp7902
aaa(lp7903
(I2
F0.3978
tp7904
a(F1446.0
F85.0
tp7905
a(F1397.0
F44.0
tp7906
aaa(F1391.0
F124.0
tp7907
aa(lp7908
(I2
F0.0208
tp7909
a(lp7910
(I1
F0.06
tp7911
a(lp7912
(I5
F0.0123
tp7913
a(F1046.0
F32.0
tp7914
a(F1485.0
F122.0
tp7915
aa(F740.0
F99.0
tp7916
aa(lp7917
(I3
F0.0694
tp7918
a(lp7919
(I1
F0.041
tp7920
a(lp7921
(I2
F0.4835
tp7922
a(F852.0
F104.0
tp7923
a(F1021.0
F58.0
tp7924
aa(lp7925
(I3
F0.0534
tp7926
a(F705.0
F81.0
tp7927
a(F657.0
F92.0
tp7928
aaa(F758.0
F155.0
tp7929
aaaa(F1205.0
F135.0
tp7930
aa(lp7931
(I2
F0.2934
tp7932
a(lp7933
(I0
F0.0268
tp7934
a(F1572.0
F250.0
tp7935
a(F597.0
F208.0
tp7936
aa(lp7937
(I4
F0.9642
tp7938
a(F705.0
F348.0
tp7939
a(F838.0
F282.0
tp7940
aaaa(lp7941
(I5
F0.1453
tp7942
a(lp7943
(I0
F0.0011
tp7944
a(lp7945
(I3
F0.1292
tp7946
a(F645.0
F144.0
tp7947
a(F825.0
F151.0
tp7948
aa(lp7949
(I3
F0.122
tp7950
a(F708.0
F232.0
tp7951
a(lp7952
(I7
F0.0995
tp7953
a(F890.0
F343.0
tp7954
a(F562.0
F385.0
tp7955
aaaa(lp7956
(I5
F0.2115
tp7957
a(lp7958
(I4
F0.2731
tp7959
a(lp7960
(I1
F0.1626
tp7961
a(F569.0
F214.0
tp7962
a(F709.0
F308.0
tp7963
aa(lp7964
(I4
F0.9351
tp7965
a(F424.0
F454.0
tp7966
a(F367.0
F534.0
tp7967
aaa(lp7968
(I3
F0.293
tp7969
a(F521.0
F782.0
tp7970
a(F400.0
F427.0
tp7971
aaaaa(lp7972
(I3
F0.1695
tp7973
a(F490.0
F340.0
tp7974
a(F118.0
F998.0
tp7975
aaa(lp7976
(I0
F2.4122
tp7977
a(lp7978
(I7
F0.0952
tp7979
a(lp7980
(I3
F0.0694
tp7981
a(lp7982
(I4
F1.6908
tp7983
a(lp7984
(I5
F0.0526
tp7985
a(lp7986
(I7
F0.0226
tp7987
a(lp7988
(I5
F0.0085
tp7989
a(lp7990
(I3
F0.0074
tp7991
a(lp7992
(I4
F0.3266
tp7993
a(lp7994
(I7
F-0.0247
tp7995
a(F921.0
F26.0
tp7996
a(F1437.0
F16.0
tp7997
aa(lp7998
(I7
F-0.0084
tp7999
a(F988.0
F2.0
tp8000
a(F782.0
F6.0
tp8001
aaa(F855.0
F37.0
tp8002
aa(lp8003
(I7
F-0.0009
tp8004
a(F946.0
F59.0
tp8005
a(lp8006
(I3
F0.018
tp8007
a(F801.0
F23.0
tp8008
a(F817.0
F37.0
tp8009
aaaa(lp8010
(I1
F0.0274
tp8011
a(lp8012
(I3
F-0.0191
tp8013
a(F705.0
F49.0
tp8014
a(lp8015
(I4
F0.33
tp8016
a(F954.0
F39.0
tp8017
a(F894.0
F55.0
tp8018
aaa(lp8019
(I4
F0.6078
tp8020
a(F1240.0
F131.0
tp8021
a(F807.0
F57.0
tp8022
aaaa(lp8023
(I7
F0.0566
tp8024
a(lp8025
(I2
F0.2601
tp8026
a(F723.0
F74.0
tp8027
a(F695.0
F88.0
tp8028
aa(F888.0
F142.0
tp8029
aaa(F895.0
F110.0
tp8030
aa(lp8031
(I0
F0.5017
tp8032
a(lp8033
(I5
F0.0949
tp8034
a(lp8035
(I0
F0.0012
tp8036
a(F1118.0
F152.0
tp8037
a(F769.0
F175.0
tp8038
aa(lp8039
(I1
F0.1268
tp8040
a(F682.0
F155.0
tp8041
a(F651.0
F190.0
tp8042
aaa(lp8043
(I7
F0.0519
tp8044
a(lp8045
(I0
F1.2476
tp8046
a(F601.0
F224.0
tp8047
a(F584.0
F255.0
tp8048
aa(lp8049
(I3
F0.0986
tp8050
a(F663.0
F164.0
tp8051
a(F563.0
F220.0
tp8052
aaaaa(lp8053
(I6
F0.2461
tp8054
a(lp8055
(I1
F0.1208
tp8056
a(lp8057
(I7
F0.1573
tp8058
a(F1454.0
F200.0
tp8059
a(F788.0
F62.0
tp8060
aa(lp8061
(I5
F0.1544
tp8062
a(F979.0
F280.0
tp8063
a(lp8064
(I3
F0.1906
tp8065
a(F584.0
F256.0
tp8066
a(F737.0
F254.0
tp8067
aaaa(lp8068
(I7
F0.2057
tp8069
a(lp8070
(I1
F0.1248
tp8071
a(lp8072
(I2
F0.7456
tp8073
a(F1055.0
F385.0
tp8074
a(F546.0
F290.0
tp8075
aa(lp8076
(I0
F0.6319
tp8077
a(F488.0
F436.0
tp8078
a(F509.0
F703.0
tp8079
aaa(F238.0
F956.0
tp8080
aaaa(lp8081
(I7
F0.1483
tp8082
a(F435.0
F430.0
tp8083
a(F120.0
F810.0
tp8084
aaa(lp8085
(I3
F0.1222
tp8086
a(lp8087
(I7
F0.065
tp8088
a(lp8089
(I5
F0.0568
tp8090
a(lp8091
(I3
F0.0249
tp8092
a(lp8093
(I2
F0.9393
tp8094
a(lp8095
(I3
F0.0106
tp8096
a(lp8097
(I3
F-0.0204
tp8098
a(lp8099
(I0
F0.0008
tp8100
a(F1423.0
F33.0
tp8101
a(F1105.0
F11.0
tp8102
aa(lp8103
(I1
F-0.0123
tp8104
a(F774.0
F38.0
tp8105
a(lp8106
(I6
F0.1171
tp8107
a(F1012.0
F34.0
tp8108
a(F1034.0
F14.0
tp8109
aaaa(F1380.0
F69.0
tp8110
aa(lp8111
(I5
F0.0094
tp8112
a(F1199.0
F4.0
tp8113
a(F783.0
F18.0
tp8114
aaa(lp8115
(I2
F0.1851
tp8116
a(lp8117
(I1
F0.042
tp8118
a(F783.0
F62.0
tp8119
a(F749.0
F102.0
tp8120
aa(lp8121
(I4
F0.5002
tp8122
a(F975.0
F106.0
tp8123
a(lp8124
(I1
F0.0428
tp8125
a(F1012.0
F52.0
tp8126
a(F904.0
F65.0
tp8127
aaaaa(lp8128
(I0
F0.0383
tp8129
a(F888.0
F116.0
tp8130
a(lp8131
(I1
F0.0849
tp8132
a(lp8133
(I3
F0.0605
tp8134
a(F751.0
F102.0
tp8135
a(F687.0
F117.0
tp8136
aa(F593.0
F186.0
tp8137
aaaa(lp8138
(I5
F0.1123
tp8139
a(lp8140
(I2
F0.0205
tp8141
a(lp8142
(I5
F0.0296
tp8143
a(F852.0
F34.0
tp8144
a(lp8145
(I7
F0.118
tp8146
a(F1133.0
F165.0
tp8147
a(F696.0
F78.0
tp8148
aaa(lp8149
(I1
F0.0642
tp8150
a(F1193.0
F211.0
tp8151
a(lp8152
(I5
F0.0792
tp8153
a(F646.0
F128.0
tp8154
a(F1080.0
F365.0
tp8155
aaaa(lp8156
(I4
F0.2288
tp8157
a(F657.0
F155.0
tp8158
a(F557.0
F460.0
tp8159
aaaa(lp8160
(I0
F0.4983
tp8161
a(lp8162
(I2
F0.0037
tp8163
a(F2529.0
F716.0
tp8164
a(lp8165
(I4
F0.1728
tp8166
a(F726.0
F325.0
tp8167
a(F702.0
F580.0
tp8168
aaa(lp8169
(I5
F0.1669
tp8170
a(lp8171
(I6
F0.7801
tp8172
a(F964.0
F472.0
tp8173
a(F478.0
F441.0
tp8174
aa(lp8175
(I7
F0.2254
tp8176
a(lp8177
(I2
F1.5056
tp8178
a(F306.0
F471.0
tp8179
a(F173.0
F621.0
tp8180
aa(F125.0
F1240.0
tp8181
aaaaa(lp8182
(I1
F0.1122
tp8183
a(lp8184
(I6
F2.1434
tp8185
a(lp8186
(I1
F0.0538
tp8187
a(lp8188
(I7
F0.027
tp8189
a(lp8190
(I5
F0.0436
tp8191
a(lp8192
(I5
F0.0043
tp8193
a(lp8194
(I2
F0.2846
tp8195
a(lp8196
(I0
F0.0003
tp8197
a(lp8198
(I1
F-0.0268
tp8199
a(F836.0
F13.0
tp8200
a(F902.0
F37.0
tp8201
aa(F847.0
F15.0
tp8202
aa(lp8203
(I6
F0.29
tp8204
a(F1023.0
F16.0
tp8205
a(F1284.0
F3.0
tp8206
aaa(lp8207
(I1
F0.0147
tp8208
a(lp8209
(I2
F0.3268
tp8210
a(F766.0
F26.0
tp8211
a(F839.0
F21.0
tp8212
aa(lp8213
(I6
F0.0985
tp8214
a(F828.0
F58.0
tp8215
a(F810.0
F33.0
tp8216
aaaa(F745.0
F74.0
tp8217
aa(lp8218
(I7
F0.094
tp8219
a(lp8220
(I6
F1.115
tp8221
a(lp8222
(I7
F0.0343
tp8223
a(F807.0
F86.0
tp8224
a(lp8225
(I0
F0.0944
tp8226
a(F1302.0
F86.0
tp8227
a(F1278.0
F119.0
tp8228
aaa(F1371.0
F81.0
tp8229
aa(lp8230
(I5
F0.0322
tp8231
a(F772.0
F55.0
tp8232
a(F676.0
F145.0
tp8233
aaaa(lp8234
(I3
F0.0699
tp8235
a(lp8236
(I4
F0.6332
tp8237
a(lp8238
(I5
F0.0595
tp8239
a(F714.0
F62.0
tp8240
a(F761.0
F99.0
tp8241
aa(F941.0
F172.0
tp8242
aa(lp8243
(I4
F0.0321
tp8244
a(lp8245
(I3
F0.0904
tp8246
a(F690.0
F87.0
tp8247
a(F1002.0
F168.0
tp8248
aa(lp8249
(I5
F0.1054
tp8250
a(lp8251
(I1
F0.0788
tp8252
a(F625.0
F166.0
tp8253
a(F1303.0
F261.0
tp8254
aa(F571.0
F277.0
tp8255
aaaaa(F606.0
F194.0
tp8256
aa(lp8257
(I0
F0.4984
tp8258
a(lp8259
(I5
F0.1025
tp8260
a(F816.0
F139.0
tp8261
a(lp8262
(I0
F0.0016
tp8263
a(lp8264
(I7
F0.1125
tp8265
a(F646.0
F191.0
tp8266
a(lp8267
(I5
F0.1527
tp8268
a(F724.0
F145.0
tp8269
a(F1082.0
F312.0
tp8270
aaa(lp8271
(I5
F0.1624
tp8272
a(F599.0
F340.0
tp8273
a(F461.0
F493.0
tp8274
aaaa(lp8275
(I5
F0.1732
tp8276
a(lp8277
(I7
F0.1274
tp8278
a(lp8279
(I1
F0.157
tp8280
a(F882.0
F376.0
tp8281
a(F469.0
F306.0
tp8282
aa(F448.0
F532.0
tp8283
aa(lp8284
(I5
F0.2541
tp8285
a(F398.0
F1039.0
tp8286
a(F162.0
F1247.0
tp8287
aaaaa(lp8288
(I0
F2.4146
tp8289
a(lp8290
(I3
F0.122
tp8291
a(lp8292
(I6
F2.1212
tp8293
a(lp8294
(I7
F0.065
tp8295
a(lp8296
(I7
F0.0128
tp8297
a(lp8298
(I1
F0.0479
tp8299
a(lp8300
(I5
F0.0227
tp8301
a(lp8302
(I3
F0.0074
tp8303
a(lp8304
(I7
F-0.038
tp8305
a(F821.0
F20.0
tp8306
a(lp8307
(I4
F0.3266
tp8308
a(lp8309
(I7
F-0.0108
tp8310
a(F846.0
F19.0
tp8311
a(F861.0
F9.0
tp8312
aa(F1544.0
F7.0
tp8313
aaa(F1217.0
F50.0
tp8314
aa(F1113.0
F87.0
tp8315
aa(F1040.0
F170.0
tp8316
aa(lp8317
(I3
F0.0719
tp8318
a(lp8319
(I5
F0.0568
tp8320
a(lp8321
(I6
F1.0267
tp8322
a(lp8323
(I2
F0.6116
tp8324
a(lp8325
(I5
F0.0173
tp8326
a(F1256.0
F53.0
tp8327
a(lp8328
(I2
F0.0659
tp8329
a(F928.0
F74.0
tp8330
a(F739.0
F43.0
tp8331
aaa(F1057.0
F94.0
tp8332
aa(lp8333
(I6
F1.3774
tp8334
a(F749.0
F18.0
tp8335
a(F974.0
F55.0
tp8336
aaa(F1209.0
F172.0
tp8337
aa(F1302.0
F243.0
tp8338
aaa(lp8339
(I4
F0.0238
tp8340
a(lp8341
(I5
F0.0865
tp8342
a(lp8343
(I5
F0.0333
tp8344
a(F899.0
F42.0
tp8345
a(F1138.0
F114.0
tp8346
aa(F1071.0
F217.0
tp8347
aa(lp8348
(I5
F0.1129
tp8349
a(lp8350
(I1
F0.0709
tp8351
a(F1328.0
F238.0
tp8352
a(lp8353
(I5
F0.0909
tp8354
a(F690.0
F186.0
tp8355
a(F609.0
F189.0
tp8356
aaa(F547.0
F360.0
tp8357
aaaa(F640.0
F194.0
tp8358
aa(lp8359
(I6
F0.3804
tp8360
a(lp8361
(I0
F0.0014
tp8362
a(lp8363
(I5
F0.1643
tp8364
a(lp8365
(I3
F0.144
tp8366
a(F650.0
F137.0
tp8367
a(F829.0
F256.0
tp8368
aa(F1120.0
F245.0
tp8369
aa(lp8370
(I1
F0.1877
tp8371
a(lp8372
(I5
F0.1324
tp8373
a(F641.0
F204.0
tp8374
a(F494.0
F336.0
tp8375
aa(F522.0
F464.0
tp8376
aaa(lp8377
(I4
F0.7914
tp8378
a(F705.0
F767.0
tp8379
a(lp8380
(I5
F0.1953
tp8381
a(F582.0
F609.0
tp8382
a(F125.0
F749.0
tp8383
aaaaa(lp8384
(I5
F0.1934
tp8385
a(F508.0
F301.0
tp8386
a(F109.0
F875.0
tp8387
aaa(lp8388
(I4
F2.1831
tp8389
a(lp8390
(I3
F0.0846
tp8391
a(lp8392
(I5
F0.0649
tp8393
a(lp8394
(I3
F0.019
tp8395
a(lp8396
(I7
F0.0362
tp8397
a(lp8398
(I0
F1.0997
tp8399
a(lp8400
(I3
F0.0046
tp8401
a(lp8402
(I5
F0.008
tp8403
a(lp8404
(I2
F0.4757
tp8405
a(lp8406
(I0
F0.0003
tp8407
a(lp8408
(I1
F-0.028
tp8409
a(F918.0
F21.0
tp8410
a(F789.0
F15.0
tp8411
aa(F1028.0
F13.0
tp8412
aa(F917.0
F6.0
tp8413
aa(F760.0
F28.0
tp8414
aa(F1364.0
F57.0
tp8415
aa(F1172.0
F5.0
tp8416
aa(lp8417
(I4
F0.1748
tp8418
a(F1347.0
F56.0
tp8419
a(F736.0
F57.0
tp8420
aaa(lp8421
(I1
F0.0594
tp8422
a(lp8423
(I6
F0.0186
tp8424
a(lp8425
(I7
F0.0272
tp8426
a(F1066.0
F55.0
tp8427
a(F924.0
F71.0
tp8428
aa(lp8429
(I4
F0.8979
tp8430
a(lp8431
(I3
F0.0334
tp8432
a(F771.0
F70.0
tp8433
a(F1131.0
F145.0
tp8434
aa(F1324.0
F90.0
tp8435
aaa(F1274.0
F182.0
tp8436
aaa(lp8437
(I6
F0.2271
tp8438
a(lp8439
(I2
F0.0157
tp8440
a(F1078.0
F115.0
tp8441
a(F755.0
F158.0
tp8442
aa(lp8443
(I5
F0.0844
tp8444
a(F906.0
F195.0
tp8445
a(F524.0
F272.0
tp8446
aaaa(lp8447
(I0
F0.0562
tp8448
a(lp8449
(I6
F0.0022
tp8450
a(lp8451
(I1
F0.1564
tp8452
a(lp8453
(I3
F0.1132
tp8454
a(F819.0
F113.0
tp8455
a(F1330.0
F278.0
tp8456
aa(F1224.0
F304.0
tp8457
aa(F990.0
F453.0
tp8458
aa(lp8459
(I5
F0.1611
tp8460
a(lp8461
(I7
F0.1146
tp8462
a(lp8463
(I1
F0.1644
tp8464
a(lp8465
(I5
F0.0956
tp8466
a(F1214.0
F298.0
tp8467
a(F1044.0
F390.0
tp8468
aa(F532.0
F271.0
tp8469
aa(lp8470
(I3
F0.1344
tp8471
a(F520.0
F344.0
tp8472
a(F453.0
F413.0
tp8473
aaa(lp8474
(I0
F0.5034
tp8475
a(F515.0
F424.0
tp8476
a(lp8477
(I5
F0.2062
tp8478
a(F298.0
F470.0
tp8479
a(F181.0
F757.0
tp8480
aaaaaa(lp8481
(I1
F0.1574
tp8482
a(F727.0
F326.0
tp8483
a(F209.0
F1168.0
tp8484
aaa(lp8485
(I1
F0.1213
tp8486
a(lp8487
(I3
F0.0429
tp8488
a(lp8489
(I3
F0.0083
tp8490
a(lp8491
(I7
F0.0274
tp8492
a(lp8493
(I6
F0.1319
tp8494
a(lp8495
(I0
F0.3128
tp8496
a(lp8497
(I7
F-0.0063
tp8498
a(F1319.0
F32.0
tp8499
a(F757.0
F36.0
tp8500
aa(F804.0
F15.0
tp8501
aa(lp8502
(I4
F0.2982
tp8503
a(F798.0
F13.0
tp8504
a(lp8505
(I6
F1.0419
tp8506
a(F1083.0
F4.0
tp8507
a(F764.0
F5.0
tp8508
aaaa(lp8509
(I5
F0.0207
tp8510
a(F1497.0
F69.0
tp8511
a(F808.0
F111.0
tp8512
aaa(lp8513
(I5
F0.0516
tp8514
a(lp8515
(I1
F0.0095
tp8516
a(F803.0
F28.0
tp8517
a(lp8518
(I7
F0.0458
tp8519
a(lp8520
(I1
F0.0188
tp8521
a(F776.0
F55.0
tp8522
a(lp8523
(I2
F0.3641
tp8524
a(F1026.0
F34.0
tp8525
a(F1344.0
F78.0
tp8526
aaa(F982.0
F91.0
tp8527
aaa(F918.0
F174.0
tp8528
aaa(lp8529
(I7
F0.0745
tp8530
a(lp8531
(I3
F0.073
tp8532
a(lp8533
(I1
F0.0538
tp8534
a(lp8535
(I6
F0.2459
tp8536
a(F832.0
F67.0
tp8537
a(F715.0
F64.0
tp8538
aa(lp8539
(I6
F0.1375
tp8540
a(F787.0
F108.0
tp8541
a(F893.0
F104.0
tp8542
aaa(lp8543
(I2
F1.05
tp8544
a(lp8545
(I5
F0.0845
tp8546
a(F1017.0
F145.0
tp8547
a(F650.0
F135.0
tp8548
aa(F704.0
F189.0
tp8549
aaa(lp8550
(I0
F0.0406
tp8551
a(lp8552
(I3
F0.0945
tp8553
a(F980.0
F132.0
tp8554
a(F717.0
F160.0
tp8555
aa(lp8556
(I7
F0.1161
tp8557
a(lp8558
(I5
F0.0918
tp8559
a(F806.0
F200.0
tp8560
a(F711.0
F252.0
tp8561
aa(F677.0
F392.0
tp8562
aaaaa(lp8563
(I6
F0.5911
tp8564
a(lp8565
(I4
F0.0329
tp8566
a(lp8567
(I0
F0.0009
tp8568
a(F2210.0
F559.0
tp8569
a(F698.0
F280.0
tp8570
aa(lp8571
(I5
F0.1965
tp8572
a(lp8573
(I1
F0.1595
tp8574
a(F708.0
F323.0
tp8575
a(F682.0
F456.0
tp8576
aa(F305.0
F539.0
tp8577
aaa(lp8578
(I7
F0.1595
tp8579
a(F795.0
F696.0
tp8580
a(lp8581
(I1
F0.2795
tp8582
a(F336.0
F1071.0
tp8583
a(F69.0
F872.0
tp8584
aaaaa(lp8585
(I5
F0.1315
tp8586
a(lp8587
(I3
F0.0716
tp8588
a(lp8589
(I7
F0.0287
tp8590
a(lp8591
(I1
F0.0368
tp8592
a(lp8593
(I3
F0.0078
tp8594
a(lp8595
(I6
F0.3988
tp8596
a(lp8597
(I7
F-0.0018
tp8598
a(lp8599
(I2
F0.1733
tp8600
a(F1403.0
F40.0
tp8601
a(F876.0
F12.0
tp8602
aa(F1041.0
F49.0
tp8603
aa(lp8604
(I6
F0.9516
tp8605
a(F876.0
F4.0
tp8606
a(F1112.0
F13.0
tp8607
aaa(lp8608
(I1
F0.0179
tp8609
a(F1357.0
F71.0
tp8610
a(F1337.0
F53.0
tp8611
aaa(F1436.0
F103.0
tp8612
aa(lp8613
(I5
F0.083
tp8614
a(lp8615
(I4
F0.0585
tp8616
a(lp8617
(I5
F0.0218
tp8618
a(F1403.0
F57.0
tp8619
a(lp8620
(I5
F0.0469
tp8621
a(F797.0
F88.0
tp8622
a(F769.0
F61.0
tp8623
aaa(lp8624
(I4
F1.5589
tp8625
a(lp8626
(I5
F0.0601
tp8627
a(lp8628
(I7
F0.0527
tp8629
a(lp8630
(I3
F0.0327
tp8631
a(F977.0
F39.0
tp8632
a(F808.0
F66.0
tp8633
aa(F1240.0
F139.0
tp8634
aa(F677.0
F103.0
tp8635
aa(F705.0
F95.0
tp8636
aaa(F642.0
F175.0
tp8637
aaa(lp8638
(I4
F0.0483
tp8639
a(lp8640
(I3
F0.1516
tp8641
a(lp8642
(I2
F0.0066
tp8643
a(lp8644
(I7
F0.0863
tp8645
a(F794.0
F102.0
tp8646
a(F1050.0
F204.0
tp8647
aa(F671.0
F128.0
tp8648
aa(F644.0
F190.0
tp8649
aa(lp8650
(I5
F0.1086
tp8651
a(lp8652
(I6
F1.1998
tp8653
a(lp8654
(I3
F0.1133
tp8655
a(lp8656
(I7
F0.0727
tp8657
a(F891.0
F152.0
tp8658
a(F606.0
F200.0
tp8659
aa(F692.0
F223.0
tp8660
aa(F744.0
F245.0
tp8661
aa(F906.0
F487.0
tp8662
aaaa(lp8663
(I6
F0.582
tp8664
a(lp8665
(I4
F0.0229
tp8666
a(lp8667
(I3
F0.1496
tp8668
a(F796.0
F175.0
tp8669
a(lp8670
(I3
F0.1919
tp8671
a(F593.0
F223.0
tp8672
a(F684.0
F187.0
tp8673
aaa(lp8674
(I5
F0.2032
tp8675
a(lp8676
(I6
F0.1068
tp8677
a(F587.0
F292.0
tp8678
a(F457.0
F327.0
tp8679
aa(F370.0
F502.0
tp8680
aaa(lp8681
(I7
F0.1791
tp8682
a(F682.0
F878.0
tp8683
a(lp8684
(I5
F0.2742
tp8685
a(F244.0
F879.0
tp8686
a(F70.0
F961.0
tp8687
aaaaa(lp8688
(I3
F0.1218
tp8689
a(lp8690
(I7
F0.0645
tp8691
a(lp8692
(I3
F0.0712
tp8693
a(lp8694
(I3
F0.0142
tp8695
a(lp8696
(I2
F0.0241
tp8697
a(lp8698
(I5
F0.0069
tp8699
a(lp8700
(I1
F-0.0161
tp8701
a(F1320.0
F21.0
tp8702
a(F826.0
F40.0
tp8703
aa(F891.0
F58.0
tp8704
aa(lp8705
(I6
F0.1348
tp8706
a(lp8707
(I7
F-0.0126
tp8708
a(F801.0
F19.0
tp8709
a(F866.0
F44.0
tp8710
aa(lp8711
(I5
F0.0063
tp8712
a(lp8713
(I0
F0.6301
tp8714
a(F829.0
F10.0
tp8715
a(F1095.0
F4.0
tp8716
aa(F941.0
F34.0
tp8717
aaaa(lp8718
(I1
F0.0321
tp8719
a(lp8720
(I2
F0.6554
tp8721
a(lp8722
(I3
F0.0253
tp8723
a(F789.0
F43.0
tp8724
a(F755.0
F59.0
tp8725
aa(F1077.0
F43.0
tp8726
aa(lp8727
(I5
F0.0565
tp8728
a(lp8729
(I7
F0.027
tp8730
a(F1072.0
F62.0
tp8731
a(lp8732
(I1
F0.0461
tp8733
a(F842.0
F82.0
tp8734
a(F852.0
F65.0
tp8735
aaa(F1201.0
F144.0
tp8736
aaaa(lp8737
(I6
F0.0761
tp8738
a(F1238.0
F261.0
tp8739
a(F755.0
F110.0
tp8740
aaa(lp8741
(I6
F0.2481
tp8742
a(lp8743
(I2
F0.0032
tp8744
a(lp8745
(I7
F0.108
tp8746
a(F1052.0
F147.0
tp8747
a(F1409.0
F119.0
tp8748
aa(F939.0
F222.0
tp8749
aa(lp8750
(I5
F0.1058
tp8751
a(lp8752
(I3
F0.0789
tp8753
a(lp8754
(I2
F0.773
tp8755
a(F1274.0
F178.0
tp8756
a(F650.0
F144.0
tp8757
aa(F862.0
F329.0
tp8758
aa(F697.0
F553.0
tp8759
aaaa(lp8760
(I6
F0.5918
tp8761
a(lp8762
(I1
F0.2166
tp8763
a(lp8764
(I4
F0.0368
tp8765
a(lp8766
(I7
F0.0635
tp8767
a(F710.0
F104.0
tp8768
a(F1616.0
F487.0
tp8769
aa(lp8770
(I1
F0.149
tp8771
a(F649.0
F275.0
tp8772
a(F755.0
F518.0
tp8773
aaa(lp8774
(I2
F0.1449
tp8775
a(F581.0
F211.0
tp8776
a(F346.0
F457.0
tp8777
aaa(lp8778
(I5
F0.201
tp8779
a(lp8780
(I7
F0.1296
tp8781
a(F532.0
F288.0
tp8782
a(F501.0
F776.0
tp8783
aa(lp8784
(I3
F0.2804
tp8785
a(F147.0
F718.0
tp8786
a(F77.0
F888.0
tp8787
aaaaa(lp8788
(I3
F0.1219
tp8789
a(lp8790
(I5
F0.0649
tp8791
a(lp8792
(I1
F0.041
tp8793
a(lp8794
(I1
F0.0116
tp8795
a(lp8796
(I7
F0.0185
tp8797
a(lp8798
(I0
F0.481
tp8799
a(lp8800
(I6
F0.2466
tp8801
a(lp8802
(I3
F-0.0087
tp8803
a(F1471.0
F42.0
tp8804
a(F876.0
F39.0
tp8805
aa(F934.0
F8.0
tp8806
aa(lp8807
(I6
F0.3217
tp8808
a(F782.0
F12.0
tp8809
a(F1325.0
F10.0
tp8810
aaa(lp8811
(I5
F-0.0129
tp8812
a(F859.0
F26.0
tp8813
a(lp8814
(I4
F0.1689
tp8815
a(F915.0
F40.0
tp8816
a(F821.0
F67.0
tp8817
aaaa(lp8818
(I4
F0.4677
tp8819
a(lp8820
(I1
F0.0206
tp8821
a(F672.0
F73.0
tp8822
a(lp8823
(I1
F0.0294
tp8824
a(F784.0
F36.0
tp8825
a(F901.0
F69.0
tp8826
aaa(lp8827
(I7
F0.0308
tp8828
a(F1264.0
F38.0
tp8829
a(F855.0
F60.0
tp8830
aaaa(lp8831
(I2
F0.3263
tp8832
a(lp8833
(I3
F0.0549
tp8834
a(F986.0
F78.0
tp8835
a(F953.0
F104.0
tp8836
aa(lp8837
(I3
F0.0636
tp8838
a(lp8839
(I4
F0.9093
tp8840
a(F717.0
F92.0
tp8841
a(F723.0
F76.0
tp8842
aa(F673.0
F126.0
tp8843
aaaa(lp8844
(I5
F0.1123
tp8845
a(lp8846
(I7
F0.0989
tp8847
a(lp8848
(I1
F0.0681
tp8849
a(F1143.0
F155.0
tp8850
a(lp8851
(I4
F0.6005
tp8852
a(F1175.0
F205.0
tp8853
a(F1011.0
F251.0
tp8854
aaa(lp8855
(I6
F0.2465
tp8856
a(F735.0
F98.0
tp8857
a(F604.0
F291.0
tp8858
aaa(lp8859
(I6
F0.3866
tp8860
a(F1163.0
F291.0
tp8861
a(F476.0
F476.0
tp8862
aaaa(lp8863
(I2
F0.5228
tp8864
a(lp8865
(I0
F0.0014
tp8866
a(F2618.0
F677.0
tp8867
a(lp8868
(I7
F0.1561
tp8869
a(F974.0
F453.0
tp8870
a(F343.0
F482.0
tp8871
aaa(lp8872
(I1
F0.2191
tp8873
a(lp8874
(I7
F0.1273
tp8875
a(lp8876
(I2
F1.4118
tp8877
a(F662.0
F318.0
tp8878
a(F514.0
F326.0
tp8879
aa(F514.0
F945.0
tp8880
aa(lp8881
(I0
F1.936
tp8882
a(F251.0
F593.0
tp8883
a(F158.0
F1051.0
tp8884
aaaaa(lp8885
(I5
F0.1316
tp8886
a(lp8887
(I0
F2.1225
tp8888
a(lp8889
(I6
F0.0239
tp8890
a(lp8891
(I1
F0.0607
tp8892
a(lp8893
(I7
F0.0249
tp8894
a(lp8895
(I5
F0.0165
tp8896
a(lp8897
(I4
F0.1526
tp8898
a(F2125.0
F62.0
tp8899
a(F800.0
F5.0
tp8900
aa(F1410.0
F108.0
tp8901
aa(lp8902
(I5
F0.0163
tp8903
a(F876.0
F37.0
tp8904
a(lp8905
(I1
F0.0358
tp8906
a(F744.0
F87.0
tp8907
a(F770.0
F66.0
tp8908
aaaa(lp8909
(I3
F0.1106
tp8910
a(lp8911
(I4
F0.048
tp8912
a(lp8913
(I3
F0.0832
tp8914
a(F812.0
F77.0
tp8915
a(F722.0
F79.0
tp8916
aa(F702.0
F134.0
tp8917
aa(lp8918
(I5
F0.0893
tp8919
a(F734.0
F143.0
tp8920
a(F876.0
F236.0
tp8921
aaaa(lp8922
(I5
F0.063
tp8923
a(lp8924
(I3
F0.0535
tp8925
a(lp8926
(I1
F0.0077
tp8927
a(lp8928
(I0
F0.5173
tp8929
a(lp8930
(I5
F0.0021
tp8931
a(F1474.0
F42.0
tp8932
a(F748.0
F62.0
tp8933
aa(lp8934
(I1
F-0.0126
tp8935
a(F814.0
F4.0
tp8936
a(F854.0
F28.0
tp8937
aaa(lp8938
(I7
F0.0593
tp8939
a(lp8940
(I7
F0.0135
tp8941
a(F787.0
F27.0
tp8942
a(lp8943
(I2
F0.8477
tp8944
a(lp8945
(I6
F0.6617
tp8946
a(F748.0
F57.0
tp8947
a(F767.0
F56.0
tp8948
aa(F1168.0
F49.0
tp8949
aaa(F693.0
F110.0
tp8950
aaa(F1307.0
F210.0
tp8951
aa(lp8952
(I1
F0.0876
tp8953
a(lp8954
(I7
F0.0795
tp8955
a(F1094.0
F161.0
tp8956
a(F805.0
F279.0
tp8957
aa(lp8958
(I7
F0.1029
tp8959
a(F1171.0
F320.0
tp8960
a(F838.0
F483.0
tp8961
aaaaa(F662.0
F231.0
tp8962
aa(lp8963
(I5
F0.2123
tp8964
a(lp8965
(I4
F0.1663
tp8966
a(lp8967
(I1
F0.141
tp8968
a(F642.0
F156.0
tp8969
a(lp8970
(I5
F0.1655
tp8971
a(F561.0
F226.0
tp8972
a(F601.0
F247.0
tp8973
aaa(lp8974
(I6
F0.3096
tp8975
a(F659.0
F361.0
tp8976
a(lp8977
(I7
F0.1401
tp8978
a(F389.0
F387.0
tp8979
a(F502.0
F899.0
tp8980
aaaa(lp8981
(I4
F0.2684
tp8982
a(F660.0
F296.0
tp8983
a(lp8984
(I6
F1.1173
tp8985
a(F231.0
F646.0
tp8986
a(F101.0
F1242.0
tp8987
aaaaa(lp8988
(I3
F0.1219
tp8989
a(lp8990
(I1
F0.0567
tp8991
a(lp8992
(I7
F0.0561
tp8993
a(lp8994
(I1
F0.0136
tp8995
a(lp8996
(I5
F0.0271
tp8997
a(lp8998
(I0
F0.0103
tp8999
a(lp9000
(I7
F0.0063
tp9001
a(lp9002
(I5
F-0.0202
tp9003
a(F802.0
F33.0
tp9004
a(F756.0
F16.0
tp9005
aa(F873.0
F53.0
tp9006
aa(lp9007
(I5
F0.0043
tp9008
a(lp9009
(I4
F0.3254
tp9010
a(F981.0
F16.0
tp9011
a(lp9012
(I2
F0.7388
tp9013
a(F761.0
F3.0
tp9014
a(F1082.0
F2.0
tp9015
aaa(F1095.0
F25.0
tp9016
aaa(F835.0
F65.0
tp9017
aa(lp9018
(I4
F0.7515
tp9019
a(lp9020
(I5
F0.0317
tp9021
a(lp9022
(I4
F0.1426
tp9023
a(F1065.0
F82.0
tp9024
a(F739.0
F38.0
tp9025
aa(F1356.0
F153.0
tp9026
aa(lp9027
(I5
F0.0408
tp9028
a(F1235.0
F42.0
tp9029
a(F747.0
F62.0
tp9030
aaaa(lp9031
(I6
F0.2369
tp9032
a(lp9033
(I7
F0.1239
tp9034
a(F884.0
F74.0
tp9035
a(F770.0
F27.0
tp9036
aa(lp9037
(I4
F0.6732
tp9038
a(F916.0
F136.0
tp9039
a(F675.0
F158.0
tp9040
aaaa(lp9041
(I6
F0.2481
tp9042
a(lp9043
(I2
F0.5372
tp9044
a(lp9045
(I7
F0.1168
tp9046
a(lp9047
(I5
F0.0889
tp9048
a(lp9049
(I1
F0.0763
tp9050
a(F718.0
F102.0
tp9051
a(F790.0
F95.0
tp9052
aa(F998.0
F173.0
tp9053
aa(F733.0
F139.0
tp9054
aa(F815.0
F202.0
tp9055
aa(lp9056
(I3
F0.0823
tp9057
a(lp9058
(I0
F1.1105
tp9059
a(F1019.0
F279.0
tp9060
a(F685.0
F135.0
tp9061
aa(lp9062
(I6
F1.2005
tp9063
a(F928.0
F358.0
tp9064
a(F640.0
F336.0
tp9065
aaaaa(lp9066
(I4
F0.4441
tp9067
a(lp9068
(I0
F0.0014
tp9069
a(lp9070
(I1
F0.1418
tp9071
a(F919.0
F200.0
tp9072
a(lp9073
(I3
F0.192
tp9074
a(F927.0
F311.0
tp9075
a(F756.0
F188.0
tp9076
aaa(lp9077
(I5
F0.1315
tp9078
a(F896.0
F281.0
tp9079
a(F671.0
F615.0
tp9080
aaa(lp9081
(I6
F1.6474
tp9082
a(lp9083
(I2
F1.6408
tp9084
a(lp9085
(I7
F0.1341
tp9086
a(F725.0
F464.0
tp9087
a(F406.0
F787.0
tp9088
aa(F282.0
F535.0
tp9089
aa(lp9090
(I7
F0.2263
tp9091
a(F269.0
F522.0
tp9092
a(F64.0
F940.0
tp9093
aaaaa(lp9094
(I5
F0.1322
tp9095
a(lp9096
(I3
F0.065
tp9097
a(lp9098
(I3
F0.0301
tp9099
a(lp9100
(I3
F0.0135
tp9101
a(lp9102
(I5
F0.0146
tp9103
a(lp9104
(I2
F0.7444
tp9105
a(lp9106
(I3
F-0.0046
tp9107
a(lp9108
(I1
F-0.0474
tp9109
a(F1009.0
F15.0
tp9110
a(lp9111
(I0
F0.2398
tp9112
a(lp9113
(I3
F-0.0243
tp9114
a(F889.0
F36.0
tp9115
a(F967.0
F19.0
tp9116
aa(F780.0
F9.0
tp9117
aaa(F1222.0
F61.0
tp9118
aa(lp9119
(I4
F1.0219
tp9120
a(F806.0
F7.0
tp9121
a(F875.0
F2.0
tp9122
aaa(lp9123
(I5
F0.0273
tp9124
a(F769.0
F39.0
tp9125
a(F1281.0
F107.0
tp9126
aaa(lp9127
(I7
F0.0392
tp9128
a(lp9129
(I4
F0.58
tp9130
a(F1017.0
F70.0
tp9131
a(F913.0
F39.0
tp9132
aa(F845.0
F91.0
tp9133
aaa(lp9134
(I6
F1.5129
tp9135
a(lp9136
(I3
F0.0408
tp9137
a(lp9138
(I0
F0.3453
tp9139
a(F731.0
F74.0
tp9140
a(F728.0
F57.0
tp9141
aa(lp9142
(I1
F0.0618
tp9143
a(lp9144
(I1
F0.0424
tp9145
a(F714.0
F87.0
tp9146
a(lp9147
(I6
F0.1227
tp9148
a(F788.0
F48.0
tp9149
a(F783.0
F86.0
tp9150
aaa(F723.0
F133.0
tp9151
aaa(F681.0
F110.0
tp9152
aaa(lp9153
(I6
F0.0055
tp9154
a(lp9155
(I2
F0.4085
tp9156
a(lp9157
(I3
F0.0855
tp9158
a(F750.0
F82.0
tp9159
a(F1891.0
F341.0
tp9160
aa(F1084.0
F317.0
tp9161
aa(lp9162
(I4
F0.2245
tp9163
a(lp9164
(I5
F0.0867
tp9165
a(F668.0
F145.0
tp9166
a(F553.0
F204.0
tp9167
aa(lp9168
(I1
F0.0912
tp9169
a(lp9170
(I5
F0.076
tp9171
a(F693.0
F151.0
tp9172
a(F670.0
F181.0
tp9173
aa(lp9174
(I1
F0.1233
tp9175
a(F959.0
F369.0
tp9176
a(F492.0
F267.0
tp9177
aaaaaa(lp9178
(I0
F0.4772
tp9179
a(lp9180
(I2
F0.0228
tp9181
a(lp9182
(I7
F0.1329
tp9183
a(F860.0
F204.0
tp9184
a(lp9185
(I7
F0.2064
tp9186
a(F717.0
F315.0
tp9187
a(F667.0
F184.0
tp9188
aaa(F849.0
F681.0
tp9189
aa(lp9190
(I1
F0.2125
tp9191
a(lp9192
(I5
F0.1729
tp9193
a(F756.0
F719.0
tp9194
a(F319.0
F715.0
tp9195
aa(lp9196
(I7
F0.2327
tp9197
a(F229.0
F572.0
tp9198
a(F83.0
F1162.0
tp9199
aaaaa(lp9200
(I5
F0.1329
tp9201
a(lp9202
(I3
F0.0686
tp9203
a(lp9204
(I7
F0.0565
tp9205
a(lp9206
(I3
F0.025
tp9207
a(lp9208
(I0
F0.159
tp9209
a(lp9210
(I1
F-0.0381
tp9211
a(F995.0
F20.0
tp9212
a(lp9213
(I7
F0.0063
tp9214
a(lp9215
(I1
F-0.0078
tp9216
a(F735.0
F23.0
tp9217
a(F779.0
F33.0
tp9218
aa(F1265.0
F70.0
tp9219
aaa(lp9220
(I5
F0.0004
tp9221
a(lp9222
(I1
F-0.0202
tp9223
a(F1038.0
F4.0
tp9224
a(F1380.0
F16.0
tp9225
aa(lp9226
(I6
F0.1413
tp9227
a(F727.0
F40.0
tp9228
a(lp9229
(I0
F0.9955
tp9230
a(F942.0
F33.0
tp9231
a(F808.0
F9.0
tp9232
aaaaa(lp9233
(I0
F0.4063
tp9234
a(lp9235
(I2
F0.0732
tp9236
a(F1149.0
F87.0
tp9237
a(F735.0
F76.0
tp9238
aa(lp9239
(I5
F0.0489
tp9240
a(lp9241
(I3
F0.0397
tp9242
a(F886.0
F36.0
tp9243
a(F744.0
F50.0
tp9244
aa(F738.0
F69.0
tp9245
aaaa(lp9246
(I5
F0.0537
tp9247
a(lp9248
(I0
F0.0841
tp9249
a(lp9250
(I5
F0.015
tp9251
a(F784.0
F37.0
tp9252
a(F739.0
F56.0
tp9253
aa(F866.0
F111.0
tp9254
aa(lp9255
(I2
F0.4414
tp9256
a(F1033.0
F150.0
tp9257
a(F630.0
F188.0
tp9258
aaaa(lp9259
(I6
F0.0077
tp9260
a(lp9261
(I4
F0.0474
tp9262
a(lp9263
(I2
F0.015
tp9264
a(lp9265
(I1
F0.1139
tp9266
a(F1118.0
F125.0
tp9267
a(F762.0
F141.0
tp9268
aa(F810.0
F161.0
tp9269
aa(F997.0
F304.0
tp9270
aa(lp9271
(I3
F0.1127
tp9272
a(lp9273
(I1
F0.0846
tp9274
a(F1155.0
F271.0
tp9275
a(lp9276
(I5
F0.0956
tp9277
a(F680.0
F204.0
tp9278
a(F610.0
F244.0
tp9279
aaa(lp9280
(I4
F0.292
tp9281
a(F625.0
F175.0
tp9282
a(F771.0
F436.0
tp9283
aaaaa(lp9284
(I1
F0.2209
tp9285
a(lp9286
(I4
F0.2309
tp9287
a(lp9288
(I7
F0.1352
tp9289
a(F987.0
F306.0
tp9290
a(F1014.0
F408.0
tp9291
aa(lp9292
(I4
F1.2205
tp9293
a(lp9294
(I6
F0.5791
tp9295
a(F585.0
F384.0
tp9296
a(F363.0
F493.0
tp9297
aa(lp9298
(I0
F1.6065
tp9299
a(F319.0
F479.0
tp9300
a(F269.0
F526.0
tp9301
aaaa(lp9302
(I0
F0.3192
tp9303
a(F525.0
F274.0
tp9304
a(lp9305
(I6
F1.398
tp9306
a(F205.0
F578.0
tp9307
a(F102.0
F973.0
tp9308
aaaaa(lp9309
(I1
F0.1213
tp9310
a(lp9311
(I3
F0.0669
tp9312
a(lp9313
(I3
F0.0299
tp9314
a(lp9315
(I4
F1.5341
tp9316
a(lp9317
(I7
F0.0277
tp9318
a(lp9319
(I0
F-0.0391
tp9320
a(F950.0
F41.0
tp9321
a(lp9322
(I0
F1.1488
tp9323
a(lp9324
(I5
F0.0074
tp9325
a(lp9326
(I4
F0.5566
tp9327
a(lp9328
(I5
F-0.0269
tp9329
a(F902.0
F8.0
tp9330
a(lp9331
(I5
F-0.008
tp9332
a(F769.0
F18.0
tp9333
a(F779.0
F8.0
tp9334
aaa(F886.0
F3.0
tp9335
aa(lp9336
(I6
F0.1348
tp9337
a(F961.0
F51.0
tp9338
a(F818.0
F21.0
tp9339
aaa(F976.0
F8.0
tp9340
aaa(lp9341
(I0
F0.3301
tp9342
a(lp9343
(I0
F-0.0333
tp9344
a(F923.0
F48.0
tp9345
a(lp9346
(I7
F0.0592
tp9347
a(F797.0
F42.0
tp9348
a(F869.0
F65.0
tp9349
aaa(F1135.0
F111.0
tp9350
aaa(F787.0
F82.0
tp9351
aa(lp9352
(I5
F0.0735
tp9353
a(lp9354
(I7
F0.0563
tp9355
a(lp9356
(I5
F0.0456
tp9357
a(lp9358
(I5
F0.033
tp9359
a(F1153.0
F86.0
tp9360
a(F987.0
F46.0
tp9361
aa(F1119.0
F115.0
tp9362
aa(lp9363
(I0
F0.2515
tp9364
a(F718.0
F90.0
tp9365
a(F666.0
F116.0
tp9366
aaa(F780.0
F191.0
tp9367
aaa(lp9368
(I6
F0.3086
tp9369
a(lp9370
(I2
F0.3004
tp9371
a(lp9372
(I1
F0.1049
tp9373
a(lp9374
(I3
F0.0926
tp9375
a(F1007.0
F129.0
tp9376
a(F721.0
F142.0
tp9377
aa(F707.0
F136.0
tp9378
aa(F1199.0
F302.0
tp9379
aa(lp9380
(I7
F0.1036
tp9381
a(lp9382
(I3
F0.0886
tp9383
a(F950.0
F173.0
tp9384
a(F707.0
F216.0
tp9385
aa(F628.0
F414.0
tp9386
aaaa(lp9387
(I4
F0.4954
tp9388
a(lp9389
(I2
F0.0553
tp9390
a(lp9391
(I7
F0.0858
tp9392
a(F701.0
F124.0
tp9393
a(lp9394
(I3
F0.1507
tp9395
a(F806.0
F213.0
tp9396
a(lp9397
(I1
F0.1947
tp9398
a(F632.0
F241.0
tp9399
a(F638.0
F193.0
tp9400
aaaa(lp9401
(I7
F0.1238
tp9402
a(F1007.0
F350.0
tp9403
a(F467.0
F485.0
tp9404
aaa(lp9405
(I6
F2.1922
tp9406
a(lp9407
(I5
F0.2105
tp9408
a(lp9409
(I3
F0.1446
tp9410
a(F541.0
F350.0
tp9411
a(F773.0
F835.0
tp9412
aa(F237.0
F959.0
tp9413
aa(F201.0
F1151.0
tp9414
aaaa(lp9415
(I5
F0.1329
tp9416
a(lp9417
(I2
F1.8824
tp9418
a(lp9419
(I5
F0.0693
tp9420
a(lp9421
(I4
F1.0699
tp9422
a(lp9423
(I1
F0.0506
tp9424
a(lp9425
(I7
F0.025
tp9426
a(lp9427
(I1
F0.0106
tp9428
a(lp9429
(I5
F0.0043
tp9430
a(lp9431
(I6
F0.3294
tp9432
a(lp9433
(I3
F-0.0115
tp9434
a(F1519.0
F20.0
tp9435
a(F781.0
F37.0
tp9436
aa(F1152.0
F4.0
tp9437
aa(F1030.0
F48.0
tp9438
aa(lp9439
(I4
F0.031
tp9440
a(F809.0
F33.0
tp9441
a(F1132.0
F74.0
tp9442
aaa(lp9443
(I2
F0.3922
tp9444
a(lp9445
(I0
F0.0798
tp9446
a(lp9447
(I3
F0.0274
tp9448
a(lp9449
(I1
F-0.0123
tp9450
a(F795.0
F23.0
tp9451
a(F942.0
F60.0
tp9452
aa(F724.0
F67.0
tp9453
aa(F831.0
F80.0
tp9454
aa(F1217.0
F122.0
tp9455
aaa(lp9456
(I2
F0.4062
tp9457
a(lp9458
(I7
F0.0525
tp9459
a(F999.0
F140.0
tp9460
a(F903.0
F97.0
tp9461
aa(F1124.0
F194.0
tp9462
aaa(lp9463
(I4
F1.5504
tp9464
a(lp9465
(I0
F1.1582
tp9466
a(F1010.0
F48.0
tp9467
a(F1038.0
F21.0
tp9468
aa(F921.0
F62.0
tp9469
aaa(lp9470
(I0
F0.0803
tp9471
a(lp9472
(I5
F0.0965
tp9473
a(F1362.0
F187.0
tp9474
a(F1506.0
F306.0
tp9475
aa(lp9476
(I3
F0.1077
tp9477
a(lp9478
(I1
F0.0823
tp9479
a(F1270.0
F228.0
tp9480
a(F1021.0
F312.0
tp9481
aa(lp9482
(I5
F0.1103
tp9483
a(F624.0
F212.0
tp9484
a(F580.0
F330.0
tp9485
aaaaa(lp9486
(I0
F2.0742
tp9487
a(F683.0
F153.0
tp9488
a(F578.0
F219.0
tp9489
aaa(lp9490
(I5
F0.2109
tp9491
a(lp9492
(I2
F0.0507
tp9493
a(lp9494
(I7
F0.1318
tp9495
a(F747.0
F180.0
tp9496
a(F890.0
F346.0
tp9497
aa(lp9498
(I6
F0.6187
tp9499
a(lp9500
(I0
F0.4948
tp9501
a(F560.0
F337.0
tp9502
a(F421.0
F372.0
tp9503
aa(lp9504
(I7
F0.1604
tp9505
a(F440.0
F477.0
tp9506
a(F231.0
F558.0
tp9507
aaaa(lp9508
(I4
F0.2285
tp9509
a(F656.0
F226.0
tp9510
a(lp9511
(I2
F1.0462
tp9512
a(F246.0
F574.0
tp9513
a(F164.0
F1407.0
tp9514
aaaaa(lp9515
(I0
F2.3516
tp9516
a(lp9517
(I3
F0.1218
tp9518
a(lp9519
(I6
F1.961
tp9520
a(lp9521
(I5
F0.0693
tp9522
a(lp9523
(I1
F0.0325
tp9524
a(lp9525
(I1
F0.0098
tp9526
a(lp9527
(I7
F0.0243
tp9528
a(lp9529
(I3
F0.0062
tp9530
a(lp9531
(I4
F0.39
tp9532
a(lp9533
(I1
F-0.0105
tp9534
a(lp9535
(I1
F-0.0377
tp9536
a(F828.0
F13.0
tp9537
a(F1001.0
F39.0
tp9538
aa(F771.0
F9.0
tp9539
aa(lp9540
(I4
F0.8632
tp9541
a(F824.0
F5.0
tp9542
a(F1116.0
F13.0
tp9543
aaa(F771.0
F30.0
tp9544
aa(lp9545
(I3
F-0.0106
tp9546
a(F1249.0
F70.0
tp9547
a(F867.0
F39.0
tp9548
aaa(lp9549
(I2
F0.5169
tp9550
a(lp9551
(I7
F0.0321
tp9552
a(F1238.0
F58.0
tp9553
a(F799.0
F83.0
tp9554
aa(F1450.0
F61.0
tp9555
aaa(lp9556
(I3
F0.0685
tp9557
a(lp9558
(I7
F0.0619
tp9559
a(lp9560
(I1
F0.0406
tp9561
a(F986.0
F57.0
tp9562
a(lp9563
(I2
F0.718
tp9564
a(F1330.0
F92.0
tp9565
a(F871.0
F89.0
tp9566
aaa(F1008.0
F149.0
tp9567
aa(F1307.0
F165.0
tp9568
aaa(lp9569
(I0
F0.1433
tp9570
a(lp9571
(I6
F0.0239
tp9572
a(lp9573
(I7
F0.0894
tp9574
a(F884.0
F130.0
tp9575
a(F984.0
F100.0
tp9576
aa(F785.0
F267.0
tp9577
aa(lp9578
(I3
F0.0789
tp9579
a(F1147.0
F332.0
tp9580
a(lp9581
(I5
F0.1081
tp9582
a(F977.0
F298.0
tp9583
a(F503.0
F325.0
tp9584
aaaaa(F845.0
F257.0
tp9585
aa(lp9586
(I4
F0.2721
tp9587
a(lp9588
(I4
F0.0002
tp9589
a(lp9590
(I1
F0.1384
tp9591
a(F873.0
F192.0
tp9592
a(lp9593
(I5
F0.1527
tp9594
a(F837.0
F209.0
tp9595
a(lp9596
(I5
F0.1986
tp9597
a(F582.0
F213.0
tp9598
a(F592.0
F162.0
tp9599
aaaa(F832.0
F461.0
tp9600
aa(lp9601
(I3
F0.2392
tp9602
a(lp9603
(I1
F0.1449
tp9604
a(F729.0
F474.0
tp9605
a(lp9606
(I2
F0.8091
tp9607
a(F562.0
F562.0
tp9608
a(F419.0
F727.0
tp9609
aaa(F163.0
F718.0
tp9610
aaaa(lp9611
(I7
F0.1471
tp9612
a(F529.0
F377.0
tp9613
a(F105.0
F920.0
tp9614
aaa(lp9615
(I5
F0.1329
tp9616
a(lp9617
(I3
F0.0685
tp9618
a(lp9619
(I5
F0.0598
tp9620
a(lp9621
(I1
F0.028
tp9622
a(lp9623
(I2
F0.2014
tp9624
a(lp9625
(I5
F0.0122
tp9626
a(lp9627
(I7
F0.0124
tp9628
a(lp9629
(I1
F-0.015
tp9630
a(F1300.0
F17.0
tp9631
a(F916.0
F30.0
tp9632
aa(lp9633
(I1
F-0.0195
tp9634
a(F761.0
F38.0
tp9635
a(F768.0
F30.0
tp9636
aaa(lp9637
(I1
F0.0106
tp9638
a(F808.0
F66.0
tp9639
a(F770.0
F49.0
tp9640
aaa(lp9641
(I7
F0.0255
tp9642
a(lp9643
(I3
F0.0124
tp9644
a(lp9645
(I4
F1.1335
tp9646
a(lp9647
(I5
F-0.0052
tp9648
a(F1224.0
F13.0
tp9649
a(F802.0
F17.0
tp9650
aa(F841.0
F6.0
tp9651
aa(F950.0
F28.0
tp9652
aa(F1277.0
F65.0
tp9653
aaa(lp9654
(I2
F0.493
tp9655
a(lp9656
(I4
F0.0003
tp9657
a(F1288.0
F121.0
tp9658
a(F1171.0
F93.0
tp9659
aa(lp9660
(I1
F0.0403
tp9661
a(F863.0
F45.0
tp9662
a(F1241.0
F106.0
tp9663
aaaa(lp9664
(I6
F0.5387
tp9665
a(F1412.0
F165.0
tp9666
a(F839.0
F213.0
tp9667
aaa(lp9668
(I1
F0.0882
tp9669
a(lp9670
(I2
F0.0205
tp9671
a(F791.0
F107.0
tp9672
a(lp9673
(I2
F0.6298
tp9674
a(F649.0
F166.0
tp9675
a(F1055.0
F200.0
tp9676
aaa(lp9677
(I2
F0.3251
tp9678
a(lp9679
(I0
F0.0477
tp9680
a(F1868.0
F394.0
tp9681
a(F725.0
F200.0
tp9682
aa(lp9683
(I5
F0.1085
tp9684
a(lp9685
(I7
F0.0608
tp9686
a(F714.0
F254.0
tp9687
a(F873.0
F265.0
tp9688
aa(F713.0
F418.0
tp9689
aaaaa(lp9690
(I1
F0.2117
tp9691
a(lp9692
(I2
F0.1568
tp9693
a(lp9694
(I4
F0.0385
tp9695
a(lp9696
(I7
F0.1435
tp9697
a(F751.0
F165.0
tp9698
a(F653.0
F223.0
tp9699
aa(F500.0
F321.0
tp9700
aa(lp9701
(I6
F0.5611
tp9702
a(F786.0
F590.0
tp9703
a(lp9704
(I7
F0.1604
tp9705
a(F444.0
F493.0
tp9706
a(F244.0
F618.0
tp9707
aaaa(lp9708
(I5
F0.2362
tp9709
a(F344.0
F429.0
tp9710
a(lp9711
(I6
F0.4685
tp9712
a(F510.0
F343.0
tp9713
a(F116.0
F1205.0
tp9714
aaaaa(lp9715
(I5
F0.1219
tp9716
a(lp9717
(I1
F0.0592
tp9718
a(lp9719
(I0
F1.7052
tp9720
a(lp9721
(I7
F0.0556
tp9722
a(lp9723
(I0
F0.1295
tp9724
a(lp9725
(I5
F0.004
tp9726
a(lp9727
(I5
F-0.0124
tp9728
a(lp9729
(I3
F-0.0278
tp9730
a(F943.0
F24.0
tp9731
a(F743.0
F42.0
tp9732
aa(F818.0
F17.0
tp9733
aa(lp9734
(I3
F0.0145
tp9735
a(F1005.0
F60.0
tp9736
a(F1408.0
F123.0
tp9737
aaa(lp9738
(I3
F0.025
tp9739
a(lp9740
(I3
F0.0077
tp9741
a(lp9742
(I4
F0.3979
tp9743
a(F891.0
F22.0
tp9744
a(lp9745
(I2
F0.8066
tp9746
a(F1081.0
F6.0
tp9747
a(F1091.0
F15.0
tp9748
aaa(F1491.0
F51.0
tp9749
aa(lp9750
(I5
F0.0346
tp9751
a(F926.0
F80.0
tp9752
a(F1363.0
F68.0
tp9753
aaaa(lp9754
(I6
F0.2072
tp9755
a(lp9756
(I1
F0.0159
tp9757
a(F787.0
F31.0
tp9758
a(F885.0
F65.0
tp9759
aa(lp9760
(I1
F0.0255
tp9761
a(F816.0
F87.0
tp9762
a(F762.0
F143.0
tp9763
aaaa(F701.0
F75.0
tp9764
aa(lp9765
(I4
F0.1561
tp9766
a(lp9767
(I1
F0.0851
tp9768
a(F1230.0
F167.0
tp9769
a(lp9770
(I0
F0.0477
tp9771
a(lp9772
(I3
F0.1133
tp9773
a(F906.0
F133.0
tp9774
a(F851.0
F178.0
tp9775
aa(F889.0
F268.0
tp9776
aaa(lp9777
(I7
F0.0796
tp9778
a(lp9779
(I1
F0.0914
tp9780
a(lp9781
(I1
F0.071
tp9782
a(F741.0
F96.0
tp9783
a(F842.0
F153.0
tp9784
aa(F861.0
F266.0
tp9785
aa(lp9786
(I2
F1.1669
tp9787
a(F1063.0
F372.0
tp9788
a(F552.0
F256.0
tp9789
aaaaa(lp9790
(I0
F0.3951
tp9791
a(lp9792
(I4
F0.0675
tp9793
a(lp9794
(I3
F0.1528
tp9795
a(F1170.0
F248.0
tp9796
a(lp9797
(I7
F0.1729
tp9798
a(F593.0
F196.0
tp9799
a(F742.0
F228.0
tp9800
aaa(lp9801
(I3
F0.1521
tp9802
a(F533.0
F309.0
tp9803
a(F416.0
F385.0
tp9804
aaa(lp9805
(I5
F0.2051
tp9806
a(lp9807
(I6
F0.3157
tp9808
a(F471.0
F307.0
tp9809
a(lp9810
(I5
F0.1482
tp9811
a(F442.0
F423.0
tp9812
a(F489.0
F825.0
tp9813
aaa(lp9814
(I4
F2.0411
tp9815
a(F263.0
F822.0
tp9816
a(F120.0
F1034.0
tp9817
aaaaa(lp9818
(I5
F0.1342
tp9819
a(lp9820
(I5
F0.0704
tp9821
a(lp9822
(I6
F1.8403
tp9823
a(lp9824
(I3
F0.0685
tp9825
a(lp9826
(I5
F0.0163
tp9827
a(lp9828
(I3
F-0.0152
tp9829
a(lp9830
(I6
F0.1349
tp9831
a(lp9832
(I7
F-0.0191
tp9833
a(F888.0
F16.0
tp9834
a(F1043.0
F25.0
tp9835
aa(F1501.0
F10.0
tp9836
aa(lp9837
(I4
F0.3478
tp9838
a(lp9839
(I1
F0.0154
tp9840
a(F1856.0
F68.0
tp9841
a(F839.0
F65.0
tp9842
aa(lp9843
(I7
F0.0092
tp9844
a(F1044.0
F9.0
tp9845
a(F772.0
F29.0
tp9846
aaaa(lp9847
(I3
F0.054
tp9848
a(lp9849
(I4
F0.8165
tp9850
a(lp9851
(I7
F0.0563
tp9852
a(lp9853
(I3
F0.0341
tp9854
a(lp9855
(I5
F0.031
tp9856
a(F963.0
F44.0
tp9857
a(F756.0
F48.0
tp9858
aa(F1040.0
F89.0
tp9859
aa(F1122.0
F120.0
tp9860
aa(lp9861
(I5
F0.0328
tp9862
a(F789.0
F22.0
tp9863
a(F1137.0
F62.0
tp9864
aaa(F1134.0
F120.0
tp9865
aaa(lp9866
(I3
F0.1272
tp9867
a(lp9868
(I3
F0.0827
tp9869
a(F687.0
F135.0
tp9870
a(F873.0
F106.0
tp9871
aa(F682.0
F190.0
tp9872
aaa(F824.0
F93.0
tp9873
aa(lp9874
(I2
F0.3225
tp9875
a(lp9876
(I4
F0.0573
tp9877
a(lp9878
(I3
F0.114
tp9879
a(lp9880
(I3
F0.0822
tp9881
a(F685.0
F78.0
tp9882
a(F813.0
F128.0
tp9883
aa(F895.0
F191.0
tp9884
aa(F1278.0
F328.0
tp9885
aa(lp9886
(I5
F0.1083
tp9887
a(lp9888
(I2
F1.1007
tp9889
a(F1123.0
F327.0
tp9890
a(F985.0
F344.0
tp9891
aa(F890.0
F516.0
tp9892
aaaa(lp9893
(I4
F0.5297
tp9894
a(lp9895
(I2
F0.0446
tp9896
a(lp9897
(I7
F0.1244
tp9898
a(F712.0
F146.0
tp9899
a(lp9900
(I1
F0.1723
tp9901
a(F647.0
F212.0
tp9902
a(F753.0
F284.0
tp9903
aaa(F845.0
F665.0
tp9904
aa(lp9905
(I4
F2.8244
tp9906
a(lp9907
(I5
F0.1838
tp9908
a(F767.0
F771.0
tp9909
a(lp9910
(I6
F1.1173
tp9911
a(F296.0
F545.0
tp9912
a(F134.0
F760.0
tp9913
aaa(F169.0
F972.0
tp9914
aaaa(lp9915
(I7
F0.1188
tp9916
a(lp9917
(I3
F0.0684
tp9918
a(lp9919
(I7
F0.0249
tp9920
a(lp9921
(I7
F0.013
tp9922
a(lp9923
(I7
F-0.0252
tp9924
a(lp9925
(I2
F0.5201
tp9926
a(F1311.0
F80.0
tp9927
a(F826.0
F22.0
tp9928
aa(lp9929
(I1
F0.0095
tp9930
a(lp9931
(I7
F-0.0134
tp9932
a(F886.0
F5.0
tp9933
a(lp9934
(I7
F0.0008
tp9935
a(F1178.0
F33.0
tp9936
a(F999.0
F16.0
tp9937
aaa(lp9938
(I0
F0.3215
tp9939
a(F870.0
F52.0
tp9940
a(F952.0
F44.0
tp9941
aaaa(lp9942
(I3
F0.0151
tp9943
a(F924.0
F26.0
tp9944
a(F937.0
F74.0
tp9945
aaa(lp9946
(I1
F0.0364
tp9947
a(lp9948
(I7
F0.0699
tp9949
a(lp9950
(I1
F0.0139
tp9951
a(F1469.0
F66.0
tp9952
a(lp9953
(I7
F0.039
tp9954
a(F746.0
F50.0
tp9955
a(F729.0
F54.0
tp9956
aaa(F758.0
F89.0
tp9957
aa(lp9958
(I2
F0.0596
tp9959
a(F1053.0
F106.0
tp9960
a(lp9961
(I3
F0.0534
tp9962
a(F1328.0
F149.0
tp9963
a(F900.0
F141.0
tp9964
aaaaa(lp9965
(I0
F2.107
tp9966
a(lp9967
(I5
F0.0978
tp9968
a(lp9969
(I7
F0.0864
tp9970
a(lp9971
(I0
F0.2662
tp9972
a(lp9973
(I1
F0.0896
tp9974
a(F745.0
F124.0
tp9975
a(F745.0
F103.0
tp9976
aa(lp9977
(I3
F0.1069
tp9978
a(F1208.0
F210.0
tp9979
a(F635.0
F181.0
tp9980
aaa(F760.0
F189.0
tp9981
aa(lp9982
(I6
F0.1515
tp9983
a(lp9984
(I7
F0.0309
tp9985
a(F542.0
F243.0
tp9986
a(lp9987
(I7
F0.0869
tp9988
a(F731.0
F220.0
tp9989
a(F657.0
F152.0
tp9990
aaa(lp9991
(I3
F0.1264
tp9992
a(F650.0
F244.0
tp9993
a(F490.0
F328.0
tp9994
aaaa(F417.0
F418.0
tp9995
aaa(lp9996
(I0
F0.1833
tp9997
a(lp9998
(I0
F0.0
tp9999
a(lp10000
(I3
F0.0913
tp10001
a(F1104.0
F95.0
tp10002
a(lp10003
(I1
F0.1492
tp10004
a(F822.0
F190.0
tp10005
a(F1085.0
F377.0
tp10006
aaa(F528.0
F282.0
tp10007
aa(lp10008
(I5
F0.2106
tp10009
a(lp10010
(I3
F0.122
tp10011
a(F700.0
F417.0
tp10012
a(lp10013
(I2
F0.6867
tp10014
a(F437.0
F417.0
tp10015
a(F490.0
F770.0
tp10016
aaa(lp10017
(I5
F0.2836
tp10018
a(F161.0
F622.0
tp10019
a(F76.0
F1022.0
tp10020
aaaaa(lp10021
(I5
F0.1321
tp10022
a(lp10023
(I0
F2.0133
tp10024
a(lp10025
(I6
F0.0097
tp10026
a(lp10027
(I7
F0.0128
tp10028
a(lp10029
(I1
F0.064
tp10030
a(lp10031
(I5
F0.0165
tp10032
a(lp10033
(I3
F0.0035
tp10034
a(lp10035
(I1
F-0.0288
tp10036
a(F868.0
F12.0
tp10037
a(F997.0
F20.0
tp10038
aa(F787.0
F43.0
tp10039
aa(F1078.0
F71.0
tp10040
aa(F675.0
F141.0
tp10041
aa(lp10042
(I4
F0.0372
tp10043
a(lp10044
(I5
F0.0338
tp10045
a(F1503.0
F70.0
tp10046
a(lp10047
(I1
F0.1132
tp10048
a(lp10049
(I3
F0.0572
tp10050
a(F757.0
F58.0
tp10051
a(F1341.0
F171.0
tp10052
aa(F849.0
F164.0
tp10053
aaa(lp10054
(I5
F0.0671
tp10055
a(F908.0
F86.0
tp10056
a(F635.0
F190.0
tp10057
aaaa(lp10058
(I5
F0.0691
tp10059
a(lp10060
(I5
F0.0282
tp10061
a(lp10062
(I7
F0.0425
tp10063
a(lp10064
(I5
F0.0069
tp10065
a(lp10066
(I4
F0.0995
tp10067
a(F786.0
F33.0
tp10068
a(lp10069
(I0
F0.5919
tp10070
a(F840.0
F12.0
tp10071
a(F1261.0
F5.0
tp10072
aaa(lp10073
(I1
F0.0174
tp10074
a(F957.0
F27.0
tp10075
a(F843.0
F57.0
tp10076
aaa(F1167.0
F104.0
tp10077
aa(lp10078
(I5
F0.0588
tp10079
a(lp10080
(I1
F0.0538
tp10081
a(lp10082
(I5
F0.0361
tp10083
a(F732.0
F78.0
tp10084
a(lp10085
(I5
F0.0443
tp10086
a(F750.0
F41.0
tp10087
a(F805.0
F75.0
tp10088
aaa(F817.0
F115.0
tp10089
aa(F882.0
F142.0
tp10090
aaa(lp10091
(I5
F0.098
tp10092
a(lp10093
(I7
F0.0746
tp10094
a(F872.0
F138.0
tp10095
a(F1017.0
F337.0
tp10096
aa(lp10097
(I7
F0.1036
tp10098
a(F684.0
F214.0
tp10099
a(F843.0
F440.0
tp10100
aaaaa(F879.0
F286.0
tp10101
aa(lp10102
(I6
F0.361
tp10103
a(lp10104
(I4
F0.0262
tp10105
a(lp10106
(I3
F0.1459
tp10107
a(F694.0
F155.0
tp10108
a(lp10109
(I3
F0.1919
tp10110
a(F646.0
F214.0
tp10111
a(F699.0
F167.0
tp10112
aaa(lp10113
(I0
F0.6105
tp10114
a(F722.0
F432.0
tp10115
a(F350.0
F465.0
tp10116
aaa(lp10117
(I3
F0.2143
tp10118
a(lp10119
(I7
F0.1787
tp10120
a(lp10121
(I4
F1.0954
tp10122
a(F427.0
F434.0
tp10123
a(F351.0
F441.0
tp10124
aa(F240.0
F620.0
tp10125
aa(lp10126
(I5
F0.2983
tp10127
a(F186.0
F634.0
tp10128
a(F51.0
F869.0
tp10129
aaaaa.